ARM GAS  /tmp/ccWeCwHW.s 			page 1


   1              		.cpu cortex-m4
   2              		.eabi_attribute 27, 1
   3              		.eabi_attribute 28, 1
   4              		.eabi_attribute 20, 1
   5              		.eabi_attribute 21, 1
   6              		.eabi_attribute 23, 3
   7              		.eabi_attribute 24, 1
   8              		.eabi_attribute 25, 1
   9              		.eabi_attribute 26, 1
  10              		.eabi_attribute 30, 1
  11              		.eabi_attribute 34, 1
  12              		.eabi_attribute 18, 4
  13              		.file	"stm32l4xx_hal_flash_ex.c"
  14              		.text
  15              	.Ltext0:
  16              		.cfi_sections	.debug_frame
  17              		.section	.text.FLASH_MassErase,"ax",%progbits
  18              		.align	1
  19              		.arch armv7e-m
  20              		.syntax unified
  21              		.thumb
  22              		.thumb_func
  23              		.fpu fpv4-sp-d16
  25              	FLASH_MassErase:
  26              	.LVL0:
  27              	.LFB127:
  28              		.file 1 "Drivers/STM32L4xx_HAL_Driver/Src/stm32l4xx_hal_flash_ex.c"
   1:Drivers/STM32L4xx_HAL_Driver/Src/stm32l4xx_hal_flash_ex.c **** /**
   2:Drivers/STM32L4xx_HAL_Driver/Src/stm32l4xx_hal_flash_ex.c ****   ******************************************************************************
   3:Drivers/STM32L4xx_HAL_Driver/Src/stm32l4xx_hal_flash_ex.c ****   * @file    stm32l4xx_hal_flash_ex.c
   4:Drivers/STM32L4xx_HAL_Driver/Src/stm32l4xx_hal_flash_ex.c ****   * @author  MCD Application Team
   5:Drivers/STM32L4xx_HAL_Driver/Src/stm32l4xx_hal_flash_ex.c ****   * @brief   Extended FLASH HAL module driver.
   6:Drivers/STM32L4xx_HAL_Driver/Src/stm32l4xx_hal_flash_ex.c ****   *          This file provides firmware functions to manage the following 
   7:Drivers/STM32L4xx_HAL_Driver/Src/stm32l4xx_hal_flash_ex.c ****   *          functionalities of the FLASH extended peripheral:
   8:Drivers/STM32L4xx_HAL_Driver/Src/stm32l4xx_hal_flash_ex.c ****   *           + Extended programming operations functions
   9:Drivers/STM32L4xx_HAL_Driver/Src/stm32l4xx_hal_flash_ex.c ****   *  
  10:Drivers/STM32L4xx_HAL_Driver/Src/stm32l4xx_hal_flash_ex.c ****  @verbatim    
  11:Drivers/STM32L4xx_HAL_Driver/Src/stm32l4xx_hal_flash_ex.c ****  ==============================================================================
  12:Drivers/STM32L4xx_HAL_Driver/Src/stm32l4xx_hal_flash_ex.c ****                    ##### Flash Extended features #####
  13:Drivers/STM32L4xx_HAL_Driver/Src/stm32l4xx_hal_flash_ex.c ****   ==============================================================================
  14:Drivers/STM32L4xx_HAL_Driver/Src/stm32l4xx_hal_flash_ex.c ****            
  15:Drivers/STM32L4xx_HAL_Driver/Src/stm32l4xx_hal_flash_ex.c ****   [..] Comparing to other previous devices, the FLASH interface for STM32L4xx 
  16:Drivers/STM32L4xx_HAL_Driver/Src/stm32l4xx_hal_flash_ex.c ****        devices contains the following additional features 
  17:Drivers/STM32L4xx_HAL_Driver/Src/stm32l4xx_hal_flash_ex.c ****        
  18:Drivers/STM32L4xx_HAL_Driver/Src/stm32l4xx_hal_flash_ex.c ****        (+) Capacity up to 2 Mbyte with dual bank architecture supporting read-while-write
  19:Drivers/STM32L4xx_HAL_Driver/Src/stm32l4xx_hal_flash_ex.c ****            capability (RWW)
  20:Drivers/STM32L4xx_HAL_Driver/Src/stm32l4xx_hal_flash_ex.c ****        (+) Dual bank memory organization       
  21:Drivers/STM32L4xx_HAL_Driver/Src/stm32l4xx_hal_flash_ex.c ****        (+) PCROP protection for all banks
  22:Drivers/STM32L4xx_HAL_Driver/Src/stm32l4xx_hal_flash_ex.c ****    
  23:Drivers/STM32L4xx_HAL_Driver/Src/stm32l4xx_hal_flash_ex.c ****                         ##### How to use this driver #####
  24:Drivers/STM32L4xx_HAL_Driver/Src/stm32l4xx_hal_flash_ex.c ****  ==============================================================================
  25:Drivers/STM32L4xx_HAL_Driver/Src/stm32l4xx_hal_flash_ex.c ****   [..] This driver provides functions to configure and program the FLASH memory 
  26:Drivers/STM32L4xx_HAL_Driver/Src/stm32l4xx_hal_flash_ex.c ****        of all STM32L4xx devices. It includes
  27:Drivers/STM32L4xx_HAL_Driver/Src/stm32l4xx_hal_flash_ex.c ****       (#) Flash Memory Erase functions: 
  28:Drivers/STM32L4xx_HAL_Driver/Src/stm32l4xx_hal_flash_ex.c ****            (++) Lock and Unlock the FLASH interface using HAL_FLASH_Unlock() and 
  29:Drivers/STM32L4xx_HAL_Driver/Src/stm32l4xx_hal_flash_ex.c ****                 HAL_FLASH_Lock() functions
  30:Drivers/STM32L4xx_HAL_Driver/Src/stm32l4xx_hal_flash_ex.c ****            (++) Erase function: Erase page, erase all sectors
ARM GAS  /tmp/ccWeCwHW.s 			page 2


  31:Drivers/STM32L4xx_HAL_Driver/Src/stm32l4xx_hal_flash_ex.c ****            (++) There are two modes of erase :
  32:Drivers/STM32L4xx_HAL_Driver/Src/stm32l4xx_hal_flash_ex.c ****              (+++) Polling Mode using HAL_FLASHEx_Erase()
  33:Drivers/STM32L4xx_HAL_Driver/Src/stm32l4xx_hal_flash_ex.c ****              (+++) Interrupt Mode using HAL_FLASHEx_Erase_IT()
  34:Drivers/STM32L4xx_HAL_Driver/Src/stm32l4xx_hal_flash_ex.c ****                          
  35:Drivers/STM32L4xx_HAL_Driver/Src/stm32l4xx_hal_flash_ex.c ****       (#) Option Bytes Programming function: Use HAL_FLASHEx_OBProgram() to :
  36:Drivers/STM32L4xx_HAL_Driver/Src/stm32l4xx_hal_flash_ex.c ****         (++) Set/Reset the write protection
  37:Drivers/STM32L4xx_HAL_Driver/Src/stm32l4xx_hal_flash_ex.c ****         (++) Set the Read protection Level
  38:Drivers/STM32L4xx_HAL_Driver/Src/stm32l4xx_hal_flash_ex.c ****         (++) Program the user Option Bytes
  39:Drivers/STM32L4xx_HAL_Driver/Src/stm32l4xx_hal_flash_ex.c ****         (++) Configure the PCROP protection
  40:Drivers/STM32L4xx_HAL_Driver/Src/stm32l4xx_hal_flash_ex.c ****         
  41:Drivers/STM32L4xx_HAL_Driver/Src/stm32l4xx_hal_flash_ex.c ****       (#) Get Option Bytes Configuration function: Use HAL_FLASHEx_OBGetConfig() to :
  42:Drivers/STM32L4xx_HAL_Driver/Src/stm32l4xx_hal_flash_ex.c ****         (++) Get the value of a write protection area
  43:Drivers/STM32L4xx_HAL_Driver/Src/stm32l4xx_hal_flash_ex.c ****         (++) Know if the read protection is activated
  44:Drivers/STM32L4xx_HAL_Driver/Src/stm32l4xx_hal_flash_ex.c ****         (++) Get the value of the user Option Bytes
  45:Drivers/STM32L4xx_HAL_Driver/Src/stm32l4xx_hal_flash_ex.c ****         (++) Get the value of a PCROP area
  46:Drivers/STM32L4xx_HAL_Driver/Src/stm32l4xx_hal_flash_ex.c ****     
  47:Drivers/STM32L4xx_HAL_Driver/Src/stm32l4xx_hal_flash_ex.c ****  @endverbatim                      
  48:Drivers/STM32L4xx_HAL_Driver/Src/stm32l4xx_hal_flash_ex.c ****   ******************************************************************************
  49:Drivers/STM32L4xx_HAL_Driver/Src/stm32l4xx_hal_flash_ex.c ****   * @attention
  50:Drivers/STM32L4xx_HAL_Driver/Src/stm32l4xx_hal_flash_ex.c ****   *
  51:Drivers/STM32L4xx_HAL_Driver/Src/stm32l4xx_hal_flash_ex.c ****   * <h2><center>&copy; COPYRIGHT(c) 2017 STMicroelectronics</center></h2>
  52:Drivers/STM32L4xx_HAL_Driver/Src/stm32l4xx_hal_flash_ex.c ****   *
  53:Drivers/STM32L4xx_HAL_Driver/Src/stm32l4xx_hal_flash_ex.c ****   * Redistribution and use in source and binary forms, with or without modification,
  54:Drivers/STM32L4xx_HAL_Driver/Src/stm32l4xx_hal_flash_ex.c ****   * are permitted provided that the following conditions are met:
  55:Drivers/STM32L4xx_HAL_Driver/Src/stm32l4xx_hal_flash_ex.c ****   *   1. Redistributions of source code must retain the above copyright notice,
  56:Drivers/STM32L4xx_HAL_Driver/Src/stm32l4xx_hal_flash_ex.c ****   *      this list of conditions and the following disclaimer.
  57:Drivers/STM32L4xx_HAL_Driver/Src/stm32l4xx_hal_flash_ex.c ****   *   2. Redistributions in binary form must reproduce the above copyright notice,
  58:Drivers/STM32L4xx_HAL_Driver/Src/stm32l4xx_hal_flash_ex.c ****   *      this list of conditions and the following disclaimer in the documentation
  59:Drivers/STM32L4xx_HAL_Driver/Src/stm32l4xx_hal_flash_ex.c ****   *      and/or other materials provided with the distribution.
  60:Drivers/STM32L4xx_HAL_Driver/Src/stm32l4xx_hal_flash_ex.c ****   *   3. Neither the name of STMicroelectronics nor the names of its contributors
  61:Drivers/STM32L4xx_HAL_Driver/Src/stm32l4xx_hal_flash_ex.c ****   *      may be used to endorse or promote products derived from this software
  62:Drivers/STM32L4xx_HAL_Driver/Src/stm32l4xx_hal_flash_ex.c ****   *      without specific prior written permission.
  63:Drivers/STM32L4xx_HAL_Driver/Src/stm32l4xx_hal_flash_ex.c ****   *
  64:Drivers/STM32L4xx_HAL_Driver/Src/stm32l4xx_hal_flash_ex.c ****   * THIS SOFTWARE IS PROVIDED BY THE COPYRIGHT HOLDERS AND CONTRIBUTORS "AS IS"
  65:Drivers/STM32L4xx_HAL_Driver/Src/stm32l4xx_hal_flash_ex.c ****   * AND ANY EXPRESS OR IMPLIED WARRANTIES, INCLUDING, BUT NOT LIMITED TO, THE
  66:Drivers/STM32L4xx_HAL_Driver/Src/stm32l4xx_hal_flash_ex.c ****   * IMPLIED WARRANTIES OF MERCHANTABILITY AND FITNESS FOR A PARTICULAR PURPOSE ARE
  67:Drivers/STM32L4xx_HAL_Driver/Src/stm32l4xx_hal_flash_ex.c ****   * DISCLAIMED. IN NO EVENT SHALL THE COPYRIGHT HOLDER OR CONTRIBUTORS BE LIABLE
  68:Drivers/STM32L4xx_HAL_Driver/Src/stm32l4xx_hal_flash_ex.c ****   * FOR ANY DIRECT, INDIRECT, INCIDENTAL, SPECIAL, EXEMPLARY, OR CONSEQUENTIAL
  69:Drivers/STM32L4xx_HAL_Driver/Src/stm32l4xx_hal_flash_ex.c ****   * DAMAGES (INCLUDING, BUT NOT LIMITED TO, PROCUREMENT OF SUBSTITUTE GOODS OR
  70:Drivers/STM32L4xx_HAL_Driver/Src/stm32l4xx_hal_flash_ex.c ****   * SERVICES; LOSS OF USE, DATA, OR PROFITS; OR BUSINESS INTERRUPTION) HOWEVER
  71:Drivers/STM32L4xx_HAL_Driver/Src/stm32l4xx_hal_flash_ex.c ****   * CAUSED AND ON ANY THEORY OF LIABILITY, WHETHER IN CONTRACT, STRICT LIABILITY,
  72:Drivers/STM32L4xx_HAL_Driver/Src/stm32l4xx_hal_flash_ex.c ****   * OR TORT (INCLUDING NEGLIGENCE OR OTHERWISE) ARISING IN ANY WAY OUT OF THE USE
  73:Drivers/STM32L4xx_HAL_Driver/Src/stm32l4xx_hal_flash_ex.c ****   * OF THIS SOFTWARE, EVEN IF ADVISED OF THE POSSIBILITY OF SUCH DAMAGE.
  74:Drivers/STM32L4xx_HAL_Driver/Src/stm32l4xx_hal_flash_ex.c ****   *
  75:Drivers/STM32L4xx_HAL_Driver/Src/stm32l4xx_hal_flash_ex.c ****   ******************************************************************************
  76:Drivers/STM32L4xx_HAL_Driver/Src/stm32l4xx_hal_flash_ex.c ****   */
  77:Drivers/STM32L4xx_HAL_Driver/Src/stm32l4xx_hal_flash_ex.c **** 
  78:Drivers/STM32L4xx_HAL_Driver/Src/stm32l4xx_hal_flash_ex.c **** /* Includes ------------------------------------------------------------------*/
  79:Drivers/STM32L4xx_HAL_Driver/Src/stm32l4xx_hal_flash_ex.c **** #include "stm32l4xx_hal.h"
  80:Drivers/STM32L4xx_HAL_Driver/Src/stm32l4xx_hal_flash_ex.c **** 
  81:Drivers/STM32L4xx_HAL_Driver/Src/stm32l4xx_hal_flash_ex.c **** /** @addtogroup STM32L4xx_HAL_Driver
  82:Drivers/STM32L4xx_HAL_Driver/Src/stm32l4xx_hal_flash_ex.c ****   * @{
  83:Drivers/STM32L4xx_HAL_Driver/Src/stm32l4xx_hal_flash_ex.c ****   */
  84:Drivers/STM32L4xx_HAL_Driver/Src/stm32l4xx_hal_flash_ex.c **** 
  85:Drivers/STM32L4xx_HAL_Driver/Src/stm32l4xx_hal_flash_ex.c **** /** @defgroup FLASHEx FLASHEx
  86:Drivers/STM32L4xx_HAL_Driver/Src/stm32l4xx_hal_flash_ex.c ****   * @brief FLASH Extended HAL module driver
  87:Drivers/STM32L4xx_HAL_Driver/Src/stm32l4xx_hal_flash_ex.c ****   * @{
ARM GAS  /tmp/ccWeCwHW.s 			page 3


  88:Drivers/STM32L4xx_HAL_Driver/Src/stm32l4xx_hal_flash_ex.c ****   */
  89:Drivers/STM32L4xx_HAL_Driver/Src/stm32l4xx_hal_flash_ex.c **** 
  90:Drivers/STM32L4xx_HAL_Driver/Src/stm32l4xx_hal_flash_ex.c **** #ifdef HAL_FLASH_MODULE_ENABLED
  91:Drivers/STM32L4xx_HAL_Driver/Src/stm32l4xx_hal_flash_ex.c **** 
  92:Drivers/STM32L4xx_HAL_Driver/Src/stm32l4xx_hal_flash_ex.c **** /* Private typedef -----------------------------------------------------------*/
  93:Drivers/STM32L4xx_HAL_Driver/Src/stm32l4xx_hal_flash_ex.c **** /* Private define ------------------------------------------------------------*/ 
  94:Drivers/STM32L4xx_HAL_Driver/Src/stm32l4xx_hal_flash_ex.c **** /* Private macro -------------------------------------------------------------*/
  95:Drivers/STM32L4xx_HAL_Driver/Src/stm32l4xx_hal_flash_ex.c **** /* Private variables ---------------------------------------------------------*/
  96:Drivers/STM32L4xx_HAL_Driver/Src/stm32l4xx_hal_flash_ex.c **** /** @defgroup FLASHEx_Private_Variables FLASHEx Private Variables
  97:Drivers/STM32L4xx_HAL_Driver/Src/stm32l4xx_hal_flash_ex.c ****  * @{
  98:Drivers/STM32L4xx_HAL_Driver/Src/stm32l4xx_hal_flash_ex.c ****  */
  99:Drivers/STM32L4xx_HAL_Driver/Src/stm32l4xx_hal_flash_ex.c **** extern FLASH_ProcessTypeDef pFlash;
 100:Drivers/STM32L4xx_HAL_Driver/Src/stm32l4xx_hal_flash_ex.c **** /**
 101:Drivers/STM32L4xx_HAL_Driver/Src/stm32l4xx_hal_flash_ex.c ****   * @}
 102:Drivers/STM32L4xx_HAL_Driver/Src/stm32l4xx_hal_flash_ex.c ****   */
 103:Drivers/STM32L4xx_HAL_Driver/Src/stm32l4xx_hal_flash_ex.c **** 
 104:Drivers/STM32L4xx_HAL_Driver/Src/stm32l4xx_hal_flash_ex.c **** /* Private function prototypes -----------------------------------------------*/
 105:Drivers/STM32L4xx_HAL_Driver/Src/stm32l4xx_hal_flash_ex.c **** /** @defgroup FLASHEx_Private_Functions FLASHEx Private Functions
 106:Drivers/STM32L4xx_HAL_Driver/Src/stm32l4xx_hal_flash_ex.c ****  * @{
 107:Drivers/STM32L4xx_HAL_Driver/Src/stm32l4xx_hal_flash_ex.c ****  */
 108:Drivers/STM32L4xx_HAL_Driver/Src/stm32l4xx_hal_flash_ex.c **** extern HAL_StatusTypeDef FLASH_WaitForLastOperation(uint32_t Timeout);
 109:Drivers/STM32L4xx_HAL_Driver/Src/stm32l4xx_hal_flash_ex.c **** void                     FLASH_PageErase(uint32_t Page, uint32_t Banks);
 110:Drivers/STM32L4xx_HAL_Driver/Src/stm32l4xx_hal_flash_ex.c **** static void              FLASH_MassErase(uint32_t Banks);
 111:Drivers/STM32L4xx_HAL_Driver/Src/stm32l4xx_hal_flash_ex.c **** void                     FLASH_FlushCaches(void);
 112:Drivers/STM32L4xx_HAL_Driver/Src/stm32l4xx_hal_flash_ex.c **** static HAL_StatusTypeDef FLASH_OB_WRPConfig(uint32_t WRPArea, uint32_t WRPStartOffset, uint32_t WRD
 113:Drivers/STM32L4xx_HAL_Driver/Src/stm32l4xx_hal_flash_ex.c **** static HAL_StatusTypeDef FLASH_OB_RDPConfig(uint32_t RDPLevel);
 114:Drivers/STM32L4xx_HAL_Driver/Src/stm32l4xx_hal_flash_ex.c **** static HAL_StatusTypeDef FLASH_OB_UserConfig(uint32_t UserType, uint32_t UserConfig);
 115:Drivers/STM32L4xx_HAL_Driver/Src/stm32l4xx_hal_flash_ex.c **** static HAL_StatusTypeDef FLASH_OB_PCROPConfig(uint32_t PCROPConfig, uint32_t PCROPStartAddr, uint32
 116:Drivers/STM32L4xx_HAL_Driver/Src/stm32l4xx_hal_flash_ex.c **** static void              FLASH_OB_GetWRP(uint32_t WRPArea, uint32_t * WRPStartOffset, uint32_t * WR
 117:Drivers/STM32L4xx_HAL_Driver/Src/stm32l4xx_hal_flash_ex.c **** static uint32_t          FLASH_OB_GetRDP(void);
 118:Drivers/STM32L4xx_HAL_Driver/Src/stm32l4xx_hal_flash_ex.c **** static uint32_t          FLASH_OB_GetUser(void);
 119:Drivers/STM32L4xx_HAL_Driver/Src/stm32l4xx_hal_flash_ex.c **** static void              FLASH_OB_GetPCROP(uint32_t * PCROPConfig, uint32_t * PCROPStartAddr, uint3
 120:Drivers/STM32L4xx_HAL_Driver/Src/stm32l4xx_hal_flash_ex.c **** /**
 121:Drivers/STM32L4xx_HAL_Driver/Src/stm32l4xx_hal_flash_ex.c ****   * @}
 122:Drivers/STM32L4xx_HAL_Driver/Src/stm32l4xx_hal_flash_ex.c ****   */
 123:Drivers/STM32L4xx_HAL_Driver/Src/stm32l4xx_hal_flash_ex.c **** 
 124:Drivers/STM32L4xx_HAL_Driver/Src/stm32l4xx_hal_flash_ex.c **** /* Exported functions -------------------------------------------------------*/
 125:Drivers/STM32L4xx_HAL_Driver/Src/stm32l4xx_hal_flash_ex.c **** /** @defgroup FLASHEx_Exported_Functions FLASHEx Exported Functions
 126:Drivers/STM32L4xx_HAL_Driver/Src/stm32l4xx_hal_flash_ex.c ****   * @{
 127:Drivers/STM32L4xx_HAL_Driver/Src/stm32l4xx_hal_flash_ex.c ****   */ 
 128:Drivers/STM32L4xx_HAL_Driver/Src/stm32l4xx_hal_flash_ex.c **** 
 129:Drivers/STM32L4xx_HAL_Driver/Src/stm32l4xx_hal_flash_ex.c **** /** @defgroup FLASHEx_Exported_Functions_Group1 Extended IO operation functions
 130:Drivers/STM32L4xx_HAL_Driver/Src/stm32l4xx_hal_flash_ex.c ****  *  @brief   Extended IO operation functions 
 131:Drivers/STM32L4xx_HAL_Driver/Src/stm32l4xx_hal_flash_ex.c ****  *
 132:Drivers/STM32L4xx_HAL_Driver/Src/stm32l4xx_hal_flash_ex.c **** @verbatim   
 133:Drivers/STM32L4xx_HAL_Driver/Src/stm32l4xx_hal_flash_ex.c ****  ===============================================================================
 134:Drivers/STM32L4xx_HAL_Driver/Src/stm32l4xx_hal_flash_ex.c ****                 ##### Extended programming operation functions #####
 135:Drivers/STM32L4xx_HAL_Driver/Src/stm32l4xx_hal_flash_ex.c ****  ===============================================================================
 136:Drivers/STM32L4xx_HAL_Driver/Src/stm32l4xx_hal_flash_ex.c ****     [..]
 137:Drivers/STM32L4xx_HAL_Driver/Src/stm32l4xx_hal_flash_ex.c ****     This subsection provides a set of functions allowing to manage the Extended FLASH 
 138:Drivers/STM32L4xx_HAL_Driver/Src/stm32l4xx_hal_flash_ex.c ****     programming operations Operations.
 139:Drivers/STM32L4xx_HAL_Driver/Src/stm32l4xx_hal_flash_ex.c ****  
 140:Drivers/STM32L4xx_HAL_Driver/Src/stm32l4xx_hal_flash_ex.c **** @endverbatim
 141:Drivers/STM32L4xx_HAL_Driver/Src/stm32l4xx_hal_flash_ex.c ****   * @{
 142:Drivers/STM32L4xx_HAL_Driver/Src/stm32l4xx_hal_flash_ex.c ****   */
 143:Drivers/STM32L4xx_HAL_Driver/Src/stm32l4xx_hal_flash_ex.c **** /**
 144:Drivers/STM32L4xx_HAL_Driver/Src/stm32l4xx_hal_flash_ex.c ****   * @brief  Perform a mass erase or erase the specified FLASH memory pages.
ARM GAS  /tmp/ccWeCwHW.s 			page 4


 145:Drivers/STM32L4xx_HAL_Driver/Src/stm32l4xx_hal_flash_ex.c ****   * @param[in]  pEraseInit: pointer to an FLASH_EraseInitTypeDef structure that
 146:Drivers/STM32L4xx_HAL_Driver/Src/stm32l4xx_hal_flash_ex.c ****   *         contains the configuration information for the erasing.
 147:Drivers/STM32L4xx_HAL_Driver/Src/stm32l4xx_hal_flash_ex.c ****   * 
 148:Drivers/STM32L4xx_HAL_Driver/Src/stm32l4xx_hal_flash_ex.c ****   * @param[out]  PageError  : pointer to variable that contains the configuration 
 149:Drivers/STM32L4xx_HAL_Driver/Src/stm32l4xx_hal_flash_ex.c ****   *         information on faulty page in case of error (0xFFFFFFFF means that all 
 150:Drivers/STM32L4xx_HAL_Driver/Src/stm32l4xx_hal_flash_ex.c ****   *         the pages have been correctly erased)
 151:Drivers/STM32L4xx_HAL_Driver/Src/stm32l4xx_hal_flash_ex.c ****   * 
 152:Drivers/STM32L4xx_HAL_Driver/Src/stm32l4xx_hal_flash_ex.c ****   * @retval HAL Status
 153:Drivers/STM32L4xx_HAL_Driver/Src/stm32l4xx_hal_flash_ex.c ****   */
 154:Drivers/STM32L4xx_HAL_Driver/Src/stm32l4xx_hal_flash_ex.c **** HAL_StatusTypeDef HAL_FLASHEx_Erase(FLASH_EraseInitTypeDef *pEraseInit, uint32_t *PageError)
 155:Drivers/STM32L4xx_HAL_Driver/Src/stm32l4xx_hal_flash_ex.c **** {
 156:Drivers/STM32L4xx_HAL_Driver/Src/stm32l4xx_hal_flash_ex.c ****   HAL_StatusTypeDef status;
 157:Drivers/STM32L4xx_HAL_Driver/Src/stm32l4xx_hal_flash_ex.c ****   uint32_t page_index;
 158:Drivers/STM32L4xx_HAL_Driver/Src/stm32l4xx_hal_flash_ex.c **** 
 159:Drivers/STM32L4xx_HAL_Driver/Src/stm32l4xx_hal_flash_ex.c ****   /* Process Locked */
 160:Drivers/STM32L4xx_HAL_Driver/Src/stm32l4xx_hal_flash_ex.c ****   __HAL_LOCK(&pFlash);
 161:Drivers/STM32L4xx_HAL_Driver/Src/stm32l4xx_hal_flash_ex.c **** 
 162:Drivers/STM32L4xx_HAL_Driver/Src/stm32l4xx_hal_flash_ex.c ****   /* Check the parameters */
 163:Drivers/STM32L4xx_HAL_Driver/Src/stm32l4xx_hal_flash_ex.c ****   assert_param(IS_FLASH_TYPEERASE(pEraseInit->TypeErase));
 164:Drivers/STM32L4xx_HAL_Driver/Src/stm32l4xx_hal_flash_ex.c **** 
 165:Drivers/STM32L4xx_HAL_Driver/Src/stm32l4xx_hal_flash_ex.c ****   /* Wait for last operation to be completed */
 166:Drivers/STM32L4xx_HAL_Driver/Src/stm32l4xx_hal_flash_ex.c ****   status = FLASH_WaitForLastOperation((uint32_t)FLASH_TIMEOUT_VALUE);
 167:Drivers/STM32L4xx_HAL_Driver/Src/stm32l4xx_hal_flash_ex.c **** 
 168:Drivers/STM32L4xx_HAL_Driver/Src/stm32l4xx_hal_flash_ex.c ****   if (status == HAL_OK)
 169:Drivers/STM32L4xx_HAL_Driver/Src/stm32l4xx_hal_flash_ex.c ****   {
 170:Drivers/STM32L4xx_HAL_Driver/Src/stm32l4xx_hal_flash_ex.c ****     pFlash.ErrorCode = HAL_FLASH_ERROR_NONE;
 171:Drivers/STM32L4xx_HAL_Driver/Src/stm32l4xx_hal_flash_ex.c **** 
 172:Drivers/STM32L4xx_HAL_Driver/Src/stm32l4xx_hal_flash_ex.c ****     /* Deactivate the cache if they are activated to avoid data misbehavior */
 173:Drivers/STM32L4xx_HAL_Driver/Src/stm32l4xx_hal_flash_ex.c ****     if(READ_BIT(FLASH->ACR, FLASH_ACR_ICEN) != 0U)
 174:Drivers/STM32L4xx_HAL_Driver/Src/stm32l4xx_hal_flash_ex.c ****     {
 175:Drivers/STM32L4xx_HAL_Driver/Src/stm32l4xx_hal_flash_ex.c ****       /* Disable instruction cache  */
 176:Drivers/STM32L4xx_HAL_Driver/Src/stm32l4xx_hal_flash_ex.c ****       __HAL_FLASH_INSTRUCTION_CACHE_DISABLE();
 177:Drivers/STM32L4xx_HAL_Driver/Src/stm32l4xx_hal_flash_ex.c **** 
 178:Drivers/STM32L4xx_HAL_Driver/Src/stm32l4xx_hal_flash_ex.c ****       if(READ_BIT(FLASH->ACR, FLASH_ACR_DCEN) != 0U)
 179:Drivers/STM32L4xx_HAL_Driver/Src/stm32l4xx_hal_flash_ex.c ****       {
 180:Drivers/STM32L4xx_HAL_Driver/Src/stm32l4xx_hal_flash_ex.c ****         /* Disable data cache  */
 181:Drivers/STM32L4xx_HAL_Driver/Src/stm32l4xx_hal_flash_ex.c ****         __HAL_FLASH_DATA_CACHE_DISABLE();
 182:Drivers/STM32L4xx_HAL_Driver/Src/stm32l4xx_hal_flash_ex.c ****         pFlash.CacheToReactivate = FLASH_CACHE_ICACHE_DCACHE_ENABLED;
 183:Drivers/STM32L4xx_HAL_Driver/Src/stm32l4xx_hal_flash_ex.c ****       }
 184:Drivers/STM32L4xx_HAL_Driver/Src/stm32l4xx_hal_flash_ex.c ****       else
 185:Drivers/STM32L4xx_HAL_Driver/Src/stm32l4xx_hal_flash_ex.c ****       {
 186:Drivers/STM32L4xx_HAL_Driver/Src/stm32l4xx_hal_flash_ex.c ****         pFlash.CacheToReactivate = FLASH_CACHE_ICACHE_ENABLED;
 187:Drivers/STM32L4xx_HAL_Driver/Src/stm32l4xx_hal_flash_ex.c ****       }
 188:Drivers/STM32L4xx_HAL_Driver/Src/stm32l4xx_hal_flash_ex.c ****     }
 189:Drivers/STM32L4xx_HAL_Driver/Src/stm32l4xx_hal_flash_ex.c ****     else if(READ_BIT(FLASH->ACR, FLASH_ACR_DCEN) != 0U)
 190:Drivers/STM32L4xx_HAL_Driver/Src/stm32l4xx_hal_flash_ex.c ****     {
 191:Drivers/STM32L4xx_HAL_Driver/Src/stm32l4xx_hal_flash_ex.c ****       /* Disable data cache  */
 192:Drivers/STM32L4xx_HAL_Driver/Src/stm32l4xx_hal_flash_ex.c ****       __HAL_FLASH_DATA_CACHE_DISABLE();
 193:Drivers/STM32L4xx_HAL_Driver/Src/stm32l4xx_hal_flash_ex.c ****       pFlash.CacheToReactivate = FLASH_CACHE_DCACHE_ENABLED;
 194:Drivers/STM32L4xx_HAL_Driver/Src/stm32l4xx_hal_flash_ex.c ****     }
 195:Drivers/STM32L4xx_HAL_Driver/Src/stm32l4xx_hal_flash_ex.c ****     else
 196:Drivers/STM32L4xx_HAL_Driver/Src/stm32l4xx_hal_flash_ex.c ****     {
 197:Drivers/STM32L4xx_HAL_Driver/Src/stm32l4xx_hal_flash_ex.c ****       pFlash.CacheToReactivate = FLASH_CACHE_DISABLED;
 198:Drivers/STM32L4xx_HAL_Driver/Src/stm32l4xx_hal_flash_ex.c ****     }
 199:Drivers/STM32L4xx_HAL_Driver/Src/stm32l4xx_hal_flash_ex.c **** 
 200:Drivers/STM32L4xx_HAL_Driver/Src/stm32l4xx_hal_flash_ex.c ****     if (pEraseInit->TypeErase == FLASH_TYPEERASE_MASSERASE)
 201:Drivers/STM32L4xx_HAL_Driver/Src/stm32l4xx_hal_flash_ex.c ****     {
ARM GAS  /tmp/ccWeCwHW.s 			page 5


 202:Drivers/STM32L4xx_HAL_Driver/Src/stm32l4xx_hal_flash_ex.c ****       /* Mass erase to be done */
 203:Drivers/STM32L4xx_HAL_Driver/Src/stm32l4xx_hal_flash_ex.c ****       FLASH_MassErase(pEraseInit->Banks);
 204:Drivers/STM32L4xx_HAL_Driver/Src/stm32l4xx_hal_flash_ex.c **** 
 205:Drivers/STM32L4xx_HAL_Driver/Src/stm32l4xx_hal_flash_ex.c ****       /* Wait for last operation to be completed */
 206:Drivers/STM32L4xx_HAL_Driver/Src/stm32l4xx_hal_flash_ex.c ****       status = FLASH_WaitForLastOperation((uint32_t)FLASH_TIMEOUT_VALUE);
 207:Drivers/STM32L4xx_HAL_Driver/Src/stm32l4xx_hal_flash_ex.c **** 
 208:Drivers/STM32L4xx_HAL_Driver/Src/stm32l4xx_hal_flash_ex.c **** #if defined (STM32L471xx) || defined (STM32L475xx) || defined (STM32L476xx) || defined (STM32L485xx
 209:Drivers/STM32L4xx_HAL_Driver/Src/stm32l4xx_hal_flash_ex.c ****     defined (STM32L496xx) || defined (STM32L4A6xx) || \
 210:Drivers/STM32L4xx_HAL_Driver/Src/stm32l4xx_hal_flash_ex.c ****     defined (STM32L4R5xx) || defined (STM32L4R7xx) || defined (STM32L4R9xx) || defined (STM32L4S5xx
 211:Drivers/STM32L4xx_HAL_Driver/Src/stm32l4xx_hal_flash_ex.c ****       /* If the erase operation is completed, disable the MER1 and MER2 Bits */
 212:Drivers/STM32L4xx_HAL_Driver/Src/stm32l4xx_hal_flash_ex.c ****       CLEAR_BIT(FLASH->CR, (FLASH_CR_MER1 | FLASH_CR_MER2));
 213:Drivers/STM32L4xx_HAL_Driver/Src/stm32l4xx_hal_flash_ex.c **** #else
 214:Drivers/STM32L4xx_HAL_Driver/Src/stm32l4xx_hal_flash_ex.c ****       /* If the erase operation is completed, disable the MER1 Bit */
 215:Drivers/STM32L4xx_HAL_Driver/Src/stm32l4xx_hal_flash_ex.c ****       CLEAR_BIT(FLASH->CR, (FLASH_CR_MER1));
 216:Drivers/STM32L4xx_HAL_Driver/Src/stm32l4xx_hal_flash_ex.c **** #endif      
 217:Drivers/STM32L4xx_HAL_Driver/Src/stm32l4xx_hal_flash_ex.c ****     }
 218:Drivers/STM32L4xx_HAL_Driver/Src/stm32l4xx_hal_flash_ex.c ****     else
 219:Drivers/STM32L4xx_HAL_Driver/Src/stm32l4xx_hal_flash_ex.c ****     {
 220:Drivers/STM32L4xx_HAL_Driver/Src/stm32l4xx_hal_flash_ex.c ****       /*Initialization of PageError variable*/
 221:Drivers/STM32L4xx_HAL_Driver/Src/stm32l4xx_hal_flash_ex.c ****       *PageError = 0xFFFFFFFFU;
 222:Drivers/STM32L4xx_HAL_Driver/Src/stm32l4xx_hal_flash_ex.c ****       
 223:Drivers/STM32L4xx_HAL_Driver/Src/stm32l4xx_hal_flash_ex.c ****       for(page_index = pEraseInit->Page; page_index < (pEraseInit->Page + pEraseInit->NbPages); pag
 224:Drivers/STM32L4xx_HAL_Driver/Src/stm32l4xx_hal_flash_ex.c ****       {
 225:Drivers/STM32L4xx_HAL_Driver/Src/stm32l4xx_hal_flash_ex.c ****         FLASH_PageErase(page_index, pEraseInit->Banks);
 226:Drivers/STM32L4xx_HAL_Driver/Src/stm32l4xx_hal_flash_ex.c **** 
 227:Drivers/STM32L4xx_HAL_Driver/Src/stm32l4xx_hal_flash_ex.c ****         /* Wait for last operation to be completed */
 228:Drivers/STM32L4xx_HAL_Driver/Src/stm32l4xx_hal_flash_ex.c ****         status = FLASH_WaitForLastOperation((uint32_t)FLASH_TIMEOUT_VALUE);
 229:Drivers/STM32L4xx_HAL_Driver/Src/stm32l4xx_hal_flash_ex.c **** 
 230:Drivers/STM32L4xx_HAL_Driver/Src/stm32l4xx_hal_flash_ex.c ****         /* If the erase operation is completed, disable the PER Bit */
 231:Drivers/STM32L4xx_HAL_Driver/Src/stm32l4xx_hal_flash_ex.c ****         CLEAR_BIT(FLASH->CR, (FLASH_CR_PER | FLASH_CR_PNB));
 232:Drivers/STM32L4xx_HAL_Driver/Src/stm32l4xx_hal_flash_ex.c **** 
 233:Drivers/STM32L4xx_HAL_Driver/Src/stm32l4xx_hal_flash_ex.c ****         if (status != HAL_OK)
 234:Drivers/STM32L4xx_HAL_Driver/Src/stm32l4xx_hal_flash_ex.c ****         {
 235:Drivers/STM32L4xx_HAL_Driver/Src/stm32l4xx_hal_flash_ex.c ****           /* In case of error, stop erase procedure and return the faulty address */
 236:Drivers/STM32L4xx_HAL_Driver/Src/stm32l4xx_hal_flash_ex.c ****           *PageError = page_index;
 237:Drivers/STM32L4xx_HAL_Driver/Src/stm32l4xx_hal_flash_ex.c ****           break;
 238:Drivers/STM32L4xx_HAL_Driver/Src/stm32l4xx_hal_flash_ex.c ****         }
 239:Drivers/STM32L4xx_HAL_Driver/Src/stm32l4xx_hal_flash_ex.c ****       }
 240:Drivers/STM32L4xx_HAL_Driver/Src/stm32l4xx_hal_flash_ex.c ****     }
 241:Drivers/STM32L4xx_HAL_Driver/Src/stm32l4xx_hal_flash_ex.c ****     
 242:Drivers/STM32L4xx_HAL_Driver/Src/stm32l4xx_hal_flash_ex.c ****     /* Flush the caches to be sure of the data consistency */
 243:Drivers/STM32L4xx_HAL_Driver/Src/stm32l4xx_hal_flash_ex.c ****     FLASH_FlushCaches();
 244:Drivers/STM32L4xx_HAL_Driver/Src/stm32l4xx_hal_flash_ex.c ****   }
 245:Drivers/STM32L4xx_HAL_Driver/Src/stm32l4xx_hal_flash_ex.c **** 
 246:Drivers/STM32L4xx_HAL_Driver/Src/stm32l4xx_hal_flash_ex.c ****   /* Process Unlocked */
 247:Drivers/STM32L4xx_HAL_Driver/Src/stm32l4xx_hal_flash_ex.c ****   __HAL_UNLOCK(&pFlash);
 248:Drivers/STM32L4xx_HAL_Driver/Src/stm32l4xx_hal_flash_ex.c **** 
 249:Drivers/STM32L4xx_HAL_Driver/Src/stm32l4xx_hal_flash_ex.c ****   return status;
 250:Drivers/STM32L4xx_HAL_Driver/Src/stm32l4xx_hal_flash_ex.c **** }
 251:Drivers/STM32L4xx_HAL_Driver/Src/stm32l4xx_hal_flash_ex.c **** 
 252:Drivers/STM32L4xx_HAL_Driver/Src/stm32l4xx_hal_flash_ex.c **** /**
 253:Drivers/STM32L4xx_HAL_Driver/Src/stm32l4xx_hal_flash_ex.c ****   * @brief  Perform a mass erase or erase the specified FLASH memory pages with interrupt enabled.
 254:Drivers/STM32L4xx_HAL_Driver/Src/stm32l4xx_hal_flash_ex.c ****   * @param  pEraseInit: pointer to an FLASH_EraseInitTypeDef structure that
 255:Drivers/STM32L4xx_HAL_Driver/Src/stm32l4xx_hal_flash_ex.c ****   *         contains the configuration information for the erasing.
 256:Drivers/STM32L4xx_HAL_Driver/Src/stm32l4xx_hal_flash_ex.c ****   * 
 257:Drivers/STM32L4xx_HAL_Driver/Src/stm32l4xx_hal_flash_ex.c ****   * @retval HAL Status
 258:Drivers/STM32L4xx_HAL_Driver/Src/stm32l4xx_hal_flash_ex.c ****   */
ARM GAS  /tmp/ccWeCwHW.s 			page 6


 259:Drivers/STM32L4xx_HAL_Driver/Src/stm32l4xx_hal_flash_ex.c **** HAL_StatusTypeDef HAL_FLASHEx_Erase_IT(FLASH_EraseInitTypeDef *pEraseInit)
 260:Drivers/STM32L4xx_HAL_Driver/Src/stm32l4xx_hal_flash_ex.c **** {
 261:Drivers/STM32L4xx_HAL_Driver/Src/stm32l4xx_hal_flash_ex.c ****   HAL_StatusTypeDef status = HAL_OK;
 262:Drivers/STM32L4xx_HAL_Driver/Src/stm32l4xx_hal_flash_ex.c **** 
 263:Drivers/STM32L4xx_HAL_Driver/Src/stm32l4xx_hal_flash_ex.c ****   /* Process Locked */
 264:Drivers/STM32L4xx_HAL_Driver/Src/stm32l4xx_hal_flash_ex.c ****   __HAL_LOCK(&pFlash);
 265:Drivers/STM32L4xx_HAL_Driver/Src/stm32l4xx_hal_flash_ex.c **** 
 266:Drivers/STM32L4xx_HAL_Driver/Src/stm32l4xx_hal_flash_ex.c ****   /* Check the parameters */
 267:Drivers/STM32L4xx_HAL_Driver/Src/stm32l4xx_hal_flash_ex.c ****   assert_param(IS_FLASH_TYPEERASE(pEraseInit->TypeErase));
 268:Drivers/STM32L4xx_HAL_Driver/Src/stm32l4xx_hal_flash_ex.c **** 
 269:Drivers/STM32L4xx_HAL_Driver/Src/stm32l4xx_hal_flash_ex.c ****   pFlash.ErrorCode = HAL_FLASH_ERROR_NONE;
 270:Drivers/STM32L4xx_HAL_Driver/Src/stm32l4xx_hal_flash_ex.c **** 
 271:Drivers/STM32L4xx_HAL_Driver/Src/stm32l4xx_hal_flash_ex.c ****   /* Deactivate the cache if they are activated to avoid data misbehavior */
 272:Drivers/STM32L4xx_HAL_Driver/Src/stm32l4xx_hal_flash_ex.c ****   if(READ_BIT(FLASH->ACR, FLASH_ACR_ICEN) != 0U)
 273:Drivers/STM32L4xx_HAL_Driver/Src/stm32l4xx_hal_flash_ex.c ****   {
 274:Drivers/STM32L4xx_HAL_Driver/Src/stm32l4xx_hal_flash_ex.c ****     /* Disable instruction cache  */
 275:Drivers/STM32L4xx_HAL_Driver/Src/stm32l4xx_hal_flash_ex.c ****     __HAL_FLASH_INSTRUCTION_CACHE_DISABLE();
 276:Drivers/STM32L4xx_HAL_Driver/Src/stm32l4xx_hal_flash_ex.c ****     
 277:Drivers/STM32L4xx_HAL_Driver/Src/stm32l4xx_hal_flash_ex.c ****     if(READ_BIT(FLASH->ACR, FLASH_ACR_DCEN) != 0U)
 278:Drivers/STM32L4xx_HAL_Driver/Src/stm32l4xx_hal_flash_ex.c ****     {
 279:Drivers/STM32L4xx_HAL_Driver/Src/stm32l4xx_hal_flash_ex.c ****       /* Disable data cache  */
 280:Drivers/STM32L4xx_HAL_Driver/Src/stm32l4xx_hal_flash_ex.c ****       __HAL_FLASH_DATA_CACHE_DISABLE();
 281:Drivers/STM32L4xx_HAL_Driver/Src/stm32l4xx_hal_flash_ex.c ****       pFlash.CacheToReactivate = FLASH_CACHE_ICACHE_DCACHE_ENABLED;
 282:Drivers/STM32L4xx_HAL_Driver/Src/stm32l4xx_hal_flash_ex.c ****     }
 283:Drivers/STM32L4xx_HAL_Driver/Src/stm32l4xx_hal_flash_ex.c ****     else
 284:Drivers/STM32L4xx_HAL_Driver/Src/stm32l4xx_hal_flash_ex.c ****     {
 285:Drivers/STM32L4xx_HAL_Driver/Src/stm32l4xx_hal_flash_ex.c ****       pFlash.CacheToReactivate = FLASH_CACHE_ICACHE_ENABLED;
 286:Drivers/STM32L4xx_HAL_Driver/Src/stm32l4xx_hal_flash_ex.c ****     }
 287:Drivers/STM32L4xx_HAL_Driver/Src/stm32l4xx_hal_flash_ex.c ****   }
 288:Drivers/STM32L4xx_HAL_Driver/Src/stm32l4xx_hal_flash_ex.c ****   else if(READ_BIT(FLASH->ACR, FLASH_ACR_DCEN) != 0U)
 289:Drivers/STM32L4xx_HAL_Driver/Src/stm32l4xx_hal_flash_ex.c ****   {
 290:Drivers/STM32L4xx_HAL_Driver/Src/stm32l4xx_hal_flash_ex.c ****     /* Disable data cache  */
 291:Drivers/STM32L4xx_HAL_Driver/Src/stm32l4xx_hal_flash_ex.c ****     __HAL_FLASH_DATA_CACHE_DISABLE();
 292:Drivers/STM32L4xx_HAL_Driver/Src/stm32l4xx_hal_flash_ex.c ****     pFlash.CacheToReactivate = FLASH_CACHE_DCACHE_ENABLED;
 293:Drivers/STM32L4xx_HAL_Driver/Src/stm32l4xx_hal_flash_ex.c ****   }
 294:Drivers/STM32L4xx_HAL_Driver/Src/stm32l4xx_hal_flash_ex.c ****   else
 295:Drivers/STM32L4xx_HAL_Driver/Src/stm32l4xx_hal_flash_ex.c ****   {
 296:Drivers/STM32L4xx_HAL_Driver/Src/stm32l4xx_hal_flash_ex.c ****     pFlash.CacheToReactivate = FLASH_CACHE_DISABLED;
 297:Drivers/STM32L4xx_HAL_Driver/Src/stm32l4xx_hal_flash_ex.c ****   }
 298:Drivers/STM32L4xx_HAL_Driver/Src/stm32l4xx_hal_flash_ex.c **** 
 299:Drivers/STM32L4xx_HAL_Driver/Src/stm32l4xx_hal_flash_ex.c ****   /* Enable End of Operation and Error interrupts */
 300:Drivers/STM32L4xx_HAL_Driver/Src/stm32l4xx_hal_flash_ex.c ****   __HAL_FLASH_ENABLE_IT(FLASH_IT_EOP | FLASH_IT_OPERR);
 301:Drivers/STM32L4xx_HAL_Driver/Src/stm32l4xx_hal_flash_ex.c **** 
 302:Drivers/STM32L4xx_HAL_Driver/Src/stm32l4xx_hal_flash_ex.c ****   pFlash.Bank = pEraseInit->Banks;
 303:Drivers/STM32L4xx_HAL_Driver/Src/stm32l4xx_hal_flash_ex.c **** 
 304:Drivers/STM32L4xx_HAL_Driver/Src/stm32l4xx_hal_flash_ex.c ****   if (pEraseInit->TypeErase == FLASH_TYPEERASE_MASSERASE)
 305:Drivers/STM32L4xx_HAL_Driver/Src/stm32l4xx_hal_flash_ex.c ****   {
 306:Drivers/STM32L4xx_HAL_Driver/Src/stm32l4xx_hal_flash_ex.c ****     /* Mass erase to be done */
 307:Drivers/STM32L4xx_HAL_Driver/Src/stm32l4xx_hal_flash_ex.c ****     pFlash.ProcedureOnGoing = FLASH_PROC_MASS_ERASE;
 308:Drivers/STM32L4xx_HAL_Driver/Src/stm32l4xx_hal_flash_ex.c ****     FLASH_MassErase(pEraseInit->Banks);
 309:Drivers/STM32L4xx_HAL_Driver/Src/stm32l4xx_hal_flash_ex.c ****   }
 310:Drivers/STM32L4xx_HAL_Driver/Src/stm32l4xx_hal_flash_ex.c ****   else
 311:Drivers/STM32L4xx_HAL_Driver/Src/stm32l4xx_hal_flash_ex.c ****   {
 312:Drivers/STM32L4xx_HAL_Driver/Src/stm32l4xx_hal_flash_ex.c ****     /* Erase by page to be done */
 313:Drivers/STM32L4xx_HAL_Driver/Src/stm32l4xx_hal_flash_ex.c ****     pFlash.ProcedureOnGoing = FLASH_PROC_PAGE_ERASE;
 314:Drivers/STM32L4xx_HAL_Driver/Src/stm32l4xx_hal_flash_ex.c ****     pFlash.NbPagesToErase = pEraseInit->NbPages;
 315:Drivers/STM32L4xx_HAL_Driver/Src/stm32l4xx_hal_flash_ex.c ****     pFlash.Page = pEraseInit->Page;
ARM GAS  /tmp/ccWeCwHW.s 			page 7


 316:Drivers/STM32L4xx_HAL_Driver/Src/stm32l4xx_hal_flash_ex.c **** 
 317:Drivers/STM32L4xx_HAL_Driver/Src/stm32l4xx_hal_flash_ex.c ****     /*Erase 1st page and wait for IT */
 318:Drivers/STM32L4xx_HAL_Driver/Src/stm32l4xx_hal_flash_ex.c ****     FLASH_PageErase(pEraseInit->Page, pEraseInit->Banks);
 319:Drivers/STM32L4xx_HAL_Driver/Src/stm32l4xx_hal_flash_ex.c ****   }
 320:Drivers/STM32L4xx_HAL_Driver/Src/stm32l4xx_hal_flash_ex.c ****   
 321:Drivers/STM32L4xx_HAL_Driver/Src/stm32l4xx_hal_flash_ex.c ****   return status;
 322:Drivers/STM32L4xx_HAL_Driver/Src/stm32l4xx_hal_flash_ex.c **** }
 323:Drivers/STM32L4xx_HAL_Driver/Src/stm32l4xx_hal_flash_ex.c **** 
 324:Drivers/STM32L4xx_HAL_Driver/Src/stm32l4xx_hal_flash_ex.c **** /**
 325:Drivers/STM32L4xx_HAL_Driver/Src/stm32l4xx_hal_flash_ex.c ****   * @brief  Program Option bytes.
 326:Drivers/STM32L4xx_HAL_Driver/Src/stm32l4xx_hal_flash_ex.c ****   * @param  pOBInit: pointer to an FLASH_OBInitStruct structure that
 327:Drivers/STM32L4xx_HAL_Driver/Src/stm32l4xx_hal_flash_ex.c ****   *         contains the configuration information for the programming.
 328:Drivers/STM32L4xx_HAL_Driver/Src/stm32l4xx_hal_flash_ex.c ****   * 
 329:Drivers/STM32L4xx_HAL_Driver/Src/stm32l4xx_hal_flash_ex.c ****   * @retval HAL Status
 330:Drivers/STM32L4xx_HAL_Driver/Src/stm32l4xx_hal_flash_ex.c ****   */
 331:Drivers/STM32L4xx_HAL_Driver/Src/stm32l4xx_hal_flash_ex.c **** HAL_StatusTypeDef HAL_FLASHEx_OBProgram(FLASH_OBProgramInitTypeDef *pOBInit)
 332:Drivers/STM32L4xx_HAL_Driver/Src/stm32l4xx_hal_flash_ex.c **** {
 333:Drivers/STM32L4xx_HAL_Driver/Src/stm32l4xx_hal_flash_ex.c ****   HAL_StatusTypeDef status = HAL_OK;
 334:Drivers/STM32L4xx_HAL_Driver/Src/stm32l4xx_hal_flash_ex.c ****   
 335:Drivers/STM32L4xx_HAL_Driver/Src/stm32l4xx_hal_flash_ex.c ****   /* Process Locked */
 336:Drivers/STM32L4xx_HAL_Driver/Src/stm32l4xx_hal_flash_ex.c ****   __HAL_LOCK(&pFlash);
 337:Drivers/STM32L4xx_HAL_Driver/Src/stm32l4xx_hal_flash_ex.c **** 
 338:Drivers/STM32L4xx_HAL_Driver/Src/stm32l4xx_hal_flash_ex.c ****   /* Check the parameters */
 339:Drivers/STM32L4xx_HAL_Driver/Src/stm32l4xx_hal_flash_ex.c ****   assert_param(IS_OPTIONBYTE(pOBInit->OptionType));
 340:Drivers/STM32L4xx_HAL_Driver/Src/stm32l4xx_hal_flash_ex.c ****   
 341:Drivers/STM32L4xx_HAL_Driver/Src/stm32l4xx_hal_flash_ex.c ****   pFlash.ErrorCode = HAL_FLASH_ERROR_NONE;
 342:Drivers/STM32L4xx_HAL_Driver/Src/stm32l4xx_hal_flash_ex.c **** 
 343:Drivers/STM32L4xx_HAL_Driver/Src/stm32l4xx_hal_flash_ex.c ****   /* Write protection configuration */
 344:Drivers/STM32L4xx_HAL_Driver/Src/stm32l4xx_hal_flash_ex.c ****   if((pOBInit->OptionType & OPTIONBYTE_WRP) != 0U)
 345:Drivers/STM32L4xx_HAL_Driver/Src/stm32l4xx_hal_flash_ex.c ****   {
 346:Drivers/STM32L4xx_HAL_Driver/Src/stm32l4xx_hal_flash_ex.c ****     /* Configure of Write protection on the selected area */
 347:Drivers/STM32L4xx_HAL_Driver/Src/stm32l4xx_hal_flash_ex.c ****     if(FLASH_OB_WRPConfig(pOBInit->WRPArea, pOBInit->WRPStartOffset, pOBInit->WRPEndOffset) != HAL_
 348:Drivers/STM32L4xx_HAL_Driver/Src/stm32l4xx_hal_flash_ex.c ****     {
 349:Drivers/STM32L4xx_HAL_Driver/Src/stm32l4xx_hal_flash_ex.c ****       status = HAL_ERROR;
 350:Drivers/STM32L4xx_HAL_Driver/Src/stm32l4xx_hal_flash_ex.c ****     }
 351:Drivers/STM32L4xx_HAL_Driver/Src/stm32l4xx_hal_flash_ex.c ****     
 352:Drivers/STM32L4xx_HAL_Driver/Src/stm32l4xx_hal_flash_ex.c ****   }
 353:Drivers/STM32L4xx_HAL_Driver/Src/stm32l4xx_hal_flash_ex.c ****   
 354:Drivers/STM32L4xx_HAL_Driver/Src/stm32l4xx_hal_flash_ex.c ****   /* Read protection configuration */
 355:Drivers/STM32L4xx_HAL_Driver/Src/stm32l4xx_hal_flash_ex.c ****   if((pOBInit->OptionType & OPTIONBYTE_RDP) != 0U)
 356:Drivers/STM32L4xx_HAL_Driver/Src/stm32l4xx_hal_flash_ex.c ****   {
 357:Drivers/STM32L4xx_HAL_Driver/Src/stm32l4xx_hal_flash_ex.c ****     /* Configure the Read protection level */
 358:Drivers/STM32L4xx_HAL_Driver/Src/stm32l4xx_hal_flash_ex.c ****     if(FLASH_OB_RDPConfig(pOBInit->RDPLevel) != HAL_OK)
 359:Drivers/STM32L4xx_HAL_Driver/Src/stm32l4xx_hal_flash_ex.c ****     {
 360:Drivers/STM32L4xx_HAL_Driver/Src/stm32l4xx_hal_flash_ex.c ****       status = HAL_ERROR;
 361:Drivers/STM32L4xx_HAL_Driver/Src/stm32l4xx_hal_flash_ex.c ****     }
 362:Drivers/STM32L4xx_HAL_Driver/Src/stm32l4xx_hal_flash_ex.c ****   }
 363:Drivers/STM32L4xx_HAL_Driver/Src/stm32l4xx_hal_flash_ex.c ****   
 364:Drivers/STM32L4xx_HAL_Driver/Src/stm32l4xx_hal_flash_ex.c ****   /* User Configuration */
 365:Drivers/STM32L4xx_HAL_Driver/Src/stm32l4xx_hal_flash_ex.c ****   if((pOBInit->OptionType & OPTIONBYTE_USER) != 0U)
 366:Drivers/STM32L4xx_HAL_Driver/Src/stm32l4xx_hal_flash_ex.c ****   {
 367:Drivers/STM32L4xx_HAL_Driver/Src/stm32l4xx_hal_flash_ex.c ****     /* Configure the user option bytes */
 368:Drivers/STM32L4xx_HAL_Driver/Src/stm32l4xx_hal_flash_ex.c ****     if(FLASH_OB_UserConfig(pOBInit->USERType, pOBInit->USERConfig) != HAL_OK)
 369:Drivers/STM32L4xx_HAL_Driver/Src/stm32l4xx_hal_flash_ex.c ****     {
 370:Drivers/STM32L4xx_HAL_Driver/Src/stm32l4xx_hal_flash_ex.c ****       status = HAL_ERROR;
 371:Drivers/STM32L4xx_HAL_Driver/Src/stm32l4xx_hal_flash_ex.c ****     }
 372:Drivers/STM32L4xx_HAL_Driver/Src/stm32l4xx_hal_flash_ex.c ****   }
ARM GAS  /tmp/ccWeCwHW.s 			page 8


 373:Drivers/STM32L4xx_HAL_Driver/Src/stm32l4xx_hal_flash_ex.c ****   
 374:Drivers/STM32L4xx_HAL_Driver/Src/stm32l4xx_hal_flash_ex.c ****   /* PCROP Configuration */
 375:Drivers/STM32L4xx_HAL_Driver/Src/stm32l4xx_hal_flash_ex.c ****   if((pOBInit->OptionType & OPTIONBYTE_PCROP) != 0U)
 376:Drivers/STM32L4xx_HAL_Driver/Src/stm32l4xx_hal_flash_ex.c ****   {
 377:Drivers/STM32L4xx_HAL_Driver/Src/stm32l4xx_hal_flash_ex.c ****     if (pOBInit->PCROPStartAddr != pOBInit->PCROPEndAddr)
 378:Drivers/STM32L4xx_HAL_Driver/Src/stm32l4xx_hal_flash_ex.c ****     {
 379:Drivers/STM32L4xx_HAL_Driver/Src/stm32l4xx_hal_flash_ex.c ****       /* Configure the Proprietary code readout protection */
 380:Drivers/STM32L4xx_HAL_Driver/Src/stm32l4xx_hal_flash_ex.c ****       if(FLASH_OB_PCROPConfig(pOBInit->PCROPConfig, pOBInit->PCROPStartAddr, pOBInit->PCROPEndAddr)
 381:Drivers/STM32L4xx_HAL_Driver/Src/stm32l4xx_hal_flash_ex.c ****       {
 382:Drivers/STM32L4xx_HAL_Driver/Src/stm32l4xx_hal_flash_ex.c ****         status = HAL_ERROR;
 383:Drivers/STM32L4xx_HAL_Driver/Src/stm32l4xx_hal_flash_ex.c ****       }
 384:Drivers/STM32L4xx_HAL_Driver/Src/stm32l4xx_hal_flash_ex.c ****     }
 385:Drivers/STM32L4xx_HAL_Driver/Src/stm32l4xx_hal_flash_ex.c ****   }
 386:Drivers/STM32L4xx_HAL_Driver/Src/stm32l4xx_hal_flash_ex.c **** 
 387:Drivers/STM32L4xx_HAL_Driver/Src/stm32l4xx_hal_flash_ex.c ****   /* Process Unlocked */
 388:Drivers/STM32L4xx_HAL_Driver/Src/stm32l4xx_hal_flash_ex.c ****   __HAL_UNLOCK(&pFlash);
 389:Drivers/STM32L4xx_HAL_Driver/Src/stm32l4xx_hal_flash_ex.c **** 
 390:Drivers/STM32L4xx_HAL_Driver/Src/stm32l4xx_hal_flash_ex.c ****   return status;
 391:Drivers/STM32L4xx_HAL_Driver/Src/stm32l4xx_hal_flash_ex.c **** }
 392:Drivers/STM32L4xx_HAL_Driver/Src/stm32l4xx_hal_flash_ex.c **** 
 393:Drivers/STM32L4xx_HAL_Driver/Src/stm32l4xx_hal_flash_ex.c **** /**
 394:Drivers/STM32L4xx_HAL_Driver/Src/stm32l4xx_hal_flash_ex.c ****   * @brief  Get the Option bytes configuration.
 395:Drivers/STM32L4xx_HAL_Driver/Src/stm32l4xx_hal_flash_ex.c ****   * @param  pOBInit: pointer to an FLASH_OBInitStruct structure that contains the 
 396:Drivers/STM32L4xx_HAL_Driver/Src/stm32l4xx_hal_flash_ex.c ****   *                  configuration information.
 397:Drivers/STM32L4xx_HAL_Driver/Src/stm32l4xx_hal_flash_ex.c ****   * @note   The fields pOBInit->WRPArea and pOBInit->PCROPConfig should indicate 
 398:Drivers/STM32L4xx_HAL_Driver/Src/stm32l4xx_hal_flash_ex.c ****   *         which area is requested for the WRP and PCROP, else no information will be returned
 399:Drivers/STM32L4xx_HAL_Driver/Src/stm32l4xx_hal_flash_ex.c ****   * 
 400:Drivers/STM32L4xx_HAL_Driver/Src/stm32l4xx_hal_flash_ex.c ****   * @retval None
 401:Drivers/STM32L4xx_HAL_Driver/Src/stm32l4xx_hal_flash_ex.c ****   */
 402:Drivers/STM32L4xx_HAL_Driver/Src/stm32l4xx_hal_flash_ex.c **** void HAL_FLASHEx_OBGetConfig(FLASH_OBProgramInitTypeDef *pOBInit)
 403:Drivers/STM32L4xx_HAL_Driver/Src/stm32l4xx_hal_flash_ex.c **** {
 404:Drivers/STM32L4xx_HAL_Driver/Src/stm32l4xx_hal_flash_ex.c ****   pOBInit->OptionType = (OPTIONBYTE_RDP | OPTIONBYTE_USER);
 405:Drivers/STM32L4xx_HAL_Driver/Src/stm32l4xx_hal_flash_ex.c **** 
 406:Drivers/STM32L4xx_HAL_Driver/Src/stm32l4xx_hal_flash_ex.c **** #if defined (STM32L471xx) || defined (STM32L475xx) || defined (STM32L476xx) || defined (STM32L485xx
 407:Drivers/STM32L4xx_HAL_Driver/Src/stm32l4xx_hal_flash_ex.c ****     defined (STM32L496xx) || defined (STM32L4A6xx) || \
 408:Drivers/STM32L4xx_HAL_Driver/Src/stm32l4xx_hal_flash_ex.c ****     defined (STM32L4R5xx) || defined (STM32L4R7xx) || defined (STM32L4R9xx) || defined (STM32L4S5xx
 409:Drivers/STM32L4xx_HAL_Driver/Src/stm32l4xx_hal_flash_ex.c ****   if((pOBInit->WRPArea == OB_WRPAREA_BANK1_AREAA) || (pOBInit->WRPArea == OB_WRPAREA_BANK1_AREAB) |
 410:Drivers/STM32L4xx_HAL_Driver/Src/stm32l4xx_hal_flash_ex.c ****      (pOBInit->WRPArea == OB_WRPAREA_BANK2_AREAA) || (pOBInit->WRPArea == OB_WRPAREA_BANK2_AREAB))
 411:Drivers/STM32L4xx_HAL_Driver/Src/stm32l4xx_hal_flash_ex.c **** #else
 412:Drivers/STM32L4xx_HAL_Driver/Src/stm32l4xx_hal_flash_ex.c ****   if((pOBInit->WRPArea == OB_WRPAREA_BANK1_AREAA) || (pOBInit->WRPArea == OB_WRPAREA_BANK1_AREAB))
 413:Drivers/STM32L4xx_HAL_Driver/Src/stm32l4xx_hal_flash_ex.c **** #endif
 414:Drivers/STM32L4xx_HAL_Driver/Src/stm32l4xx_hal_flash_ex.c ****   {
 415:Drivers/STM32L4xx_HAL_Driver/Src/stm32l4xx_hal_flash_ex.c ****     pOBInit->OptionType |= OPTIONBYTE_WRP;
 416:Drivers/STM32L4xx_HAL_Driver/Src/stm32l4xx_hal_flash_ex.c ****     /* Get write protection on the selected area */
 417:Drivers/STM32L4xx_HAL_Driver/Src/stm32l4xx_hal_flash_ex.c ****     FLASH_OB_GetWRP(pOBInit->WRPArea, &(pOBInit->WRPStartOffset), &(pOBInit->WRPEndOffset));
 418:Drivers/STM32L4xx_HAL_Driver/Src/stm32l4xx_hal_flash_ex.c ****   }
 419:Drivers/STM32L4xx_HAL_Driver/Src/stm32l4xx_hal_flash_ex.c ****   
 420:Drivers/STM32L4xx_HAL_Driver/Src/stm32l4xx_hal_flash_ex.c ****   /* Get Read protection level */
 421:Drivers/STM32L4xx_HAL_Driver/Src/stm32l4xx_hal_flash_ex.c ****   pOBInit->RDPLevel = FLASH_OB_GetRDP();
 422:Drivers/STM32L4xx_HAL_Driver/Src/stm32l4xx_hal_flash_ex.c ****   
 423:Drivers/STM32L4xx_HAL_Driver/Src/stm32l4xx_hal_flash_ex.c ****   /* Get the user option bytes */
 424:Drivers/STM32L4xx_HAL_Driver/Src/stm32l4xx_hal_flash_ex.c ****   pOBInit->USERConfig = FLASH_OB_GetUser();
 425:Drivers/STM32L4xx_HAL_Driver/Src/stm32l4xx_hal_flash_ex.c ****   
 426:Drivers/STM32L4xx_HAL_Driver/Src/stm32l4xx_hal_flash_ex.c **** #if defined (STM32L471xx) || defined (STM32L475xx) || defined (STM32L476xx) || defined (STM32L485xx
 427:Drivers/STM32L4xx_HAL_Driver/Src/stm32l4xx_hal_flash_ex.c ****     defined (STM32L496xx) || defined (STM32L4A6xx) || \
 428:Drivers/STM32L4xx_HAL_Driver/Src/stm32l4xx_hal_flash_ex.c ****     defined (STM32L4R5xx) || defined (STM32L4R7xx) || defined (STM32L4R9xx) || defined (STM32L4S5xx
 429:Drivers/STM32L4xx_HAL_Driver/Src/stm32l4xx_hal_flash_ex.c ****   if((pOBInit->PCROPConfig == FLASH_BANK_1) || (pOBInit->PCROPConfig == FLASH_BANK_2))
ARM GAS  /tmp/ccWeCwHW.s 			page 9


 430:Drivers/STM32L4xx_HAL_Driver/Src/stm32l4xx_hal_flash_ex.c **** #else
 431:Drivers/STM32L4xx_HAL_Driver/Src/stm32l4xx_hal_flash_ex.c ****   if(pOBInit->PCROPConfig == FLASH_BANK_1)
 432:Drivers/STM32L4xx_HAL_Driver/Src/stm32l4xx_hal_flash_ex.c **** #endif    
 433:Drivers/STM32L4xx_HAL_Driver/Src/stm32l4xx_hal_flash_ex.c ****   {
 434:Drivers/STM32L4xx_HAL_Driver/Src/stm32l4xx_hal_flash_ex.c ****     pOBInit->OptionType |= OPTIONBYTE_PCROP;
 435:Drivers/STM32L4xx_HAL_Driver/Src/stm32l4xx_hal_flash_ex.c ****     /* Get the Proprietary code readout protection */
 436:Drivers/STM32L4xx_HAL_Driver/Src/stm32l4xx_hal_flash_ex.c ****     FLASH_OB_GetPCROP(&(pOBInit->PCROPConfig), &(pOBInit->PCROPStartAddr), &(pOBInit->PCROPEndAddr)
 437:Drivers/STM32L4xx_HAL_Driver/Src/stm32l4xx_hal_flash_ex.c ****   }
 438:Drivers/STM32L4xx_HAL_Driver/Src/stm32l4xx_hal_flash_ex.c **** }
 439:Drivers/STM32L4xx_HAL_Driver/Src/stm32l4xx_hal_flash_ex.c **** 
 440:Drivers/STM32L4xx_HAL_Driver/Src/stm32l4xx_hal_flash_ex.c **** /**
 441:Drivers/STM32L4xx_HAL_Driver/Src/stm32l4xx_hal_flash_ex.c ****   * @}
 442:Drivers/STM32L4xx_HAL_Driver/Src/stm32l4xx_hal_flash_ex.c ****   */ 
 443:Drivers/STM32L4xx_HAL_Driver/Src/stm32l4xx_hal_flash_ex.c **** 
 444:Drivers/STM32L4xx_HAL_Driver/Src/stm32l4xx_hal_flash_ex.c **** #if defined (FLASH_CFGR_LVEN)
 445:Drivers/STM32L4xx_HAL_Driver/Src/stm32l4xx_hal_flash_ex.c **** /** @defgroup FLASHEx_Exported_Functions_Group2 Extended specific configuration functions
 446:Drivers/STM32L4xx_HAL_Driver/Src/stm32l4xx_hal_flash_ex.c ****  *  @brief   Extended specific configuration functions
 447:Drivers/STM32L4xx_HAL_Driver/Src/stm32l4xx_hal_flash_ex.c ****  *
 448:Drivers/STM32L4xx_HAL_Driver/Src/stm32l4xx_hal_flash_ex.c **** @verbatim
 449:Drivers/STM32L4xx_HAL_Driver/Src/stm32l4xx_hal_flash_ex.c ****  ===============================================================================
 450:Drivers/STM32L4xx_HAL_Driver/Src/stm32l4xx_hal_flash_ex.c ****                 ##### Extended specific configuration functions #####
 451:Drivers/STM32L4xx_HAL_Driver/Src/stm32l4xx_hal_flash_ex.c ****  ===============================================================================
 452:Drivers/STM32L4xx_HAL_Driver/Src/stm32l4xx_hal_flash_ex.c ****     [..]
 453:Drivers/STM32L4xx_HAL_Driver/Src/stm32l4xx_hal_flash_ex.c ****     This subsection provides a set of functions allowing to manage the Extended FLASH
 454:Drivers/STM32L4xx_HAL_Driver/Src/stm32l4xx_hal_flash_ex.c ****     specific configurations.
 455:Drivers/STM32L4xx_HAL_Driver/Src/stm32l4xx_hal_flash_ex.c **** 
 456:Drivers/STM32L4xx_HAL_Driver/Src/stm32l4xx_hal_flash_ex.c **** @endverbatim
 457:Drivers/STM32L4xx_HAL_Driver/Src/stm32l4xx_hal_flash_ex.c ****   * @{
 458:Drivers/STM32L4xx_HAL_Driver/Src/stm32l4xx_hal_flash_ex.c ****   */
 459:Drivers/STM32L4xx_HAL_Driver/Src/stm32l4xx_hal_flash_ex.c **** 
 460:Drivers/STM32L4xx_HAL_Driver/Src/stm32l4xx_hal_flash_ex.c **** /**
 461:Drivers/STM32L4xx_HAL_Driver/Src/stm32l4xx_hal_flash_ex.c ****   * @brief  Configuration of the LVE pin of the Flash (managed by power controller
 462:Drivers/STM32L4xx_HAL_Driver/Src/stm32l4xx_hal_flash_ex.c ****   *         or forced to low in order to use an external SMPS)
 463:Drivers/STM32L4xx_HAL_Driver/Src/stm32l4xx_hal_flash_ex.c ****   * @param  ConfigLVE: Configuration of the LVE pin,
 464:Drivers/STM32L4xx_HAL_Driver/Src/stm32l4xx_hal_flash_ex.c ****   *              This parameter can be one of the following values:
 465:Drivers/STM32L4xx_HAL_Driver/Src/stm32l4xx_hal_flash_ex.c ****   *                @arg FLASH_LVE_PIN_CTRL: LVE FLASH pin controlled by power controller
 466:Drivers/STM32L4xx_HAL_Driver/Src/stm32l4xx_hal_flash_ex.c ****   *                @arg FLASH_LVE_PIN_FORCED: LVE FLASH pin enforced to low (external SMPS used)
 467:Drivers/STM32L4xx_HAL_Driver/Src/stm32l4xx_hal_flash_ex.c ****   *
 468:Drivers/STM32L4xx_HAL_Driver/Src/stm32l4xx_hal_flash_ex.c ****   * @note   Before enforcing the LVE pin to low, the SOC should be in low voltage
 469:Drivers/STM32L4xx_HAL_Driver/Src/stm32l4xx_hal_flash_ex.c ****   *         range 2 and the voltage VDD12 should be higher than 1.08V and SMPS is ON.
 470:Drivers/STM32L4xx_HAL_Driver/Src/stm32l4xx_hal_flash_ex.c ****   *
 471:Drivers/STM32L4xx_HAL_Driver/Src/stm32l4xx_hal_flash_ex.c ****   * @retval HAL Status
 472:Drivers/STM32L4xx_HAL_Driver/Src/stm32l4xx_hal_flash_ex.c ****   */
 473:Drivers/STM32L4xx_HAL_Driver/Src/stm32l4xx_hal_flash_ex.c **** HAL_StatusTypeDef HAL_FLASHEx_ConfigLVEPin(uint32_t ConfigLVE)
 474:Drivers/STM32L4xx_HAL_Driver/Src/stm32l4xx_hal_flash_ex.c **** {
 475:Drivers/STM32L4xx_HAL_Driver/Src/stm32l4xx_hal_flash_ex.c ****   HAL_StatusTypeDef status;
 476:Drivers/STM32L4xx_HAL_Driver/Src/stm32l4xx_hal_flash_ex.c **** 
 477:Drivers/STM32L4xx_HAL_Driver/Src/stm32l4xx_hal_flash_ex.c ****   /* Process Locked */
 478:Drivers/STM32L4xx_HAL_Driver/Src/stm32l4xx_hal_flash_ex.c ****   __HAL_LOCK(&pFlash);
 479:Drivers/STM32L4xx_HAL_Driver/Src/stm32l4xx_hal_flash_ex.c **** 
 480:Drivers/STM32L4xx_HAL_Driver/Src/stm32l4xx_hal_flash_ex.c ****   /* Check the parameters */
 481:Drivers/STM32L4xx_HAL_Driver/Src/stm32l4xx_hal_flash_ex.c ****   assert_param(IS_FLASH_LVE_PIN(ConfigLVE));
 482:Drivers/STM32L4xx_HAL_Driver/Src/stm32l4xx_hal_flash_ex.c **** 
 483:Drivers/STM32L4xx_HAL_Driver/Src/stm32l4xx_hal_flash_ex.c ****   /* Wait for last operation to be completed */
 484:Drivers/STM32L4xx_HAL_Driver/Src/stm32l4xx_hal_flash_ex.c ****   status = FLASH_WaitForLastOperation((uint32_t)FLASH_TIMEOUT_VALUE);
 485:Drivers/STM32L4xx_HAL_Driver/Src/stm32l4xx_hal_flash_ex.c **** 
 486:Drivers/STM32L4xx_HAL_Driver/Src/stm32l4xx_hal_flash_ex.c ****   if (status == HAL_OK)
ARM GAS  /tmp/ccWeCwHW.s 			page 10


 487:Drivers/STM32L4xx_HAL_Driver/Src/stm32l4xx_hal_flash_ex.c ****   {
 488:Drivers/STM32L4xx_HAL_Driver/Src/stm32l4xx_hal_flash_ex.c ****     /* Check that the voltage scaling is range 2 */
 489:Drivers/STM32L4xx_HAL_Driver/Src/stm32l4xx_hal_flash_ex.c ****     if (HAL_PWREx_GetVoltageRange() == PWR_REGULATOR_VOLTAGE_SCALE2)
 490:Drivers/STM32L4xx_HAL_Driver/Src/stm32l4xx_hal_flash_ex.c ****     {
 491:Drivers/STM32L4xx_HAL_Driver/Src/stm32l4xx_hal_flash_ex.c ****       /* Configure the LVEN bit */
 492:Drivers/STM32L4xx_HAL_Driver/Src/stm32l4xx_hal_flash_ex.c ****       MODIFY_REG(FLASH->CFGR, FLASH_CFGR_LVEN, ConfigLVE);
 493:Drivers/STM32L4xx_HAL_Driver/Src/stm32l4xx_hal_flash_ex.c ****  
 494:Drivers/STM32L4xx_HAL_Driver/Src/stm32l4xx_hal_flash_ex.c ****       /* Check that the bit has been correctly configured */
 495:Drivers/STM32L4xx_HAL_Driver/Src/stm32l4xx_hal_flash_ex.c ****       if (READ_BIT(FLASH->CFGR, FLASH_CFGR_LVEN) != ConfigLVE)
 496:Drivers/STM32L4xx_HAL_Driver/Src/stm32l4xx_hal_flash_ex.c ****       {
 497:Drivers/STM32L4xx_HAL_Driver/Src/stm32l4xx_hal_flash_ex.c ****         status = HAL_ERROR;
 498:Drivers/STM32L4xx_HAL_Driver/Src/stm32l4xx_hal_flash_ex.c ****       }
 499:Drivers/STM32L4xx_HAL_Driver/Src/stm32l4xx_hal_flash_ex.c ****     }
 500:Drivers/STM32L4xx_HAL_Driver/Src/stm32l4xx_hal_flash_ex.c ****     else
 501:Drivers/STM32L4xx_HAL_Driver/Src/stm32l4xx_hal_flash_ex.c ****     {
 502:Drivers/STM32L4xx_HAL_Driver/Src/stm32l4xx_hal_flash_ex.c ****       /* Not allow to force Flash LVE pin if not in voltage range 2 */
 503:Drivers/STM32L4xx_HAL_Driver/Src/stm32l4xx_hal_flash_ex.c ****       status = HAL_ERROR;
 504:Drivers/STM32L4xx_HAL_Driver/Src/stm32l4xx_hal_flash_ex.c ****     }
 505:Drivers/STM32L4xx_HAL_Driver/Src/stm32l4xx_hal_flash_ex.c ****   }
 506:Drivers/STM32L4xx_HAL_Driver/Src/stm32l4xx_hal_flash_ex.c **** 
 507:Drivers/STM32L4xx_HAL_Driver/Src/stm32l4xx_hal_flash_ex.c ****   /* Process Unlocked */
 508:Drivers/STM32L4xx_HAL_Driver/Src/stm32l4xx_hal_flash_ex.c ****   __HAL_UNLOCK(&pFlash);
 509:Drivers/STM32L4xx_HAL_Driver/Src/stm32l4xx_hal_flash_ex.c **** 
 510:Drivers/STM32L4xx_HAL_Driver/Src/stm32l4xx_hal_flash_ex.c ****   return status;
 511:Drivers/STM32L4xx_HAL_Driver/Src/stm32l4xx_hal_flash_ex.c **** }
 512:Drivers/STM32L4xx_HAL_Driver/Src/stm32l4xx_hal_flash_ex.c **** 
 513:Drivers/STM32L4xx_HAL_Driver/Src/stm32l4xx_hal_flash_ex.c **** /**
 514:Drivers/STM32L4xx_HAL_Driver/Src/stm32l4xx_hal_flash_ex.c ****   * @}
 515:Drivers/STM32L4xx_HAL_Driver/Src/stm32l4xx_hal_flash_ex.c ****   */
 516:Drivers/STM32L4xx_HAL_Driver/Src/stm32l4xx_hal_flash_ex.c **** #endif /* FLASH_CFGR_LVEN */
 517:Drivers/STM32L4xx_HAL_Driver/Src/stm32l4xx_hal_flash_ex.c **** 
 518:Drivers/STM32L4xx_HAL_Driver/Src/stm32l4xx_hal_flash_ex.c **** /**
 519:Drivers/STM32L4xx_HAL_Driver/Src/stm32l4xx_hal_flash_ex.c ****   * @}
 520:Drivers/STM32L4xx_HAL_Driver/Src/stm32l4xx_hal_flash_ex.c ****   */
 521:Drivers/STM32L4xx_HAL_Driver/Src/stm32l4xx_hal_flash_ex.c **** 
 522:Drivers/STM32L4xx_HAL_Driver/Src/stm32l4xx_hal_flash_ex.c **** /* Private functions ---------------------------------------------------------*/
 523:Drivers/STM32L4xx_HAL_Driver/Src/stm32l4xx_hal_flash_ex.c **** 
 524:Drivers/STM32L4xx_HAL_Driver/Src/stm32l4xx_hal_flash_ex.c **** /** @addtogroup FLASHEx_Private_Functions
 525:Drivers/STM32L4xx_HAL_Driver/Src/stm32l4xx_hal_flash_ex.c ****   * @{
 526:Drivers/STM32L4xx_HAL_Driver/Src/stm32l4xx_hal_flash_ex.c ****   */
 527:Drivers/STM32L4xx_HAL_Driver/Src/stm32l4xx_hal_flash_ex.c **** /**
 528:Drivers/STM32L4xx_HAL_Driver/Src/stm32l4xx_hal_flash_ex.c ****   * @brief  Mass erase of FLASH memory.
 529:Drivers/STM32L4xx_HAL_Driver/Src/stm32l4xx_hal_flash_ex.c ****   * @param  Banks: Banks to be erased
 530:Drivers/STM32L4xx_HAL_Driver/Src/stm32l4xx_hal_flash_ex.c ****   *          This parameter can be one of the following values:
 531:Drivers/STM32L4xx_HAL_Driver/Src/stm32l4xx_hal_flash_ex.c ****   *            @arg FLASH_BANK_1: Bank1 to be erased
 532:Drivers/STM32L4xx_HAL_Driver/Src/stm32l4xx_hal_flash_ex.c ****   *            @arg FLASH_BANK_2: Bank2 to be erased
 533:Drivers/STM32L4xx_HAL_Driver/Src/stm32l4xx_hal_flash_ex.c ****   *            @arg FLASH_BANK_BOTH: Bank1 and Bank2 to be erased
 534:Drivers/STM32L4xx_HAL_Driver/Src/stm32l4xx_hal_flash_ex.c ****   * @retval None
 535:Drivers/STM32L4xx_HAL_Driver/Src/stm32l4xx_hal_flash_ex.c ****   */
 536:Drivers/STM32L4xx_HAL_Driver/Src/stm32l4xx_hal_flash_ex.c **** static void FLASH_MassErase(uint32_t Banks)
 537:Drivers/STM32L4xx_HAL_Driver/Src/stm32l4xx_hal_flash_ex.c **** {
  29              		.loc 1 537 1 view -0
  30              		.cfi_startproc
  31              		@ args = 0, pretend = 0, frame = 0
  32              		@ frame_needed = 0, uses_anonymous_args = 0
  33              		@ link register save eliminated.
 538:Drivers/STM32L4xx_HAL_Driver/Src/stm32l4xx_hal_flash_ex.c **** #if defined (STM32L4R5xx) || defined (STM32L4R7xx) || defined (STM32L4R9xx) || defined (STM32L4S5xx
ARM GAS  /tmp/ccWeCwHW.s 			page 11


 539:Drivers/STM32L4xx_HAL_Driver/Src/stm32l4xx_hal_flash_ex.c ****   if (READ_BIT(FLASH->OPTR, FLASH_OPTR_DBANK) != 0U)
 540:Drivers/STM32L4xx_HAL_Driver/Src/stm32l4xx_hal_flash_ex.c **** #endif
 541:Drivers/STM32L4xx_HAL_Driver/Src/stm32l4xx_hal_flash_ex.c ****   {
 542:Drivers/STM32L4xx_HAL_Driver/Src/stm32l4xx_hal_flash_ex.c ****     /* Check the parameters */
 543:Drivers/STM32L4xx_HAL_Driver/Src/stm32l4xx_hal_flash_ex.c ****     assert_param(IS_FLASH_BANK(Banks));
  34              		.loc 1 543 5 view .LVU1
 544:Drivers/STM32L4xx_HAL_Driver/Src/stm32l4xx_hal_flash_ex.c **** 
 545:Drivers/STM32L4xx_HAL_Driver/Src/stm32l4xx_hal_flash_ex.c ****     /* Set the Mass Erase Bit for the bank 1 if requested */
 546:Drivers/STM32L4xx_HAL_Driver/Src/stm32l4xx_hal_flash_ex.c ****     if((Banks & FLASH_BANK_1) != 0U)
  35              		.loc 1 546 5 view .LVU2
  36              		.loc 1 546 7 is_stmt 0 view .LVU3
  37 0000 10F0010F 		tst	r0, #1
  38 0004 04D0     		beq	.L2
 547:Drivers/STM32L4xx_HAL_Driver/Src/stm32l4xx_hal_flash_ex.c ****     {
 548:Drivers/STM32L4xx_HAL_Driver/Src/stm32l4xx_hal_flash_ex.c ****       SET_BIT(FLASH->CR, FLASH_CR_MER1);
  39              		.loc 1 548 7 is_stmt 1 view .LVU4
  40 0006 054A     		ldr	r2, .L3
  41 0008 5369     		ldr	r3, [r2, #20]
  42 000a 43F00403 		orr	r3, r3, #4
  43 000e 5361     		str	r3, [r2, #20]
  44              	.L2:
 549:Drivers/STM32L4xx_HAL_Driver/Src/stm32l4xx_hal_flash_ex.c ****     }
 550:Drivers/STM32L4xx_HAL_Driver/Src/stm32l4xx_hal_flash_ex.c ****     
 551:Drivers/STM32L4xx_HAL_Driver/Src/stm32l4xx_hal_flash_ex.c **** #if defined (STM32L471xx) || defined (STM32L475xx) || defined (STM32L476xx) || defined (STM32L485xx
 552:Drivers/STM32L4xx_HAL_Driver/Src/stm32l4xx_hal_flash_ex.c ****     defined (STM32L496xx) || defined (STM32L4A6xx) || \
 553:Drivers/STM32L4xx_HAL_Driver/Src/stm32l4xx_hal_flash_ex.c ****     defined (STM32L4R5xx) || defined (STM32L4R7xx) || defined (STM32L4R9xx) || defined (STM32L4S5xx
 554:Drivers/STM32L4xx_HAL_Driver/Src/stm32l4xx_hal_flash_ex.c ****     /* Set the Mass Erase Bit for the bank 2 if requested */
 555:Drivers/STM32L4xx_HAL_Driver/Src/stm32l4xx_hal_flash_ex.c ****     if((Banks & FLASH_BANK_2) != 0U)
 556:Drivers/STM32L4xx_HAL_Driver/Src/stm32l4xx_hal_flash_ex.c ****     {
 557:Drivers/STM32L4xx_HAL_Driver/Src/stm32l4xx_hal_flash_ex.c ****       SET_BIT(FLASH->CR, FLASH_CR_MER2);
 558:Drivers/STM32L4xx_HAL_Driver/Src/stm32l4xx_hal_flash_ex.c ****     }
 559:Drivers/STM32L4xx_HAL_Driver/Src/stm32l4xx_hal_flash_ex.c **** #endif
 560:Drivers/STM32L4xx_HAL_Driver/Src/stm32l4xx_hal_flash_ex.c ****   }
 561:Drivers/STM32L4xx_HAL_Driver/Src/stm32l4xx_hal_flash_ex.c **** #if defined (STM32L4R5xx) || defined (STM32L4R7xx) || defined (STM32L4R9xx) || defined (STM32L4S5xx
 562:Drivers/STM32L4xx_HAL_Driver/Src/stm32l4xx_hal_flash_ex.c ****   else
 563:Drivers/STM32L4xx_HAL_Driver/Src/stm32l4xx_hal_flash_ex.c ****   {
 564:Drivers/STM32L4xx_HAL_Driver/Src/stm32l4xx_hal_flash_ex.c ****     SET_BIT(FLASH->CR, (FLASH_CR_MER1 | FLASH_CR_MER2));
 565:Drivers/STM32L4xx_HAL_Driver/Src/stm32l4xx_hal_flash_ex.c ****   }
 566:Drivers/STM32L4xx_HAL_Driver/Src/stm32l4xx_hal_flash_ex.c **** #endif
 567:Drivers/STM32L4xx_HAL_Driver/Src/stm32l4xx_hal_flash_ex.c **** 
 568:Drivers/STM32L4xx_HAL_Driver/Src/stm32l4xx_hal_flash_ex.c ****   /* Proceed to erase all sectors */
 569:Drivers/STM32L4xx_HAL_Driver/Src/stm32l4xx_hal_flash_ex.c ****   SET_BIT(FLASH->CR, FLASH_CR_STRT);
  45              		.loc 1 569 3 view .LVU5
  46 0010 024A     		ldr	r2, .L3
  47 0012 5369     		ldr	r3, [r2, #20]
  48 0014 43F48033 		orr	r3, r3, #65536
  49 0018 5361     		str	r3, [r2, #20]
 570:Drivers/STM32L4xx_HAL_Driver/Src/stm32l4xx_hal_flash_ex.c **** }
  50              		.loc 1 570 1 is_stmt 0 view .LVU6
  51 001a 7047     		bx	lr
  52              	.L4:
  53              		.align	2
  54              	.L3:
  55 001c 00200240 		.word	1073881088
  56              		.cfi_endproc
  57              	.LFE127:
  59              		.section	.text.FLASH_OB_GetWRP,"ax",%progbits
ARM GAS  /tmp/ccWeCwHW.s 			page 12


  60              		.align	1
  61              		.syntax unified
  62              		.thumb
  63              		.thumb_func
  64              		.fpu fpv4-sp-d16
  66              	FLASH_OB_GetWRP:
  67              	.LVL1:
  68              	.LFB134:
 571:Drivers/STM32L4xx_HAL_Driver/Src/stm32l4xx_hal_flash_ex.c **** 
 572:Drivers/STM32L4xx_HAL_Driver/Src/stm32l4xx_hal_flash_ex.c **** /**
 573:Drivers/STM32L4xx_HAL_Driver/Src/stm32l4xx_hal_flash_ex.c ****   * @brief  Erase the specified FLASH memory page.
 574:Drivers/STM32L4xx_HAL_Driver/Src/stm32l4xx_hal_flash_ex.c ****   * @param  Page: FLASH page to erase
 575:Drivers/STM32L4xx_HAL_Driver/Src/stm32l4xx_hal_flash_ex.c ****   *         This parameter must be a value between 0 and (max number of pages in the bank - 1)     
 576:Drivers/STM32L4xx_HAL_Driver/Src/stm32l4xx_hal_flash_ex.c ****   * @param  Banks: Bank(s) where the page will be erased
 577:Drivers/STM32L4xx_HAL_Driver/Src/stm32l4xx_hal_flash_ex.c ****   *          This parameter can be one of the following values:
 578:Drivers/STM32L4xx_HAL_Driver/Src/stm32l4xx_hal_flash_ex.c ****   *            @arg FLASH_BANK_1: Page in bank 1 to be erased
 579:Drivers/STM32L4xx_HAL_Driver/Src/stm32l4xx_hal_flash_ex.c ****   *            @arg FLASH_BANK_2: Page in bank 2 to be erased
 580:Drivers/STM32L4xx_HAL_Driver/Src/stm32l4xx_hal_flash_ex.c ****   * @retval None
 581:Drivers/STM32L4xx_HAL_Driver/Src/stm32l4xx_hal_flash_ex.c ****   */
 582:Drivers/STM32L4xx_HAL_Driver/Src/stm32l4xx_hal_flash_ex.c **** void FLASH_PageErase(uint32_t Page, uint32_t Banks)
 583:Drivers/STM32L4xx_HAL_Driver/Src/stm32l4xx_hal_flash_ex.c **** {
 584:Drivers/STM32L4xx_HAL_Driver/Src/stm32l4xx_hal_flash_ex.c ****   /* Check the parameters */
 585:Drivers/STM32L4xx_HAL_Driver/Src/stm32l4xx_hal_flash_ex.c ****   assert_param(IS_FLASH_PAGE(Page));
 586:Drivers/STM32L4xx_HAL_Driver/Src/stm32l4xx_hal_flash_ex.c **** 
 587:Drivers/STM32L4xx_HAL_Driver/Src/stm32l4xx_hal_flash_ex.c **** #if defined (STM32L471xx) || defined (STM32L475xx) || defined (STM32L476xx) || defined (STM32L485xx
 588:Drivers/STM32L4xx_HAL_Driver/Src/stm32l4xx_hal_flash_ex.c ****     defined (STM32L496xx) || defined (STM32L4A6xx) || \
 589:Drivers/STM32L4xx_HAL_Driver/Src/stm32l4xx_hal_flash_ex.c ****     defined (STM32L4R5xx) || defined (STM32L4R7xx) || defined (STM32L4R9xx) || defined (STM32L4S5xx
 590:Drivers/STM32L4xx_HAL_Driver/Src/stm32l4xx_hal_flash_ex.c **** #if defined (STM32L4R5xx) || defined (STM32L4R7xx) || defined (STM32L4R9xx) || defined (STM32L4S5xx
 591:Drivers/STM32L4xx_HAL_Driver/Src/stm32l4xx_hal_flash_ex.c ****   if(READ_BIT(FLASH->OPTR, FLASH_OPTR_DBANK) == 0U)
 592:Drivers/STM32L4xx_HAL_Driver/Src/stm32l4xx_hal_flash_ex.c ****   {
 593:Drivers/STM32L4xx_HAL_Driver/Src/stm32l4xx_hal_flash_ex.c ****     CLEAR_BIT(FLASH->CR, FLASH_CR_BKER);
 594:Drivers/STM32L4xx_HAL_Driver/Src/stm32l4xx_hal_flash_ex.c ****   }
 595:Drivers/STM32L4xx_HAL_Driver/Src/stm32l4xx_hal_flash_ex.c ****   else
 596:Drivers/STM32L4xx_HAL_Driver/Src/stm32l4xx_hal_flash_ex.c **** #endif
 597:Drivers/STM32L4xx_HAL_Driver/Src/stm32l4xx_hal_flash_ex.c ****   {
 598:Drivers/STM32L4xx_HAL_Driver/Src/stm32l4xx_hal_flash_ex.c ****     assert_param(IS_FLASH_BANK_EXCLUSIVE(Banks));
 599:Drivers/STM32L4xx_HAL_Driver/Src/stm32l4xx_hal_flash_ex.c **** 
 600:Drivers/STM32L4xx_HAL_Driver/Src/stm32l4xx_hal_flash_ex.c ****     if((Banks & FLASH_BANK_1) != 0U)
 601:Drivers/STM32L4xx_HAL_Driver/Src/stm32l4xx_hal_flash_ex.c ****     {
 602:Drivers/STM32L4xx_HAL_Driver/Src/stm32l4xx_hal_flash_ex.c ****       CLEAR_BIT(FLASH->CR, FLASH_CR_BKER);
 603:Drivers/STM32L4xx_HAL_Driver/Src/stm32l4xx_hal_flash_ex.c ****     }
 604:Drivers/STM32L4xx_HAL_Driver/Src/stm32l4xx_hal_flash_ex.c ****     else
 605:Drivers/STM32L4xx_HAL_Driver/Src/stm32l4xx_hal_flash_ex.c ****     {
 606:Drivers/STM32L4xx_HAL_Driver/Src/stm32l4xx_hal_flash_ex.c ****       SET_BIT(FLASH->CR, FLASH_CR_BKER);
 607:Drivers/STM32L4xx_HAL_Driver/Src/stm32l4xx_hal_flash_ex.c ****     }
 608:Drivers/STM32L4xx_HAL_Driver/Src/stm32l4xx_hal_flash_ex.c ****   }
 609:Drivers/STM32L4xx_HAL_Driver/Src/stm32l4xx_hal_flash_ex.c **** #else
 610:Drivers/STM32L4xx_HAL_Driver/Src/stm32l4xx_hal_flash_ex.c ****   /* Prevent unused argument(s) compilation warning */
 611:Drivers/STM32L4xx_HAL_Driver/Src/stm32l4xx_hal_flash_ex.c ****   UNUSED(Banks);
 612:Drivers/STM32L4xx_HAL_Driver/Src/stm32l4xx_hal_flash_ex.c **** #endif
 613:Drivers/STM32L4xx_HAL_Driver/Src/stm32l4xx_hal_flash_ex.c **** 
 614:Drivers/STM32L4xx_HAL_Driver/Src/stm32l4xx_hal_flash_ex.c ****   /* Proceed to erase the page */
 615:Drivers/STM32L4xx_HAL_Driver/Src/stm32l4xx_hal_flash_ex.c ****   MODIFY_REG(FLASH->CR, FLASH_CR_PNB, ((Page & 0xFFU) << FLASH_CR_PNB_Pos));
 616:Drivers/STM32L4xx_HAL_Driver/Src/stm32l4xx_hal_flash_ex.c ****   SET_BIT(FLASH->CR, FLASH_CR_PER);
 617:Drivers/STM32L4xx_HAL_Driver/Src/stm32l4xx_hal_flash_ex.c ****   SET_BIT(FLASH->CR, FLASH_CR_STRT);
 618:Drivers/STM32L4xx_HAL_Driver/Src/stm32l4xx_hal_flash_ex.c **** }
 619:Drivers/STM32L4xx_HAL_Driver/Src/stm32l4xx_hal_flash_ex.c **** 
ARM GAS  /tmp/ccWeCwHW.s 			page 13


 620:Drivers/STM32L4xx_HAL_Driver/Src/stm32l4xx_hal_flash_ex.c **** /**
 621:Drivers/STM32L4xx_HAL_Driver/Src/stm32l4xx_hal_flash_ex.c ****   * @brief  Flush the instruction and data caches.
 622:Drivers/STM32L4xx_HAL_Driver/Src/stm32l4xx_hal_flash_ex.c ****   * @retval None
 623:Drivers/STM32L4xx_HAL_Driver/Src/stm32l4xx_hal_flash_ex.c ****   */
 624:Drivers/STM32L4xx_HAL_Driver/Src/stm32l4xx_hal_flash_ex.c **** void FLASH_FlushCaches(void)
 625:Drivers/STM32L4xx_HAL_Driver/Src/stm32l4xx_hal_flash_ex.c **** {
 626:Drivers/STM32L4xx_HAL_Driver/Src/stm32l4xx_hal_flash_ex.c ****   FLASH_CacheTypeDef cache = pFlash.CacheToReactivate;
 627:Drivers/STM32L4xx_HAL_Driver/Src/stm32l4xx_hal_flash_ex.c **** 
 628:Drivers/STM32L4xx_HAL_Driver/Src/stm32l4xx_hal_flash_ex.c ****   /* Flush instruction cache  */
 629:Drivers/STM32L4xx_HAL_Driver/Src/stm32l4xx_hal_flash_ex.c ****   if((cache == FLASH_CACHE_ICACHE_ENABLED) || 
 630:Drivers/STM32L4xx_HAL_Driver/Src/stm32l4xx_hal_flash_ex.c ****      (cache == FLASH_CACHE_ICACHE_DCACHE_ENABLED))
 631:Drivers/STM32L4xx_HAL_Driver/Src/stm32l4xx_hal_flash_ex.c ****   {
 632:Drivers/STM32L4xx_HAL_Driver/Src/stm32l4xx_hal_flash_ex.c ****     /* Reset instruction cache */
 633:Drivers/STM32L4xx_HAL_Driver/Src/stm32l4xx_hal_flash_ex.c ****     __HAL_FLASH_INSTRUCTION_CACHE_RESET();
 634:Drivers/STM32L4xx_HAL_Driver/Src/stm32l4xx_hal_flash_ex.c ****     /* Enable instruction cache */
 635:Drivers/STM32L4xx_HAL_Driver/Src/stm32l4xx_hal_flash_ex.c ****     __HAL_FLASH_INSTRUCTION_CACHE_ENABLE();
 636:Drivers/STM32L4xx_HAL_Driver/Src/stm32l4xx_hal_flash_ex.c ****   }
 637:Drivers/STM32L4xx_HAL_Driver/Src/stm32l4xx_hal_flash_ex.c ****   
 638:Drivers/STM32L4xx_HAL_Driver/Src/stm32l4xx_hal_flash_ex.c ****   /* Flush data cache */
 639:Drivers/STM32L4xx_HAL_Driver/Src/stm32l4xx_hal_flash_ex.c ****   if((cache == FLASH_CACHE_DCACHE_ENABLED) || 
 640:Drivers/STM32L4xx_HAL_Driver/Src/stm32l4xx_hal_flash_ex.c ****      (cache == FLASH_CACHE_ICACHE_DCACHE_ENABLED))
 641:Drivers/STM32L4xx_HAL_Driver/Src/stm32l4xx_hal_flash_ex.c ****   {
 642:Drivers/STM32L4xx_HAL_Driver/Src/stm32l4xx_hal_flash_ex.c ****     /* Reset data cache */
 643:Drivers/STM32L4xx_HAL_Driver/Src/stm32l4xx_hal_flash_ex.c ****     __HAL_FLASH_DATA_CACHE_RESET();
 644:Drivers/STM32L4xx_HAL_Driver/Src/stm32l4xx_hal_flash_ex.c ****     /* Enable data cache */
 645:Drivers/STM32L4xx_HAL_Driver/Src/stm32l4xx_hal_flash_ex.c ****     __HAL_FLASH_DATA_CACHE_ENABLE();
 646:Drivers/STM32L4xx_HAL_Driver/Src/stm32l4xx_hal_flash_ex.c ****   }
 647:Drivers/STM32L4xx_HAL_Driver/Src/stm32l4xx_hal_flash_ex.c ****   
 648:Drivers/STM32L4xx_HAL_Driver/Src/stm32l4xx_hal_flash_ex.c ****   /* Reset internal variable */
 649:Drivers/STM32L4xx_HAL_Driver/Src/stm32l4xx_hal_flash_ex.c ****   pFlash.CacheToReactivate = FLASH_CACHE_DISABLED;
 650:Drivers/STM32L4xx_HAL_Driver/Src/stm32l4xx_hal_flash_ex.c **** }
 651:Drivers/STM32L4xx_HAL_Driver/Src/stm32l4xx_hal_flash_ex.c **** 
 652:Drivers/STM32L4xx_HAL_Driver/Src/stm32l4xx_hal_flash_ex.c **** /**
 653:Drivers/STM32L4xx_HAL_Driver/Src/stm32l4xx_hal_flash_ex.c ****   * @brief  Configure the write protection of the desired pages.
 654:Drivers/STM32L4xx_HAL_Driver/Src/stm32l4xx_hal_flash_ex.c ****   *
 655:Drivers/STM32L4xx_HAL_Driver/Src/stm32l4xx_hal_flash_ex.c ****   * @note   When the memory read protection level is selected (RDP level = 1), 
 656:Drivers/STM32L4xx_HAL_Driver/Src/stm32l4xx_hal_flash_ex.c ****   *         it is not possible to program or erase Flash memory if the CPU debug 
 657:Drivers/STM32L4xx_HAL_Driver/Src/stm32l4xx_hal_flash_ex.c ****   *         features are connected (JTAG or single wire) or boot code is being 
 658:Drivers/STM32L4xx_HAL_Driver/Src/stm32l4xx_hal_flash_ex.c ****   *         executed from RAM or System flash, even if WRP is not activated. 
 659:Drivers/STM32L4xx_HAL_Driver/Src/stm32l4xx_hal_flash_ex.c ****   * @note   To configure the WRP options, the option lock bit OPTLOCK must be 
 660:Drivers/STM32L4xx_HAL_Driver/Src/stm32l4xx_hal_flash_ex.c ****   *         cleared with the call of the HAL_FLASH_OB_Unlock() function.
 661:Drivers/STM32L4xx_HAL_Driver/Src/stm32l4xx_hal_flash_ex.c ****   * @note   To validate the WRP options, the option bytes must be reloaded 
 662:Drivers/STM32L4xx_HAL_Driver/Src/stm32l4xx_hal_flash_ex.c ****   *         through the call of the HAL_FLASH_OB_Launch() function.
 663:Drivers/STM32L4xx_HAL_Driver/Src/stm32l4xx_hal_flash_ex.c ****   *
 664:Drivers/STM32L4xx_HAL_Driver/Src/stm32l4xx_hal_flash_ex.c ****   * @param  WRPArea: specifies the area to be configured.
 665:Drivers/STM32L4xx_HAL_Driver/Src/stm32l4xx_hal_flash_ex.c ****   *          This parameter can be one of the following values:
 666:Drivers/STM32L4xx_HAL_Driver/Src/stm32l4xx_hal_flash_ex.c ****   *            @arg OB_WRPAREA_BANK1_AREAA: Flash Bank 1 Area A                      
 667:Drivers/STM32L4xx_HAL_Driver/Src/stm32l4xx_hal_flash_ex.c ****   *            @arg OB_WRPAREA_BANK1_AREAB: Flash Bank 1 Area B                      
 668:Drivers/STM32L4xx_HAL_Driver/Src/stm32l4xx_hal_flash_ex.c ****   *            @arg OB_WRPAREA_BANK2_AREAA: Flash Bank 2 Area A  (don't apply for STM32L43x/STM32L4
 669:Drivers/STM32L4xx_HAL_Driver/Src/stm32l4xx_hal_flash_ex.c ****   *            @arg OB_WRPAREA_BANK2_AREAB: Flash Bank 2 Area B  (don't apply for STM32L43x/STM32L4
 670:Drivers/STM32L4xx_HAL_Driver/Src/stm32l4xx_hal_flash_ex.c ****   *
 671:Drivers/STM32L4xx_HAL_Driver/Src/stm32l4xx_hal_flash_ex.c ****   * @param  WRPStartOffset: specifies the start page of the write protected area
 672:Drivers/STM32L4xx_HAL_Driver/Src/stm32l4xx_hal_flash_ex.c ****   *          This parameter can be page number between 0 and (max number of pages in the bank - 1) 
 673:Drivers/STM32L4xx_HAL_Driver/Src/stm32l4xx_hal_flash_ex.c ****   *
 674:Drivers/STM32L4xx_HAL_Driver/Src/stm32l4xx_hal_flash_ex.c ****   * @param  WRDPEndOffset: specifies the end page of the write protected area
 675:Drivers/STM32L4xx_HAL_Driver/Src/stm32l4xx_hal_flash_ex.c ****   *          This parameter can be page number between WRPStartOffset and (max number of pages in t
 676:Drivers/STM32L4xx_HAL_Driver/Src/stm32l4xx_hal_flash_ex.c ****   *
ARM GAS  /tmp/ccWeCwHW.s 			page 14


 677:Drivers/STM32L4xx_HAL_Driver/Src/stm32l4xx_hal_flash_ex.c ****   * @retval HAL Status
 678:Drivers/STM32L4xx_HAL_Driver/Src/stm32l4xx_hal_flash_ex.c ****   */
 679:Drivers/STM32L4xx_HAL_Driver/Src/stm32l4xx_hal_flash_ex.c **** static HAL_StatusTypeDef FLASH_OB_WRPConfig(uint32_t WRPArea, uint32_t WRPStartOffset, uint32_t WRD
 680:Drivers/STM32L4xx_HAL_Driver/Src/stm32l4xx_hal_flash_ex.c **** {
 681:Drivers/STM32L4xx_HAL_Driver/Src/stm32l4xx_hal_flash_ex.c ****   HAL_StatusTypeDef status;
 682:Drivers/STM32L4xx_HAL_Driver/Src/stm32l4xx_hal_flash_ex.c **** 
 683:Drivers/STM32L4xx_HAL_Driver/Src/stm32l4xx_hal_flash_ex.c ****   /* Check the parameters */
 684:Drivers/STM32L4xx_HAL_Driver/Src/stm32l4xx_hal_flash_ex.c ****   assert_param(IS_OB_WRPAREA(WRPArea));
 685:Drivers/STM32L4xx_HAL_Driver/Src/stm32l4xx_hal_flash_ex.c ****   assert_param(IS_FLASH_PAGE(WRPStartOffset));
 686:Drivers/STM32L4xx_HAL_Driver/Src/stm32l4xx_hal_flash_ex.c ****   assert_param(IS_FLASH_PAGE(WRDPEndOffset));
 687:Drivers/STM32L4xx_HAL_Driver/Src/stm32l4xx_hal_flash_ex.c **** 
 688:Drivers/STM32L4xx_HAL_Driver/Src/stm32l4xx_hal_flash_ex.c ****   /* Wait for last operation to be completed */
 689:Drivers/STM32L4xx_HAL_Driver/Src/stm32l4xx_hal_flash_ex.c ****   status = FLASH_WaitForLastOperation((uint32_t)FLASH_TIMEOUT_VALUE);
 690:Drivers/STM32L4xx_HAL_Driver/Src/stm32l4xx_hal_flash_ex.c **** 
 691:Drivers/STM32L4xx_HAL_Driver/Src/stm32l4xx_hal_flash_ex.c ****   if(status == HAL_OK)
 692:Drivers/STM32L4xx_HAL_Driver/Src/stm32l4xx_hal_flash_ex.c ****   {
 693:Drivers/STM32L4xx_HAL_Driver/Src/stm32l4xx_hal_flash_ex.c ****     /* Configure the write protected area */
 694:Drivers/STM32L4xx_HAL_Driver/Src/stm32l4xx_hal_flash_ex.c ****     if(WRPArea == OB_WRPAREA_BANK1_AREAA)
 695:Drivers/STM32L4xx_HAL_Driver/Src/stm32l4xx_hal_flash_ex.c ****     {
 696:Drivers/STM32L4xx_HAL_Driver/Src/stm32l4xx_hal_flash_ex.c ****       MODIFY_REG(FLASH->WRP1AR, (FLASH_WRP1AR_WRP1A_STRT | FLASH_WRP1AR_WRP1A_END), 
 697:Drivers/STM32L4xx_HAL_Driver/Src/stm32l4xx_hal_flash_ex.c ****                  (WRPStartOffset | (WRDPEndOffset << 16)));
 698:Drivers/STM32L4xx_HAL_Driver/Src/stm32l4xx_hal_flash_ex.c ****     }
 699:Drivers/STM32L4xx_HAL_Driver/Src/stm32l4xx_hal_flash_ex.c ****     else if(WRPArea == OB_WRPAREA_BANK1_AREAB)
 700:Drivers/STM32L4xx_HAL_Driver/Src/stm32l4xx_hal_flash_ex.c ****     {
 701:Drivers/STM32L4xx_HAL_Driver/Src/stm32l4xx_hal_flash_ex.c ****       MODIFY_REG(FLASH->WRP1BR, (FLASH_WRP1BR_WRP1B_STRT | FLASH_WRP1BR_WRP1B_END), 
 702:Drivers/STM32L4xx_HAL_Driver/Src/stm32l4xx_hal_flash_ex.c ****                  (WRPStartOffset | (WRDPEndOffset << 16)));
 703:Drivers/STM32L4xx_HAL_Driver/Src/stm32l4xx_hal_flash_ex.c ****     }
 704:Drivers/STM32L4xx_HAL_Driver/Src/stm32l4xx_hal_flash_ex.c **** #if defined (STM32L471xx) || defined (STM32L475xx) || defined (STM32L476xx) || defined (STM32L485xx
 705:Drivers/STM32L4xx_HAL_Driver/Src/stm32l4xx_hal_flash_ex.c ****     defined (STM32L496xx) || defined (STM32L4A6xx) || \
 706:Drivers/STM32L4xx_HAL_Driver/Src/stm32l4xx_hal_flash_ex.c ****     defined (STM32L4R5xx) || defined (STM32L4R7xx) || defined (STM32L4R9xx) || defined (STM32L4S5xx
 707:Drivers/STM32L4xx_HAL_Driver/Src/stm32l4xx_hal_flash_ex.c ****     else if(WRPArea == OB_WRPAREA_BANK2_AREAA)
 708:Drivers/STM32L4xx_HAL_Driver/Src/stm32l4xx_hal_flash_ex.c ****     {
 709:Drivers/STM32L4xx_HAL_Driver/Src/stm32l4xx_hal_flash_ex.c ****       MODIFY_REG(FLASH->WRP2AR, (FLASH_WRP2AR_WRP2A_STRT | FLASH_WRP2AR_WRP2A_END), 
 710:Drivers/STM32L4xx_HAL_Driver/Src/stm32l4xx_hal_flash_ex.c ****                  (WRPStartOffset | (WRDPEndOffset << 16)));
 711:Drivers/STM32L4xx_HAL_Driver/Src/stm32l4xx_hal_flash_ex.c ****     }
 712:Drivers/STM32L4xx_HAL_Driver/Src/stm32l4xx_hal_flash_ex.c ****     else if(WRPArea == OB_WRPAREA_BANK2_AREAB)
 713:Drivers/STM32L4xx_HAL_Driver/Src/stm32l4xx_hal_flash_ex.c ****     {
 714:Drivers/STM32L4xx_HAL_Driver/Src/stm32l4xx_hal_flash_ex.c ****       MODIFY_REG(FLASH->WRP2BR, (FLASH_WRP2BR_WRP2B_STRT | FLASH_WRP2BR_WRP2B_END), 
 715:Drivers/STM32L4xx_HAL_Driver/Src/stm32l4xx_hal_flash_ex.c ****                  (WRPStartOffset | (WRDPEndOffset << 16)));
 716:Drivers/STM32L4xx_HAL_Driver/Src/stm32l4xx_hal_flash_ex.c ****     }
 717:Drivers/STM32L4xx_HAL_Driver/Src/stm32l4xx_hal_flash_ex.c **** #endif
 718:Drivers/STM32L4xx_HAL_Driver/Src/stm32l4xx_hal_flash_ex.c ****     else
 719:Drivers/STM32L4xx_HAL_Driver/Src/stm32l4xx_hal_flash_ex.c ****     {
 720:Drivers/STM32L4xx_HAL_Driver/Src/stm32l4xx_hal_flash_ex.c ****       /* Nothing to do */
 721:Drivers/STM32L4xx_HAL_Driver/Src/stm32l4xx_hal_flash_ex.c ****     }
 722:Drivers/STM32L4xx_HAL_Driver/Src/stm32l4xx_hal_flash_ex.c ****     
 723:Drivers/STM32L4xx_HAL_Driver/Src/stm32l4xx_hal_flash_ex.c ****     /* Set OPTSTRT Bit */
 724:Drivers/STM32L4xx_HAL_Driver/Src/stm32l4xx_hal_flash_ex.c ****     SET_BIT(FLASH->CR, FLASH_CR_OPTSTRT);
 725:Drivers/STM32L4xx_HAL_Driver/Src/stm32l4xx_hal_flash_ex.c ****     
 726:Drivers/STM32L4xx_HAL_Driver/Src/stm32l4xx_hal_flash_ex.c ****     /* Wait for last operation to be completed */
 727:Drivers/STM32L4xx_HAL_Driver/Src/stm32l4xx_hal_flash_ex.c ****     status = FLASH_WaitForLastOperation((uint32_t)FLASH_TIMEOUT_VALUE);
 728:Drivers/STM32L4xx_HAL_Driver/Src/stm32l4xx_hal_flash_ex.c **** 
 729:Drivers/STM32L4xx_HAL_Driver/Src/stm32l4xx_hal_flash_ex.c ****     /* If the option byte program operation is completed, disable the OPTSTRT Bit */
 730:Drivers/STM32L4xx_HAL_Driver/Src/stm32l4xx_hal_flash_ex.c ****     CLEAR_BIT(FLASH->CR, FLASH_CR_OPTSTRT);
 731:Drivers/STM32L4xx_HAL_Driver/Src/stm32l4xx_hal_flash_ex.c ****   }
 732:Drivers/STM32L4xx_HAL_Driver/Src/stm32l4xx_hal_flash_ex.c ****   
 733:Drivers/STM32L4xx_HAL_Driver/Src/stm32l4xx_hal_flash_ex.c ****   return status;
ARM GAS  /tmp/ccWeCwHW.s 			page 15


 734:Drivers/STM32L4xx_HAL_Driver/Src/stm32l4xx_hal_flash_ex.c **** }
 735:Drivers/STM32L4xx_HAL_Driver/Src/stm32l4xx_hal_flash_ex.c **** 
 736:Drivers/STM32L4xx_HAL_Driver/Src/stm32l4xx_hal_flash_ex.c **** /**
 737:Drivers/STM32L4xx_HAL_Driver/Src/stm32l4xx_hal_flash_ex.c ****   * @brief  Set the read protection level.
 738:Drivers/STM32L4xx_HAL_Driver/Src/stm32l4xx_hal_flash_ex.c ****   *    
 739:Drivers/STM32L4xx_HAL_Driver/Src/stm32l4xx_hal_flash_ex.c ****   * @note   To configure the RDP level, the option lock bit OPTLOCK must be 
 740:Drivers/STM32L4xx_HAL_Driver/Src/stm32l4xx_hal_flash_ex.c ****   *         cleared with the call of the HAL_FLASH_OB_Unlock() function.
 741:Drivers/STM32L4xx_HAL_Driver/Src/stm32l4xx_hal_flash_ex.c ****   * @note   To validate the RDP level, the option bytes must be reloaded 
 742:Drivers/STM32L4xx_HAL_Driver/Src/stm32l4xx_hal_flash_ex.c ****   *         through the call of the HAL_FLASH_OB_Launch() function.
 743:Drivers/STM32L4xx_HAL_Driver/Src/stm32l4xx_hal_flash_ex.c ****   * @note   !!! Warning : When enabling OB_RDP level 2 it's no more possible 
 744:Drivers/STM32L4xx_HAL_Driver/Src/stm32l4xx_hal_flash_ex.c ****   *         to go back to level 1 or 0 !!!
 745:Drivers/STM32L4xx_HAL_Driver/Src/stm32l4xx_hal_flash_ex.c ****   *    
 746:Drivers/STM32L4xx_HAL_Driver/Src/stm32l4xx_hal_flash_ex.c ****   * @param  RDPLevel: specifies the read protection level.
 747:Drivers/STM32L4xx_HAL_Driver/Src/stm32l4xx_hal_flash_ex.c ****   *         This parameter can be one of the following values:
 748:Drivers/STM32L4xx_HAL_Driver/Src/stm32l4xx_hal_flash_ex.c ****   *            @arg OB_RDP_LEVEL_0: No protection
 749:Drivers/STM32L4xx_HAL_Driver/Src/stm32l4xx_hal_flash_ex.c ****   *            @arg OB_RDP_LEVEL_1: Read protection of the memory
 750:Drivers/STM32L4xx_HAL_Driver/Src/stm32l4xx_hal_flash_ex.c ****   *            @arg OB_RDP_LEVEL_2: Full chip protection
 751:Drivers/STM32L4xx_HAL_Driver/Src/stm32l4xx_hal_flash_ex.c ****   *   
 752:Drivers/STM32L4xx_HAL_Driver/Src/stm32l4xx_hal_flash_ex.c ****   * @retval HAL status
 753:Drivers/STM32L4xx_HAL_Driver/Src/stm32l4xx_hal_flash_ex.c ****   */
 754:Drivers/STM32L4xx_HAL_Driver/Src/stm32l4xx_hal_flash_ex.c **** static HAL_StatusTypeDef FLASH_OB_RDPConfig(uint32_t RDPLevel)
 755:Drivers/STM32L4xx_HAL_Driver/Src/stm32l4xx_hal_flash_ex.c **** {
 756:Drivers/STM32L4xx_HAL_Driver/Src/stm32l4xx_hal_flash_ex.c ****   HAL_StatusTypeDef status;
 757:Drivers/STM32L4xx_HAL_Driver/Src/stm32l4xx_hal_flash_ex.c **** 
 758:Drivers/STM32L4xx_HAL_Driver/Src/stm32l4xx_hal_flash_ex.c ****   /* Check the parameters */
 759:Drivers/STM32L4xx_HAL_Driver/Src/stm32l4xx_hal_flash_ex.c ****   assert_param(IS_OB_RDP_LEVEL(RDPLevel));
 760:Drivers/STM32L4xx_HAL_Driver/Src/stm32l4xx_hal_flash_ex.c ****     
 761:Drivers/STM32L4xx_HAL_Driver/Src/stm32l4xx_hal_flash_ex.c ****   /* Wait for last operation to be completed */
 762:Drivers/STM32L4xx_HAL_Driver/Src/stm32l4xx_hal_flash_ex.c ****   status = FLASH_WaitForLastOperation((uint32_t)FLASH_TIMEOUT_VALUE);
 763:Drivers/STM32L4xx_HAL_Driver/Src/stm32l4xx_hal_flash_ex.c **** 
 764:Drivers/STM32L4xx_HAL_Driver/Src/stm32l4xx_hal_flash_ex.c ****   if(status == HAL_OK)
 765:Drivers/STM32L4xx_HAL_Driver/Src/stm32l4xx_hal_flash_ex.c ****   { 
 766:Drivers/STM32L4xx_HAL_Driver/Src/stm32l4xx_hal_flash_ex.c ****     /* Configure the RDP level in the option bytes register */
 767:Drivers/STM32L4xx_HAL_Driver/Src/stm32l4xx_hal_flash_ex.c ****     MODIFY_REG(FLASH->OPTR, FLASH_OPTR_RDP, RDPLevel);
 768:Drivers/STM32L4xx_HAL_Driver/Src/stm32l4xx_hal_flash_ex.c ****     
 769:Drivers/STM32L4xx_HAL_Driver/Src/stm32l4xx_hal_flash_ex.c ****     /* Set OPTSTRT Bit */
 770:Drivers/STM32L4xx_HAL_Driver/Src/stm32l4xx_hal_flash_ex.c ****     SET_BIT(FLASH->CR, FLASH_CR_OPTSTRT);
 771:Drivers/STM32L4xx_HAL_Driver/Src/stm32l4xx_hal_flash_ex.c ****     
 772:Drivers/STM32L4xx_HAL_Driver/Src/stm32l4xx_hal_flash_ex.c ****     /* Wait for last operation to be completed */
 773:Drivers/STM32L4xx_HAL_Driver/Src/stm32l4xx_hal_flash_ex.c ****     status = FLASH_WaitForLastOperation((uint32_t)FLASH_TIMEOUT_VALUE);
 774:Drivers/STM32L4xx_HAL_Driver/Src/stm32l4xx_hal_flash_ex.c **** 
 775:Drivers/STM32L4xx_HAL_Driver/Src/stm32l4xx_hal_flash_ex.c ****     /* If the option byte program operation is completed, disable the OPTSTRT Bit */
 776:Drivers/STM32L4xx_HAL_Driver/Src/stm32l4xx_hal_flash_ex.c ****     CLEAR_BIT(FLASH->CR, FLASH_CR_OPTSTRT);
 777:Drivers/STM32L4xx_HAL_Driver/Src/stm32l4xx_hal_flash_ex.c ****   }
 778:Drivers/STM32L4xx_HAL_Driver/Src/stm32l4xx_hal_flash_ex.c **** 
 779:Drivers/STM32L4xx_HAL_Driver/Src/stm32l4xx_hal_flash_ex.c ****   return status;            
 780:Drivers/STM32L4xx_HAL_Driver/Src/stm32l4xx_hal_flash_ex.c **** }
 781:Drivers/STM32L4xx_HAL_Driver/Src/stm32l4xx_hal_flash_ex.c **** 
 782:Drivers/STM32L4xx_HAL_Driver/Src/stm32l4xx_hal_flash_ex.c **** /**
 783:Drivers/STM32L4xx_HAL_Driver/Src/stm32l4xx_hal_flash_ex.c ****   * @brief  Program the FLASH User Option Byte.    
 784:Drivers/STM32L4xx_HAL_Driver/Src/stm32l4xx_hal_flash_ex.c ****   *   
 785:Drivers/STM32L4xx_HAL_Driver/Src/stm32l4xx_hal_flash_ex.c ****   * @note   To configure the user option bytes, the option lock bit OPTLOCK must
 786:Drivers/STM32L4xx_HAL_Driver/Src/stm32l4xx_hal_flash_ex.c ****   *         be cleared with the call of the HAL_FLASH_OB_Unlock() function.
 787:Drivers/STM32L4xx_HAL_Driver/Src/stm32l4xx_hal_flash_ex.c ****   * @note   To validate the user option bytes, the option bytes must be reloaded 
 788:Drivers/STM32L4xx_HAL_Driver/Src/stm32l4xx_hal_flash_ex.c ****   *         through the call of the HAL_FLASH_OB_Launch() function.
 789:Drivers/STM32L4xx_HAL_Driver/Src/stm32l4xx_hal_flash_ex.c ****   *   
 790:Drivers/STM32L4xx_HAL_Driver/Src/stm32l4xx_hal_flash_ex.c ****   * @param  UserType: The FLASH User Option Bytes to be modified 
ARM GAS  /tmp/ccWeCwHW.s 			page 16


 791:Drivers/STM32L4xx_HAL_Driver/Src/stm32l4xx_hal_flash_ex.c ****   * @param  UserConfig: The FLASH User Option Bytes values: 
 792:Drivers/STM32L4xx_HAL_Driver/Src/stm32l4xx_hal_flash_ex.c ****   *         BOR_LEV(Bit8-10), nRST_STOP(Bit12), nRST_STDBY(Bit13), IWDG_SW(Bit16),
 793:Drivers/STM32L4xx_HAL_Driver/Src/stm32l4xx_hal_flash_ex.c ****   *         IWDG_STOP(Bit17), IWDG_STDBY(Bit18), WWDG_SW(Bit19), BFB2(Bit20), 
 794:Drivers/STM32L4xx_HAL_Driver/Src/stm32l4xx_hal_flash_ex.c ****   *         DUALBANK(Bit21), nBOOT1(Bit23), SRAM2_PE(Bit24) and SRAM2_RST(Bit25). 
 795:Drivers/STM32L4xx_HAL_Driver/Src/stm32l4xx_hal_flash_ex.c ****   *   
 796:Drivers/STM32L4xx_HAL_Driver/Src/stm32l4xx_hal_flash_ex.c ****   * @retval HAL status
 797:Drivers/STM32L4xx_HAL_Driver/Src/stm32l4xx_hal_flash_ex.c ****   */
 798:Drivers/STM32L4xx_HAL_Driver/Src/stm32l4xx_hal_flash_ex.c **** static HAL_StatusTypeDef FLASH_OB_UserConfig(uint32_t UserType, uint32_t UserConfig)
 799:Drivers/STM32L4xx_HAL_Driver/Src/stm32l4xx_hal_flash_ex.c **** {
 800:Drivers/STM32L4xx_HAL_Driver/Src/stm32l4xx_hal_flash_ex.c ****   uint32_t optr_reg_val = 0;
 801:Drivers/STM32L4xx_HAL_Driver/Src/stm32l4xx_hal_flash_ex.c ****   uint32_t optr_reg_mask = 0;
 802:Drivers/STM32L4xx_HAL_Driver/Src/stm32l4xx_hal_flash_ex.c ****   HAL_StatusTypeDef status;
 803:Drivers/STM32L4xx_HAL_Driver/Src/stm32l4xx_hal_flash_ex.c **** 
 804:Drivers/STM32L4xx_HAL_Driver/Src/stm32l4xx_hal_flash_ex.c ****   /* Check the parameters */
 805:Drivers/STM32L4xx_HAL_Driver/Src/stm32l4xx_hal_flash_ex.c ****   assert_param(IS_OB_USER_TYPE(UserType));
 806:Drivers/STM32L4xx_HAL_Driver/Src/stm32l4xx_hal_flash_ex.c ****   
 807:Drivers/STM32L4xx_HAL_Driver/Src/stm32l4xx_hal_flash_ex.c ****   /* Wait for last operation to be completed */
 808:Drivers/STM32L4xx_HAL_Driver/Src/stm32l4xx_hal_flash_ex.c ****   status = FLASH_WaitForLastOperation((uint32_t)FLASH_TIMEOUT_VALUE);
 809:Drivers/STM32L4xx_HAL_Driver/Src/stm32l4xx_hal_flash_ex.c **** 
 810:Drivers/STM32L4xx_HAL_Driver/Src/stm32l4xx_hal_flash_ex.c ****   if(status == HAL_OK)
 811:Drivers/STM32L4xx_HAL_Driver/Src/stm32l4xx_hal_flash_ex.c ****   { 
 812:Drivers/STM32L4xx_HAL_Driver/Src/stm32l4xx_hal_flash_ex.c ****     if((UserType & OB_USER_BOR_LEV) != 0U)
 813:Drivers/STM32L4xx_HAL_Driver/Src/stm32l4xx_hal_flash_ex.c ****     {
 814:Drivers/STM32L4xx_HAL_Driver/Src/stm32l4xx_hal_flash_ex.c ****       /* BOR level option byte should be modified */
 815:Drivers/STM32L4xx_HAL_Driver/Src/stm32l4xx_hal_flash_ex.c ****       assert_param(IS_OB_USER_BOR_LEVEL(UserConfig & FLASH_OPTR_BOR_LEV));
 816:Drivers/STM32L4xx_HAL_Driver/Src/stm32l4xx_hal_flash_ex.c ****     
 817:Drivers/STM32L4xx_HAL_Driver/Src/stm32l4xx_hal_flash_ex.c ****       /* Set value and mask for BOR level option byte */
 818:Drivers/STM32L4xx_HAL_Driver/Src/stm32l4xx_hal_flash_ex.c ****       optr_reg_val |= (UserConfig & FLASH_OPTR_BOR_LEV);
 819:Drivers/STM32L4xx_HAL_Driver/Src/stm32l4xx_hal_flash_ex.c ****       optr_reg_mask |= FLASH_OPTR_BOR_LEV;
 820:Drivers/STM32L4xx_HAL_Driver/Src/stm32l4xx_hal_flash_ex.c ****     }
 821:Drivers/STM32L4xx_HAL_Driver/Src/stm32l4xx_hal_flash_ex.c **** 
 822:Drivers/STM32L4xx_HAL_Driver/Src/stm32l4xx_hal_flash_ex.c ****     if((UserType & OB_USER_nRST_STOP) != 0U)
 823:Drivers/STM32L4xx_HAL_Driver/Src/stm32l4xx_hal_flash_ex.c ****     {
 824:Drivers/STM32L4xx_HAL_Driver/Src/stm32l4xx_hal_flash_ex.c ****       /* nRST_STOP option byte should be modified */
 825:Drivers/STM32L4xx_HAL_Driver/Src/stm32l4xx_hal_flash_ex.c ****       assert_param(IS_OB_USER_STOP(UserConfig & FLASH_OPTR_nRST_STOP));
 826:Drivers/STM32L4xx_HAL_Driver/Src/stm32l4xx_hal_flash_ex.c ****     
 827:Drivers/STM32L4xx_HAL_Driver/Src/stm32l4xx_hal_flash_ex.c ****       /* Set value and mask for nRST_STOP option byte */
 828:Drivers/STM32L4xx_HAL_Driver/Src/stm32l4xx_hal_flash_ex.c ****       optr_reg_val |= (UserConfig & FLASH_OPTR_nRST_STOP);
 829:Drivers/STM32L4xx_HAL_Driver/Src/stm32l4xx_hal_flash_ex.c ****       optr_reg_mask |= FLASH_OPTR_nRST_STOP;
 830:Drivers/STM32L4xx_HAL_Driver/Src/stm32l4xx_hal_flash_ex.c ****     }
 831:Drivers/STM32L4xx_HAL_Driver/Src/stm32l4xx_hal_flash_ex.c **** 
 832:Drivers/STM32L4xx_HAL_Driver/Src/stm32l4xx_hal_flash_ex.c ****     if((UserType & OB_USER_nRST_STDBY) != 0U)
 833:Drivers/STM32L4xx_HAL_Driver/Src/stm32l4xx_hal_flash_ex.c ****     {
 834:Drivers/STM32L4xx_HAL_Driver/Src/stm32l4xx_hal_flash_ex.c ****       /* nRST_STDBY option byte should be modified */
 835:Drivers/STM32L4xx_HAL_Driver/Src/stm32l4xx_hal_flash_ex.c ****       assert_param(IS_OB_USER_STANDBY(UserConfig & FLASH_OPTR_nRST_STDBY));
 836:Drivers/STM32L4xx_HAL_Driver/Src/stm32l4xx_hal_flash_ex.c ****     
 837:Drivers/STM32L4xx_HAL_Driver/Src/stm32l4xx_hal_flash_ex.c ****       /* Set value and mask for nRST_STDBY option byte */
 838:Drivers/STM32L4xx_HAL_Driver/Src/stm32l4xx_hal_flash_ex.c ****       optr_reg_val |= (UserConfig & FLASH_OPTR_nRST_STDBY);
 839:Drivers/STM32L4xx_HAL_Driver/Src/stm32l4xx_hal_flash_ex.c ****       optr_reg_mask |= FLASH_OPTR_nRST_STDBY;
 840:Drivers/STM32L4xx_HAL_Driver/Src/stm32l4xx_hal_flash_ex.c ****     }
 841:Drivers/STM32L4xx_HAL_Driver/Src/stm32l4xx_hal_flash_ex.c **** 
 842:Drivers/STM32L4xx_HAL_Driver/Src/stm32l4xx_hal_flash_ex.c ****     if((UserType & OB_USER_nRST_SHDW) != 0U)
 843:Drivers/STM32L4xx_HAL_Driver/Src/stm32l4xx_hal_flash_ex.c ****     {
 844:Drivers/STM32L4xx_HAL_Driver/Src/stm32l4xx_hal_flash_ex.c ****       /* nRST_SHDW option byte should be modified */
 845:Drivers/STM32L4xx_HAL_Driver/Src/stm32l4xx_hal_flash_ex.c ****       assert_param(IS_OB_USER_SHUTDOWN(UserConfig & FLASH_OPTR_nRST_SHDW));
 846:Drivers/STM32L4xx_HAL_Driver/Src/stm32l4xx_hal_flash_ex.c ****     
 847:Drivers/STM32L4xx_HAL_Driver/Src/stm32l4xx_hal_flash_ex.c ****       /* Set value and mask for nRST_SHDW option byte */
ARM GAS  /tmp/ccWeCwHW.s 			page 17


 848:Drivers/STM32L4xx_HAL_Driver/Src/stm32l4xx_hal_flash_ex.c ****       optr_reg_val |= (UserConfig & FLASH_OPTR_nRST_SHDW);
 849:Drivers/STM32L4xx_HAL_Driver/Src/stm32l4xx_hal_flash_ex.c ****       optr_reg_mask |= FLASH_OPTR_nRST_SHDW;
 850:Drivers/STM32L4xx_HAL_Driver/Src/stm32l4xx_hal_flash_ex.c ****     }
 851:Drivers/STM32L4xx_HAL_Driver/Src/stm32l4xx_hal_flash_ex.c **** 
 852:Drivers/STM32L4xx_HAL_Driver/Src/stm32l4xx_hal_flash_ex.c ****     if((UserType & OB_USER_IWDG_SW) != 0U)
 853:Drivers/STM32L4xx_HAL_Driver/Src/stm32l4xx_hal_flash_ex.c ****     {
 854:Drivers/STM32L4xx_HAL_Driver/Src/stm32l4xx_hal_flash_ex.c ****       /* IWDG_SW option byte should be modified */
 855:Drivers/STM32L4xx_HAL_Driver/Src/stm32l4xx_hal_flash_ex.c ****       assert_param(IS_OB_USER_IWDG(UserConfig & FLASH_OPTR_IWDG_SW));
 856:Drivers/STM32L4xx_HAL_Driver/Src/stm32l4xx_hal_flash_ex.c ****     
 857:Drivers/STM32L4xx_HAL_Driver/Src/stm32l4xx_hal_flash_ex.c ****       /* Set value and mask for IWDG_SW option byte */
 858:Drivers/STM32L4xx_HAL_Driver/Src/stm32l4xx_hal_flash_ex.c ****       optr_reg_val |= (UserConfig & FLASH_OPTR_IWDG_SW);
 859:Drivers/STM32L4xx_HAL_Driver/Src/stm32l4xx_hal_flash_ex.c ****       optr_reg_mask |= FLASH_OPTR_IWDG_SW;
 860:Drivers/STM32L4xx_HAL_Driver/Src/stm32l4xx_hal_flash_ex.c ****     }
 861:Drivers/STM32L4xx_HAL_Driver/Src/stm32l4xx_hal_flash_ex.c **** 
 862:Drivers/STM32L4xx_HAL_Driver/Src/stm32l4xx_hal_flash_ex.c ****     if((UserType & OB_USER_IWDG_STOP) != 0U)
 863:Drivers/STM32L4xx_HAL_Driver/Src/stm32l4xx_hal_flash_ex.c ****     {
 864:Drivers/STM32L4xx_HAL_Driver/Src/stm32l4xx_hal_flash_ex.c ****       /* IWDG_STOP option byte should be modified */
 865:Drivers/STM32L4xx_HAL_Driver/Src/stm32l4xx_hal_flash_ex.c ****       assert_param(IS_OB_USER_IWDG_STOP(UserConfig & FLASH_OPTR_IWDG_STOP));
 866:Drivers/STM32L4xx_HAL_Driver/Src/stm32l4xx_hal_flash_ex.c ****     
 867:Drivers/STM32L4xx_HAL_Driver/Src/stm32l4xx_hal_flash_ex.c ****       /* Set value and mask for IWDG_STOP option byte */
 868:Drivers/STM32L4xx_HAL_Driver/Src/stm32l4xx_hal_flash_ex.c ****       optr_reg_val |= (UserConfig & FLASH_OPTR_IWDG_STOP);
 869:Drivers/STM32L4xx_HAL_Driver/Src/stm32l4xx_hal_flash_ex.c ****       optr_reg_mask |= FLASH_OPTR_IWDG_STOP;
 870:Drivers/STM32L4xx_HAL_Driver/Src/stm32l4xx_hal_flash_ex.c ****     }
 871:Drivers/STM32L4xx_HAL_Driver/Src/stm32l4xx_hal_flash_ex.c **** 
 872:Drivers/STM32L4xx_HAL_Driver/Src/stm32l4xx_hal_flash_ex.c ****     if((UserType & OB_USER_IWDG_STDBY) != 0U)
 873:Drivers/STM32L4xx_HAL_Driver/Src/stm32l4xx_hal_flash_ex.c ****     {
 874:Drivers/STM32L4xx_HAL_Driver/Src/stm32l4xx_hal_flash_ex.c ****       /* IWDG_STDBY option byte should be modified */
 875:Drivers/STM32L4xx_HAL_Driver/Src/stm32l4xx_hal_flash_ex.c ****       assert_param(IS_OB_USER_IWDG_STDBY(UserConfig & FLASH_OPTR_IWDG_STDBY));
 876:Drivers/STM32L4xx_HAL_Driver/Src/stm32l4xx_hal_flash_ex.c ****     
 877:Drivers/STM32L4xx_HAL_Driver/Src/stm32l4xx_hal_flash_ex.c ****       /* Set value and mask for IWDG_STDBY option byte */
 878:Drivers/STM32L4xx_HAL_Driver/Src/stm32l4xx_hal_flash_ex.c ****       optr_reg_val |= (UserConfig & FLASH_OPTR_IWDG_STDBY);
 879:Drivers/STM32L4xx_HAL_Driver/Src/stm32l4xx_hal_flash_ex.c ****       optr_reg_mask |= FLASH_OPTR_IWDG_STDBY;
 880:Drivers/STM32L4xx_HAL_Driver/Src/stm32l4xx_hal_flash_ex.c ****     }
 881:Drivers/STM32L4xx_HAL_Driver/Src/stm32l4xx_hal_flash_ex.c **** 
 882:Drivers/STM32L4xx_HAL_Driver/Src/stm32l4xx_hal_flash_ex.c ****     if((UserType & OB_USER_WWDG_SW) != 0U)
 883:Drivers/STM32L4xx_HAL_Driver/Src/stm32l4xx_hal_flash_ex.c ****     {
 884:Drivers/STM32L4xx_HAL_Driver/Src/stm32l4xx_hal_flash_ex.c ****       /* WWDG_SW option byte should be modified */
 885:Drivers/STM32L4xx_HAL_Driver/Src/stm32l4xx_hal_flash_ex.c ****       assert_param(IS_OB_USER_WWDG(UserConfig & FLASH_OPTR_WWDG_SW));
 886:Drivers/STM32L4xx_HAL_Driver/Src/stm32l4xx_hal_flash_ex.c ****     
 887:Drivers/STM32L4xx_HAL_Driver/Src/stm32l4xx_hal_flash_ex.c ****       /* Set value and mask for WWDG_SW option byte */
 888:Drivers/STM32L4xx_HAL_Driver/Src/stm32l4xx_hal_flash_ex.c ****       optr_reg_val |= (UserConfig & FLASH_OPTR_WWDG_SW);
 889:Drivers/STM32L4xx_HAL_Driver/Src/stm32l4xx_hal_flash_ex.c ****       optr_reg_mask |= FLASH_OPTR_WWDG_SW;
 890:Drivers/STM32L4xx_HAL_Driver/Src/stm32l4xx_hal_flash_ex.c ****     }
 891:Drivers/STM32L4xx_HAL_Driver/Src/stm32l4xx_hal_flash_ex.c **** 
 892:Drivers/STM32L4xx_HAL_Driver/Src/stm32l4xx_hal_flash_ex.c **** #if defined (STM32L471xx) || defined (STM32L475xx) || defined (STM32L476xx) || defined (STM32L485xx
 893:Drivers/STM32L4xx_HAL_Driver/Src/stm32l4xx_hal_flash_ex.c ****     defined (STM32L496xx) || defined (STM32L4A6xx) || \
 894:Drivers/STM32L4xx_HAL_Driver/Src/stm32l4xx_hal_flash_ex.c ****     defined (STM32L4R5xx) || defined (STM32L4R7xx) || defined (STM32L4R9xx) || defined (STM32L4S5xx
 895:Drivers/STM32L4xx_HAL_Driver/Src/stm32l4xx_hal_flash_ex.c ****     if((UserType & OB_USER_BFB2) != 0U)
 896:Drivers/STM32L4xx_HAL_Driver/Src/stm32l4xx_hal_flash_ex.c ****     {
 897:Drivers/STM32L4xx_HAL_Driver/Src/stm32l4xx_hal_flash_ex.c ****       /* BFB2 option byte should be modified */
 898:Drivers/STM32L4xx_HAL_Driver/Src/stm32l4xx_hal_flash_ex.c ****       assert_param(IS_OB_USER_BFB2(UserConfig & FLASH_OPTR_BFB2));
 899:Drivers/STM32L4xx_HAL_Driver/Src/stm32l4xx_hal_flash_ex.c ****     
 900:Drivers/STM32L4xx_HAL_Driver/Src/stm32l4xx_hal_flash_ex.c ****       /* Set value and mask for BFB2 option byte */
 901:Drivers/STM32L4xx_HAL_Driver/Src/stm32l4xx_hal_flash_ex.c ****       optr_reg_val |= (UserConfig & FLASH_OPTR_BFB2);
 902:Drivers/STM32L4xx_HAL_Driver/Src/stm32l4xx_hal_flash_ex.c ****       optr_reg_mask |= FLASH_OPTR_BFB2;
 903:Drivers/STM32L4xx_HAL_Driver/Src/stm32l4xx_hal_flash_ex.c ****     }
 904:Drivers/STM32L4xx_HAL_Driver/Src/stm32l4xx_hal_flash_ex.c **** 
ARM GAS  /tmp/ccWeCwHW.s 			page 18


 905:Drivers/STM32L4xx_HAL_Driver/Src/stm32l4xx_hal_flash_ex.c ****     if((UserType & OB_USER_DUALBANK) != 0U)
 906:Drivers/STM32L4xx_HAL_Driver/Src/stm32l4xx_hal_flash_ex.c ****     {
 907:Drivers/STM32L4xx_HAL_Driver/Src/stm32l4xx_hal_flash_ex.c **** #if defined (STM32L4R5xx) || defined (STM32L4R7xx) || defined (STM32L4R9xx) || defined (STM32L4S5xx
 908:Drivers/STM32L4xx_HAL_Driver/Src/stm32l4xx_hal_flash_ex.c ****       /* DUALBANK option byte should be modified */
 909:Drivers/STM32L4xx_HAL_Driver/Src/stm32l4xx_hal_flash_ex.c ****       assert_param(IS_OB_USER_DUALBANK(UserConfig & FLASH_OPTR_DB1M));
 910:Drivers/STM32L4xx_HAL_Driver/Src/stm32l4xx_hal_flash_ex.c ****     
 911:Drivers/STM32L4xx_HAL_Driver/Src/stm32l4xx_hal_flash_ex.c ****       /* Set value and mask for DUALBANK option byte */
 912:Drivers/STM32L4xx_HAL_Driver/Src/stm32l4xx_hal_flash_ex.c ****       optr_reg_val |= (UserConfig & FLASH_OPTR_DB1M);
 913:Drivers/STM32L4xx_HAL_Driver/Src/stm32l4xx_hal_flash_ex.c ****       optr_reg_mask |= FLASH_OPTR_DB1M;
 914:Drivers/STM32L4xx_HAL_Driver/Src/stm32l4xx_hal_flash_ex.c **** #else
 915:Drivers/STM32L4xx_HAL_Driver/Src/stm32l4xx_hal_flash_ex.c ****       /* DUALBANK option byte should be modified */
 916:Drivers/STM32L4xx_HAL_Driver/Src/stm32l4xx_hal_flash_ex.c ****       assert_param(IS_OB_USER_DUALBANK(UserConfig & FLASH_OPTR_DUALBANK));
 917:Drivers/STM32L4xx_HAL_Driver/Src/stm32l4xx_hal_flash_ex.c ****     
 918:Drivers/STM32L4xx_HAL_Driver/Src/stm32l4xx_hal_flash_ex.c ****       /* Set value and mask for DUALBANK option byte */
 919:Drivers/STM32L4xx_HAL_Driver/Src/stm32l4xx_hal_flash_ex.c ****       optr_reg_val |= (UserConfig & FLASH_OPTR_DUALBANK);
 920:Drivers/STM32L4xx_HAL_Driver/Src/stm32l4xx_hal_flash_ex.c ****       optr_reg_mask |= FLASH_OPTR_DUALBANK;
 921:Drivers/STM32L4xx_HAL_Driver/Src/stm32l4xx_hal_flash_ex.c **** #endif
 922:Drivers/STM32L4xx_HAL_Driver/Src/stm32l4xx_hal_flash_ex.c ****     }
 923:Drivers/STM32L4xx_HAL_Driver/Src/stm32l4xx_hal_flash_ex.c **** #endif
 924:Drivers/STM32L4xx_HAL_Driver/Src/stm32l4xx_hal_flash_ex.c ****     
 925:Drivers/STM32L4xx_HAL_Driver/Src/stm32l4xx_hal_flash_ex.c ****     if((UserType & OB_USER_nBOOT1) != 0U)
 926:Drivers/STM32L4xx_HAL_Driver/Src/stm32l4xx_hal_flash_ex.c ****     {
 927:Drivers/STM32L4xx_HAL_Driver/Src/stm32l4xx_hal_flash_ex.c ****       /* nBOOT1 option byte should be modified */
 928:Drivers/STM32L4xx_HAL_Driver/Src/stm32l4xx_hal_flash_ex.c ****       assert_param(IS_OB_USER_BOOT1(UserConfig & FLASH_OPTR_nBOOT1));
 929:Drivers/STM32L4xx_HAL_Driver/Src/stm32l4xx_hal_flash_ex.c ****     
 930:Drivers/STM32L4xx_HAL_Driver/Src/stm32l4xx_hal_flash_ex.c ****       /* Set value and mask for nBOOT1 option byte */
 931:Drivers/STM32L4xx_HAL_Driver/Src/stm32l4xx_hal_flash_ex.c ****       optr_reg_val |= (UserConfig & FLASH_OPTR_nBOOT1);
 932:Drivers/STM32L4xx_HAL_Driver/Src/stm32l4xx_hal_flash_ex.c ****       optr_reg_mask |= FLASH_OPTR_nBOOT1;
 933:Drivers/STM32L4xx_HAL_Driver/Src/stm32l4xx_hal_flash_ex.c ****     }
 934:Drivers/STM32L4xx_HAL_Driver/Src/stm32l4xx_hal_flash_ex.c **** 
 935:Drivers/STM32L4xx_HAL_Driver/Src/stm32l4xx_hal_flash_ex.c ****     if((UserType & OB_USER_SRAM2_PE) != 0U)
 936:Drivers/STM32L4xx_HAL_Driver/Src/stm32l4xx_hal_flash_ex.c ****     {
 937:Drivers/STM32L4xx_HAL_Driver/Src/stm32l4xx_hal_flash_ex.c ****       /* SRAM2_PE option byte should be modified */
 938:Drivers/STM32L4xx_HAL_Driver/Src/stm32l4xx_hal_flash_ex.c ****       assert_param(IS_OB_USER_SRAM2_PARITY(UserConfig & FLASH_OPTR_SRAM2_PE));
 939:Drivers/STM32L4xx_HAL_Driver/Src/stm32l4xx_hal_flash_ex.c ****     
 940:Drivers/STM32L4xx_HAL_Driver/Src/stm32l4xx_hal_flash_ex.c ****       /* Set value and mask for SRAM2_PE option byte */
 941:Drivers/STM32L4xx_HAL_Driver/Src/stm32l4xx_hal_flash_ex.c ****       optr_reg_val |= (UserConfig & FLASH_OPTR_SRAM2_PE);
 942:Drivers/STM32L4xx_HAL_Driver/Src/stm32l4xx_hal_flash_ex.c ****       optr_reg_mask |= FLASH_OPTR_SRAM2_PE;
 943:Drivers/STM32L4xx_HAL_Driver/Src/stm32l4xx_hal_flash_ex.c ****     }
 944:Drivers/STM32L4xx_HAL_Driver/Src/stm32l4xx_hal_flash_ex.c **** 
 945:Drivers/STM32L4xx_HAL_Driver/Src/stm32l4xx_hal_flash_ex.c ****     if((UserType & OB_USER_SRAM2_RST) != 0U)
 946:Drivers/STM32L4xx_HAL_Driver/Src/stm32l4xx_hal_flash_ex.c ****     {
 947:Drivers/STM32L4xx_HAL_Driver/Src/stm32l4xx_hal_flash_ex.c ****       /* SRAM2_RST option byte should be modified */
 948:Drivers/STM32L4xx_HAL_Driver/Src/stm32l4xx_hal_flash_ex.c ****       assert_param(IS_OB_USER_SRAM2_RST(UserConfig & FLASH_OPTR_SRAM2_RST));
 949:Drivers/STM32L4xx_HAL_Driver/Src/stm32l4xx_hal_flash_ex.c ****     
 950:Drivers/STM32L4xx_HAL_Driver/Src/stm32l4xx_hal_flash_ex.c ****       /* Set value and mask for SRAM2_RST option byte */
 951:Drivers/STM32L4xx_HAL_Driver/Src/stm32l4xx_hal_flash_ex.c ****       optr_reg_val |= (UserConfig & FLASH_OPTR_SRAM2_RST);
 952:Drivers/STM32L4xx_HAL_Driver/Src/stm32l4xx_hal_flash_ex.c ****       optr_reg_mask |= FLASH_OPTR_SRAM2_RST;
 953:Drivers/STM32L4xx_HAL_Driver/Src/stm32l4xx_hal_flash_ex.c ****     }
 954:Drivers/STM32L4xx_HAL_Driver/Src/stm32l4xx_hal_flash_ex.c **** 
 955:Drivers/STM32L4xx_HAL_Driver/Src/stm32l4xx_hal_flash_ex.c **** #if defined (STM32L412xx) || defined (STM32L422xx) || defined (STM32L431xx) || defined (STM32L432xx
 956:Drivers/STM32L4xx_HAL_Driver/Src/stm32l4xx_hal_flash_ex.c ****     defined (STM32L442xx) || defined (STM32L443xx) || defined (STM32L451xx) || defined (STM32L452xx
 957:Drivers/STM32L4xx_HAL_Driver/Src/stm32l4xx_hal_flash_ex.c ****     defined (STM32L496xx) || defined (STM32L4A6xx) || \
 958:Drivers/STM32L4xx_HAL_Driver/Src/stm32l4xx_hal_flash_ex.c ****     defined (STM32L4R5xx) || defined (STM32L4R7xx) || defined (STM32L4R9xx) || defined (STM32L4S5xx
 959:Drivers/STM32L4xx_HAL_Driver/Src/stm32l4xx_hal_flash_ex.c ****     if((UserType & OB_USER_nSWBOOT0) != 0U)
 960:Drivers/STM32L4xx_HAL_Driver/Src/stm32l4xx_hal_flash_ex.c ****     {
 961:Drivers/STM32L4xx_HAL_Driver/Src/stm32l4xx_hal_flash_ex.c ****       /* nSWBOOT0 option byte should be modified */
ARM GAS  /tmp/ccWeCwHW.s 			page 19


 962:Drivers/STM32L4xx_HAL_Driver/Src/stm32l4xx_hal_flash_ex.c ****       assert_param(IS_OB_USER_SWBOOT0(UserConfig & FLASH_OPTR_nSWBOOT0));
 963:Drivers/STM32L4xx_HAL_Driver/Src/stm32l4xx_hal_flash_ex.c ****     
 964:Drivers/STM32L4xx_HAL_Driver/Src/stm32l4xx_hal_flash_ex.c ****       /* Set value and mask for nSWBOOT0 option byte */
 965:Drivers/STM32L4xx_HAL_Driver/Src/stm32l4xx_hal_flash_ex.c ****       optr_reg_val |= (UserConfig & FLASH_OPTR_nSWBOOT0);
 966:Drivers/STM32L4xx_HAL_Driver/Src/stm32l4xx_hal_flash_ex.c ****       optr_reg_mask |= FLASH_OPTR_nSWBOOT0;
 967:Drivers/STM32L4xx_HAL_Driver/Src/stm32l4xx_hal_flash_ex.c ****     }
 968:Drivers/STM32L4xx_HAL_Driver/Src/stm32l4xx_hal_flash_ex.c **** 
 969:Drivers/STM32L4xx_HAL_Driver/Src/stm32l4xx_hal_flash_ex.c ****     if((UserType & OB_USER_nBOOT0) != 0U)
 970:Drivers/STM32L4xx_HAL_Driver/Src/stm32l4xx_hal_flash_ex.c ****     {
 971:Drivers/STM32L4xx_HAL_Driver/Src/stm32l4xx_hal_flash_ex.c ****       /* nBOOT0 option byte should be modified */
 972:Drivers/STM32L4xx_HAL_Driver/Src/stm32l4xx_hal_flash_ex.c ****       assert_param(IS_OB_USER_BOOT0(UserConfig & FLASH_OPTR_nBOOT0));
 973:Drivers/STM32L4xx_HAL_Driver/Src/stm32l4xx_hal_flash_ex.c ****     
 974:Drivers/STM32L4xx_HAL_Driver/Src/stm32l4xx_hal_flash_ex.c ****       /* Set value and mask for nBOOT0 option byte */
 975:Drivers/STM32L4xx_HAL_Driver/Src/stm32l4xx_hal_flash_ex.c ****       optr_reg_val |= (UserConfig & FLASH_OPTR_nBOOT0);
 976:Drivers/STM32L4xx_HAL_Driver/Src/stm32l4xx_hal_flash_ex.c ****       optr_reg_mask |= FLASH_OPTR_nBOOT0;
 977:Drivers/STM32L4xx_HAL_Driver/Src/stm32l4xx_hal_flash_ex.c ****     }
 978:Drivers/STM32L4xx_HAL_Driver/Src/stm32l4xx_hal_flash_ex.c **** #endif
 979:Drivers/STM32L4xx_HAL_Driver/Src/stm32l4xx_hal_flash_ex.c ****     
 980:Drivers/STM32L4xx_HAL_Driver/Src/stm32l4xx_hal_flash_ex.c ****     /* Configure the option bytes register */
 981:Drivers/STM32L4xx_HAL_Driver/Src/stm32l4xx_hal_flash_ex.c ****     MODIFY_REG(FLASH->OPTR, optr_reg_mask, optr_reg_val);
 982:Drivers/STM32L4xx_HAL_Driver/Src/stm32l4xx_hal_flash_ex.c ****     
 983:Drivers/STM32L4xx_HAL_Driver/Src/stm32l4xx_hal_flash_ex.c ****     /* Set OPTSTRT Bit */
 984:Drivers/STM32L4xx_HAL_Driver/Src/stm32l4xx_hal_flash_ex.c ****     SET_BIT(FLASH->CR, FLASH_CR_OPTSTRT);
 985:Drivers/STM32L4xx_HAL_Driver/Src/stm32l4xx_hal_flash_ex.c ****     
 986:Drivers/STM32L4xx_HAL_Driver/Src/stm32l4xx_hal_flash_ex.c ****     /* Wait for last operation to be completed */
 987:Drivers/STM32L4xx_HAL_Driver/Src/stm32l4xx_hal_flash_ex.c ****     status = FLASH_WaitForLastOperation((uint32_t)FLASH_TIMEOUT_VALUE);
 988:Drivers/STM32L4xx_HAL_Driver/Src/stm32l4xx_hal_flash_ex.c **** 
 989:Drivers/STM32L4xx_HAL_Driver/Src/stm32l4xx_hal_flash_ex.c ****     /* If the option byte program operation is completed, disable the OPTSTRT Bit */
 990:Drivers/STM32L4xx_HAL_Driver/Src/stm32l4xx_hal_flash_ex.c ****     CLEAR_BIT(FLASH->CR, FLASH_CR_OPTSTRT);
 991:Drivers/STM32L4xx_HAL_Driver/Src/stm32l4xx_hal_flash_ex.c ****   }
 992:Drivers/STM32L4xx_HAL_Driver/Src/stm32l4xx_hal_flash_ex.c **** 
 993:Drivers/STM32L4xx_HAL_Driver/Src/stm32l4xx_hal_flash_ex.c ****   return status;            
 994:Drivers/STM32L4xx_HAL_Driver/Src/stm32l4xx_hal_flash_ex.c **** }
 995:Drivers/STM32L4xx_HAL_Driver/Src/stm32l4xx_hal_flash_ex.c **** 
 996:Drivers/STM32L4xx_HAL_Driver/Src/stm32l4xx_hal_flash_ex.c **** /**
 997:Drivers/STM32L4xx_HAL_Driver/Src/stm32l4xx_hal_flash_ex.c ****   * @brief  Configure the Proprietary code readout protection of the desired addresses.
 998:Drivers/STM32L4xx_HAL_Driver/Src/stm32l4xx_hal_flash_ex.c ****   *
 999:Drivers/STM32L4xx_HAL_Driver/Src/stm32l4xx_hal_flash_ex.c ****   * @note   To configure the PCROP options, the option lock bit OPTLOCK must be 
1000:Drivers/STM32L4xx_HAL_Driver/Src/stm32l4xx_hal_flash_ex.c ****   *         cleared with the call of the HAL_FLASH_OB_Unlock() function.
1001:Drivers/STM32L4xx_HAL_Driver/Src/stm32l4xx_hal_flash_ex.c ****   * @note   To validate the PCROP options, the option bytes must be reloaded 
1002:Drivers/STM32L4xx_HAL_Driver/Src/stm32l4xx_hal_flash_ex.c ****   *         through the call of the HAL_FLASH_OB_Launch() function.
1003:Drivers/STM32L4xx_HAL_Driver/Src/stm32l4xx_hal_flash_ex.c ****   *
1004:Drivers/STM32L4xx_HAL_Driver/Src/stm32l4xx_hal_flash_ex.c ****   * @param  PCROPConfig: specifies the configuration (Bank to be configured and PCROP_RDP option).
1005:Drivers/STM32L4xx_HAL_Driver/Src/stm32l4xx_hal_flash_ex.c ****   *          This parameter must be a combination of FLASH_BANK_1 or FLASH_BANK_2 
1006:Drivers/STM32L4xx_HAL_Driver/Src/stm32l4xx_hal_flash_ex.c ****   *          with OB_PCROP_RDP_NOT_ERASE or OB_PCROP_RDP_ERASE
1007:Drivers/STM32L4xx_HAL_Driver/Src/stm32l4xx_hal_flash_ex.c ****   *
1008:Drivers/STM32L4xx_HAL_Driver/Src/stm32l4xx_hal_flash_ex.c ****   * @param  PCROPStartAddr: specifies the start address of the Proprietary code readout protection
1009:Drivers/STM32L4xx_HAL_Driver/Src/stm32l4xx_hal_flash_ex.c ****   *          This parameter can be an address between begin and end of the bank 
1010:Drivers/STM32L4xx_HAL_Driver/Src/stm32l4xx_hal_flash_ex.c ****   *
1011:Drivers/STM32L4xx_HAL_Driver/Src/stm32l4xx_hal_flash_ex.c ****   * @param  PCROPEndAddr: specifies the end address of the Proprietary code readout protection
1012:Drivers/STM32L4xx_HAL_Driver/Src/stm32l4xx_hal_flash_ex.c ****   *          This parameter can be an address between PCROPStartAddr and end of the bank 
1013:Drivers/STM32L4xx_HAL_Driver/Src/stm32l4xx_hal_flash_ex.c ****   *
1014:Drivers/STM32L4xx_HAL_Driver/Src/stm32l4xx_hal_flash_ex.c ****   * @retval HAL Status
1015:Drivers/STM32L4xx_HAL_Driver/Src/stm32l4xx_hal_flash_ex.c ****   */
1016:Drivers/STM32L4xx_HAL_Driver/Src/stm32l4xx_hal_flash_ex.c **** static HAL_StatusTypeDef FLASH_OB_PCROPConfig(uint32_t PCROPConfig, uint32_t PCROPStartAddr, uint32
1017:Drivers/STM32L4xx_HAL_Driver/Src/stm32l4xx_hal_flash_ex.c **** {
1018:Drivers/STM32L4xx_HAL_Driver/Src/stm32l4xx_hal_flash_ex.c ****   HAL_StatusTypeDef status;
ARM GAS  /tmp/ccWeCwHW.s 			page 20


1019:Drivers/STM32L4xx_HAL_Driver/Src/stm32l4xx_hal_flash_ex.c ****   uint32_t reg_value;
1020:Drivers/STM32L4xx_HAL_Driver/Src/stm32l4xx_hal_flash_ex.c ****   uint32_t bank1_addr;
1021:Drivers/STM32L4xx_HAL_Driver/Src/stm32l4xx_hal_flash_ex.c **** #if defined (STM32L471xx) || defined (STM32L475xx) || defined (STM32L476xx) || defined (STM32L485xx
1022:Drivers/STM32L4xx_HAL_Driver/Src/stm32l4xx_hal_flash_ex.c ****     defined (STM32L496xx) || defined (STM32L4A6xx) || \
1023:Drivers/STM32L4xx_HAL_Driver/Src/stm32l4xx_hal_flash_ex.c ****     defined (STM32L4R5xx) || defined (STM32L4R7xx) || defined (STM32L4R9xx) || defined (STM32L4S5xx
1024:Drivers/STM32L4xx_HAL_Driver/Src/stm32l4xx_hal_flash_ex.c ****   uint32_t bank2_addr;
1025:Drivers/STM32L4xx_HAL_Driver/Src/stm32l4xx_hal_flash_ex.c **** #endif
1026:Drivers/STM32L4xx_HAL_Driver/Src/stm32l4xx_hal_flash_ex.c **** 
1027:Drivers/STM32L4xx_HAL_Driver/Src/stm32l4xx_hal_flash_ex.c ****   /* Check the parameters */
1028:Drivers/STM32L4xx_HAL_Driver/Src/stm32l4xx_hal_flash_ex.c ****   assert_param(IS_FLASH_BANK_EXCLUSIVE(PCROPConfig & FLASH_BANK_BOTH));
1029:Drivers/STM32L4xx_HAL_Driver/Src/stm32l4xx_hal_flash_ex.c ****   assert_param(IS_OB_PCROP_RDP(PCROPConfig & FLASH_PCROP1ER_PCROP_RDP));
1030:Drivers/STM32L4xx_HAL_Driver/Src/stm32l4xx_hal_flash_ex.c ****   assert_param(IS_FLASH_MAIN_MEM_ADDRESS(PCROPStartAddr));
1031:Drivers/STM32L4xx_HAL_Driver/Src/stm32l4xx_hal_flash_ex.c ****   assert_param(IS_FLASH_MAIN_MEM_ADDRESS(PCROPEndAddr));
1032:Drivers/STM32L4xx_HAL_Driver/Src/stm32l4xx_hal_flash_ex.c **** 
1033:Drivers/STM32L4xx_HAL_Driver/Src/stm32l4xx_hal_flash_ex.c ****   /* Wait for last operation to be completed */
1034:Drivers/STM32L4xx_HAL_Driver/Src/stm32l4xx_hal_flash_ex.c ****   status = FLASH_WaitForLastOperation((uint32_t)FLASH_TIMEOUT_VALUE);
1035:Drivers/STM32L4xx_HAL_Driver/Src/stm32l4xx_hal_flash_ex.c **** 
1036:Drivers/STM32L4xx_HAL_Driver/Src/stm32l4xx_hal_flash_ex.c ****   if(status == HAL_OK)
1037:Drivers/STM32L4xx_HAL_Driver/Src/stm32l4xx_hal_flash_ex.c ****   {
1038:Drivers/STM32L4xx_HAL_Driver/Src/stm32l4xx_hal_flash_ex.c **** #if defined (STM32L471xx) || defined (STM32L475xx) || defined (STM32L476xx) || defined (STM32L485xx
1039:Drivers/STM32L4xx_HAL_Driver/Src/stm32l4xx_hal_flash_ex.c ****     defined (STM32L496xx) || defined (STM32L4A6xx) || \
1040:Drivers/STM32L4xx_HAL_Driver/Src/stm32l4xx_hal_flash_ex.c ****     defined (STM32L4R5xx) || defined (STM32L4R7xx) || defined (STM32L4R9xx) || defined (STM32L4S5xx
1041:Drivers/STM32L4xx_HAL_Driver/Src/stm32l4xx_hal_flash_ex.c ****     /* Get the information about the bank swapping */
1042:Drivers/STM32L4xx_HAL_Driver/Src/stm32l4xx_hal_flash_ex.c ****     if (READ_BIT(SYSCFG->MEMRMP, SYSCFG_MEMRMP_FB_MODE) == 0U)
1043:Drivers/STM32L4xx_HAL_Driver/Src/stm32l4xx_hal_flash_ex.c ****     {
1044:Drivers/STM32L4xx_HAL_Driver/Src/stm32l4xx_hal_flash_ex.c ****       bank1_addr = FLASH_BASE;
1045:Drivers/STM32L4xx_HAL_Driver/Src/stm32l4xx_hal_flash_ex.c ****       bank2_addr = FLASH_BASE + FLASH_BANK_SIZE;
1046:Drivers/STM32L4xx_HAL_Driver/Src/stm32l4xx_hal_flash_ex.c ****     }
1047:Drivers/STM32L4xx_HAL_Driver/Src/stm32l4xx_hal_flash_ex.c ****     else
1048:Drivers/STM32L4xx_HAL_Driver/Src/stm32l4xx_hal_flash_ex.c ****     {
1049:Drivers/STM32L4xx_HAL_Driver/Src/stm32l4xx_hal_flash_ex.c ****       bank1_addr = FLASH_BASE + FLASH_BANK_SIZE;
1050:Drivers/STM32L4xx_HAL_Driver/Src/stm32l4xx_hal_flash_ex.c ****       bank2_addr = FLASH_BASE;
1051:Drivers/STM32L4xx_HAL_Driver/Src/stm32l4xx_hal_flash_ex.c ****     }
1052:Drivers/STM32L4xx_HAL_Driver/Src/stm32l4xx_hal_flash_ex.c **** #else
1053:Drivers/STM32L4xx_HAL_Driver/Src/stm32l4xx_hal_flash_ex.c ****     bank1_addr = FLASH_BASE;
1054:Drivers/STM32L4xx_HAL_Driver/Src/stm32l4xx_hal_flash_ex.c **** #endif
1055:Drivers/STM32L4xx_HAL_Driver/Src/stm32l4xx_hal_flash_ex.c ****     
1056:Drivers/STM32L4xx_HAL_Driver/Src/stm32l4xx_hal_flash_ex.c **** #if defined (STM32L4R5xx) || defined (STM32L4R7xx) || defined (STM32L4R9xx) || defined (STM32L4S5xx
1057:Drivers/STM32L4xx_HAL_Driver/Src/stm32l4xx_hal_flash_ex.c ****     if (READ_BIT(FLASH->OPTR, FLASH_OPTR_DBANK) == 0U)
1058:Drivers/STM32L4xx_HAL_Driver/Src/stm32l4xx_hal_flash_ex.c ****     {
1059:Drivers/STM32L4xx_HAL_Driver/Src/stm32l4xx_hal_flash_ex.c ****       /* Configure the Proprietary code readout protection */
1060:Drivers/STM32L4xx_HAL_Driver/Src/stm32l4xx_hal_flash_ex.c ****       if((PCROPConfig & FLASH_BANK_BOTH) == FLASH_BANK_1)
1061:Drivers/STM32L4xx_HAL_Driver/Src/stm32l4xx_hal_flash_ex.c ****       {
1062:Drivers/STM32L4xx_HAL_Driver/Src/stm32l4xx_hal_flash_ex.c ****         reg_value = ((PCROPStartAddr - FLASH_BASE) >> 4);
1063:Drivers/STM32L4xx_HAL_Driver/Src/stm32l4xx_hal_flash_ex.c ****         MODIFY_REG(FLASH->PCROP1SR, FLASH_PCROP1SR_PCROP1_STRT, reg_value);
1064:Drivers/STM32L4xx_HAL_Driver/Src/stm32l4xx_hal_flash_ex.c ****         
1065:Drivers/STM32L4xx_HAL_Driver/Src/stm32l4xx_hal_flash_ex.c ****         reg_value = ((PCROPEndAddr - FLASH_BASE) >> 4);
1066:Drivers/STM32L4xx_HAL_Driver/Src/stm32l4xx_hal_flash_ex.c ****         MODIFY_REG(FLASH->PCROP1ER, FLASH_PCROP1ER_PCROP1_END, reg_value);
1067:Drivers/STM32L4xx_HAL_Driver/Src/stm32l4xx_hal_flash_ex.c ****       }
1068:Drivers/STM32L4xx_HAL_Driver/Src/stm32l4xx_hal_flash_ex.c ****       else if((PCROPConfig & FLASH_BANK_BOTH) == FLASH_BANK_2)
1069:Drivers/STM32L4xx_HAL_Driver/Src/stm32l4xx_hal_flash_ex.c ****       {
1070:Drivers/STM32L4xx_HAL_Driver/Src/stm32l4xx_hal_flash_ex.c ****         reg_value = ((PCROPStartAddr - FLASH_BASE) >> 4);
1071:Drivers/STM32L4xx_HAL_Driver/Src/stm32l4xx_hal_flash_ex.c ****         MODIFY_REG(FLASH->PCROP2SR, FLASH_PCROP2SR_PCROP2_STRT, reg_value);
1072:Drivers/STM32L4xx_HAL_Driver/Src/stm32l4xx_hal_flash_ex.c ****         
1073:Drivers/STM32L4xx_HAL_Driver/Src/stm32l4xx_hal_flash_ex.c ****         reg_value = ((PCROPEndAddr - FLASH_BASE) >> 4);
1074:Drivers/STM32L4xx_HAL_Driver/Src/stm32l4xx_hal_flash_ex.c ****         MODIFY_REG(FLASH->PCROP2ER, FLASH_PCROP2ER_PCROP2_END, reg_value);
1075:Drivers/STM32L4xx_HAL_Driver/Src/stm32l4xx_hal_flash_ex.c ****       }
ARM GAS  /tmp/ccWeCwHW.s 			page 21


1076:Drivers/STM32L4xx_HAL_Driver/Src/stm32l4xx_hal_flash_ex.c ****       else
1077:Drivers/STM32L4xx_HAL_Driver/Src/stm32l4xx_hal_flash_ex.c ****       {
1078:Drivers/STM32L4xx_HAL_Driver/Src/stm32l4xx_hal_flash_ex.c ****         /* Nothing to do */
1079:Drivers/STM32L4xx_HAL_Driver/Src/stm32l4xx_hal_flash_ex.c ****       }
1080:Drivers/STM32L4xx_HAL_Driver/Src/stm32l4xx_hal_flash_ex.c ****     }
1081:Drivers/STM32L4xx_HAL_Driver/Src/stm32l4xx_hal_flash_ex.c ****     else
1082:Drivers/STM32L4xx_HAL_Driver/Src/stm32l4xx_hal_flash_ex.c **** #endif
1083:Drivers/STM32L4xx_HAL_Driver/Src/stm32l4xx_hal_flash_ex.c ****     {
1084:Drivers/STM32L4xx_HAL_Driver/Src/stm32l4xx_hal_flash_ex.c ****       /* Configure the Proprietary code readout protection */
1085:Drivers/STM32L4xx_HAL_Driver/Src/stm32l4xx_hal_flash_ex.c ****       if((PCROPConfig & FLASH_BANK_BOTH) == FLASH_BANK_1)
1086:Drivers/STM32L4xx_HAL_Driver/Src/stm32l4xx_hal_flash_ex.c ****       {
1087:Drivers/STM32L4xx_HAL_Driver/Src/stm32l4xx_hal_flash_ex.c ****         reg_value = ((PCROPStartAddr - bank1_addr) >> 3);
1088:Drivers/STM32L4xx_HAL_Driver/Src/stm32l4xx_hal_flash_ex.c ****         MODIFY_REG(FLASH->PCROP1SR, FLASH_PCROP1SR_PCROP1_STRT, reg_value);
1089:Drivers/STM32L4xx_HAL_Driver/Src/stm32l4xx_hal_flash_ex.c ****         
1090:Drivers/STM32L4xx_HAL_Driver/Src/stm32l4xx_hal_flash_ex.c ****         reg_value = ((PCROPEndAddr - bank1_addr) >> 3);
1091:Drivers/STM32L4xx_HAL_Driver/Src/stm32l4xx_hal_flash_ex.c ****         MODIFY_REG(FLASH->PCROP1ER, FLASH_PCROP1ER_PCROP1_END, reg_value);
1092:Drivers/STM32L4xx_HAL_Driver/Src/stm32l4xx_hal_flash_ex.c ****       }
1093:Drivers/STM32L4xx_HAL_Driver/Src/stm32l4xx_hal_flash_ex.c **** #if defined (STM32L471xx) || defined (STM32L475xx) || defined (STM32L476xx) || defined (STM32L485xx
1094:Drivers/STM32L4xx_HAL_Driver/Src/stm32l4xx_hal_flash_ex.c ****     defined (STM32L496xx) || defined (STM32L4A6xx) || \
1095:Drivers/STM32L4xx_HAL_Driver/Src/stm32l4xx_hal_flash_ex.c ****     defined (STM32L4R5xx) || defined (STM32L4R7xx) || defined (STM32L4R9xx) || defined (STM32L4S5xx
1096:Drivers/STM32L4xx_HAL_Driver/Src/stm32l4xx_hal_flash_ex.c ****       else if((PCROPConfig & FLASH_BANK_BOTH) == FLASH_BANK_2)
1097:Drivers/STM32L4xx_HAL_Driver/Src/stm32l4xx_hal_flash_ex.c ****       {
1098:Drivers/STM32L4xx_HAL_Driver/Src/stm32l4xx_hal_flash_ex.c ****         reg_value = ((PCROPStartAddr - bank2_addr) >> 3);
1099:Drivers/STM32L4xx_HAL_Driver/Src/stm32l4xx_hal_flash_ex.c ****         MODIFY_REG(FLASH->PCROP2SR, FLASH_PCROP2SR_PCROP2_STRT, reg_value);
1100:Drivers/STM32L4xx_HAL_Driver/Src/stm32l4xx_hal_flash_ex.c ****         
1101:Drivers/STM32L4xx_HAL_Driver/Src/stm32l4xx_hal_flash_ex.c ****         reg_value = ((PCROPEndAddr - bank2_addr) >> 3);
1102:Drivers/STM32L4xx_HAL_Driver/Src/stm32l4xx_hal_flash_ex.c ****         MODIFY_REG(FLASH->PCROP2ER, FLASH_PCROP2ER_PCROP2_END, reg_value);
1103:Drivers/STM32L4xx_HAL_Driver/Src/stm32l4xx_hal_flash_ex.c ****       }
1104:Drivers/STM32L4xx_HAL_Driver/Src/stm32l4xx_hal_flash_ex.c **** #endif
1105:Drivers/STM32L4xx_HAL_Driver/Src/stm32l4xx_hal_flash_ex.c ****       else
1106:Drivers/STM32L4xx_HAL_Driver/Src/stm32l4xx_hal_flash_ex.c ****       {
1107:Drivers/STM32L4xx_HAL_Driver/Src/stm32l4xx_hal_flash_ex.c ****         /* Nothing to do */
1108:Drivers/STM32L4xx_HAL_Driver/Src/stm32l4xx_hal_flash_ex.c ****       }
1109:Drivers/STM32L4xx_HAL_Driver/Src/stm32l4xx_hal_flash_ex.c ****     }
1110:Drivers/STM32L4xx_HAL_Driver/Src/stm32l4xx_hal_flash_ex.c ****     
1111:Drivers/STM32L4xx_HAL_Driver/Src/stm32l4xx_hal_flash_ex.c ****     MODIFY_REG(FLASH->PCROP1ER, FLASH_PCROP1ER_PCROP_RDP, (PCROPConfig & FLASH_PCROP1ER_PCROP_RDP))
1112:Drivers/STM32L4xx_HAL_Driver/Src/stm32l4xx_hal_flash_ex.c ****     
1113:Drivers/STM32L4xx_HAL_Driver/Src/stm32l4xx_hal_flash_ex.c ****     /* Set OPTSTRT Bit */
1114:Drivers/STM32L4xx_HAL_Driver/Src/stm32l4xx_hal_flash_ex.c ****     SET_BIT(FLASH->CR, FLASH_CR_OPTSTRT);
1115:Drivers/STM32L4xx_HAL_Driver/Src/stm32l4xx_hal_flash_ex.c ****     
1116:Drivers/STM32L4xx_HAL_Driver/Src/stm32l4xx_hal_flash_ex.c ****     /* Wait for last operation to be completed */
1117:Drivers/STM32L4xx_HAL_Driver/Src/stm32l4xx_hal_flash_ex.c ****     status = FLASH_WaitForLastOperation((uint32_t)FLASH_TIMEOUT_VALUE);
1118:Drivers/STM32L4xx_HAL_Driver/Src/stm32l4xx_hal_flash_ex.c **** 
1119:Drivers/STM32L4xx_HAL_Driver/Src/stm32l4xx_hal_flash_ex.c ****     /* If the option byte program operation is completed, disable the OPTSTRT Bit */
1120:Drivers/STM32L4xx_HAL_Driver/Src/stm32l4xx_hal_flash_ex.c ****     CLEAR_BIT(FLASH->CR, FLASH_CR_OPTSTRT);
1121:Drivers/STM32L4xx_HAL_Driver/Src/stm32l4xx_hal_flash_ex.c ****   }
1122:Drivers/STM32L4xx_HAL_Driver/Src/stm32l4xx_hal_flash_ex.c ****   
1123:Drivers/STM32L4xx_HAL_Driver/Src/stm32l4xx_hal_flash_ex.c ****   return status;
1124:Drivers/STM32L4xx_HAL_Driver/Src/stm32l4xx_hal_flash_ex.c **** }
1125:Drivers/STM32L4xx_HAL_Driver/Src/stm32l4xx_hal_flash_ex.c **** 
1126:Drivers/STM32L4xx_HAL_Driver/Src/stm32l4xx_hal_flash_ex.c **** /**
1127:Drivers/STM32L4xx_HAL_Driver/Src/stm32l4xx_hal_flash_ex.c ****   * @brief  Return the FLASH Write Protection Option Bytes value.
1128:Drivers/STM32L4xx_HAL_Driver/Src/stm32l4xx_hal_flash_ex.c ****   *
1129:Drivers/STM32L4xx_HAL_Driver/Src/stm32l4xx_hal_flash_ex.c ****   * @param[in]  WRPArea: specifies the area to be returned.
1130:Drivers/STM32L4xx_HAL_Driver/Src/stm32l4xx_hal_flash_ex.c ****   *          This parameter can be one of the following values:
1131:Drivers/STM32L4xx_HAL_Driver/Src/stm32l4xx_hal_flash_ex.c ****   *            @arg OB_WRPAREA_BANK1_AREAA: Flash Bank 1 Area A                      
1132:Drivers/STM32L4xx_HAL_Driver/Src/stm32l4xx_hal_flash_ex.c ****   *            @arg OB_WRPAREA_BANK1_AREAB: Flash Bank 1 Area B                      
ARM GAS  /tmp/ccWeCwHW.s 			page 22


1133:Drivers/STM32L4xx_HAL_Driver/Src/stm32l4xx_hal_flash_ex.c ****   *            @arg OB_WRPAREA_BANK2_AREAA: Flash Bank 2 Area A (don't apply to STM32L43x/STM32L44x
1134:Drivers/STM32L4xx_HAL_Driver/Src/stm32l4xx_hal_flash_ex.c ****   *            @arg OB_WRPAREA_BANK2_AREAB: Flash Bank 2 Area B (don't apply to STM32L43x/STM32L44x
1135:Drivers/STM32L4xx_HAL_Driver/Src/stm32l4xx_hal_flash_ex.c ****   *
1136:Drivers/STM32L4xx_HAL_Driver/Src/stm32l4xx_hal_flash_ex.c ****   * @param[out]  WRPStartOffset: specifies the address where to copied the start page 
1137:Drivers/STM32L4xx_HAL_Driver/Src/stm32l4xx_hal_flash_ex.c ****   *                         of the write protected area
1138:Drivers/STM32L4xx_HAL_Driver/Src/stm32l4xx_hal_flash_ex.c ****   *
1139:Drivers/STM32L4xx_HAL_Driver/Src/stm32l4xx_hal_flash_ex.c ****   * @param[out]  WRDPEndOffset: specifies the address where to copied the end page of 
1140:Drivers/STM32L4xx_HAL_Driver/Src/stm32l4xx_hal_flash_ex.c ****   *                        the write protected area
1141:Drivers/STM32L4xx_HAL_Driver/Src/stm32l4xx_hal_flash_ex.c ****   *
1142:Drivers/STM32L4xx_HAL_Driver/Src/stm32l4xx_hal_flash_ex.c ****   * @retval None
1143:Drivers/STM32L4xx_HAL_Driver/Src/stm32l4xx_hal_flash_ex.c ****   */
1144:Drivers/STM32L4xx_HAL_Driver/Src/stm32l4xx_hal_flash_ex.c **** static void FLASH_OB_GetWRP(uint32_t WRPArea, uint32_t * WRPStartOffset, uint32_t * WRDPEndOffset)
1145:Drivers/STM32L4xx_HAL_Driver/Src/stm32l4xx_hal_flash_ex.c **** {
  69              		.loc 1 1145 1 is_stmt 1 view -0
  70              		.cfi_startproc
  71              		@ args = 0, pretend = 0, frame = 0
  72              		@ frame_needed = 0, uses_anonymous_args = 0
  73              		@ link register save eliminated.
1146:Drivers/STM32L4xx_HAL_Driver/Src/stm32l4xx_hal_flash_ex.c ****   /* Get the configuration of the write protected area */
1147:Drivers/STM32L4xx_HAL_Driver/Src/stm32l4xx_hal_flash_ex.c ****   if(WRPArea == OB_WRPAREA_BANK1_AREAA)
  74              		.loc 1 1147 3 view .LVU8
  75              		.loc 1 1147 5 is_stmt 0 view .LVU9
  76 0000 40B9     		cbnz	r0, .L6
1148:Drivers/STM32L4xx_HAL_Driver/Src/stm32l4xx_hal_flash_ex.c ****   {
1149:Drivers/STM32L4xx_HAL_Driver/Src/stm32l4xx_hal_flash_ex.c ****     *WRPStartOffset = READ_BIT(FLASH->WRP1AR, FLASH_WRP1AR_WRP1A_STRT);
  77              		.loc 1 1149 5 is_stmt 1 view .LVU10
  78              		.loc 1 1149 23 is_stmt 0 view .LVU11
  79 0002 0A48     		ldr	r0, .L9
  80              	.LVL2:
  81              		.loc 1 1149 23 view .LVU12
  82 0004 C36A     		ldr	r3, [r0, #44]
  83 0006 DBB2     		uxtb	r3, r3
  84              		.loc 1 1149 21 view .LVU13
  85 0008 0B60     		str	r3, [r1]
1150:Drivers/STM32L4xx_HAL_Driver/Src/stm32l4xx_hal_flash_ex.c ****     *WRDPEndOffset = (READ_BIT(FLASH->WRP1AR, FLASH_WRP1AR_WRP1A_END) >> 16);
  86              		.loc 1 1150 5 is_stmt 1 view .LVU14
  87              		.loc 1 1150 23 is_stmt 0 view .LVU15
  88 000a C36A     		ldr	r3, [r0, #44]
  89              		.loc 1 1150 71 view .LVU16
  90 000c C3F30743 		ubfx	r3, r3, #16, #8
  91              		.loc 1 1150 20 view .LVU17
  92 0010 1360     		str	r3, [r2]
  93 0012 7047     		bx	lr
  94              	.LVL3:
  95              	.L6:
1151:Drivers/STM32L4xx_HAL_Driver/Src/stm32l4xx_hal_flash_ex.c ****   }
1152:Drivers/STM32L4xx_HAL_Driver/Src/stm32l4xx_hal_flash_ex.c ****   else if(WRPArea == OB_WRPAREA_BANK1_AREAB)
  96              		.loc 1 1152 8 is_stmt 1 view .LVU18
  97              		.loc 1 1152 10 is_stmt 0 view .LVU19
  98 0014 0128     		cmp	r0, #1
  99 0016 00D0     		beq	.L8
 100              	.LVL4:
 101              	.L5:
1153:Drivers/STM32L4xx_HAL_Driver/Src/stm32l4xx_hal_flash_ex.c ****   {
1154:Drivers/STM32L4xx_HAL_Driver/Src/stm32l4xx_hal_flash_ex.c ****     *WRPStartOffset = READ_BIT(FLASH->WRP1BR, FLASH_WRP1BR_WRP1B_STRT);
1155:Drivers/STM32L4xx_HAL_Driver/Src/stm32l4xx_hal_flash_ex.c ****     *WRDPEndOffset = (READ_BIT(FLASH->WRP1BR, FLASH_WRP1BR_WRP1B_END) >> 16);
1156:Drivers/STM32L4xx_HAL_Driver/Src/stm32l4xx_hal_flash_ex.c ****   }
ARM GAS  /tmp/ccWeCwHW.s 			page 23


1157:Drivers/STM32L4xx_HAL_Driver/Src/stm32l4xx_hal_flash_ex.c **** #if defined (STM32L471xx) || defined (STM32L475xx) || defined (STM32L476xx) || defined (STM32L485xx
1158:Drivers/STM32L4xx_HAL_Driver/Src/stm32l4xx_hal_flash_ex.c ****     defined (STM32L496xx) || defined (STM32L4A6xx) || \
1159:Drivers/STM32L4xx_HAL_Driver/Src/stm32l4xx_hal_flash_ex.c ****     defined (STM32L4R5xx) || defined (STM32L4R7xx) || defined (STM32L4R9xx) || defined (STM32L4S5xx
1160:Drivers/STM32L4xx_HAL_Driver/Src/stm32l4xx_hal_flash_ex.c ****   else if(WRPArea == OB_WRPAREA_BANK2_AREAA)
1161:Drivers/STM32L4xx_HAL_Driver/Src/stm32l4xx_hal_flash_ex.c ****   {
1162:Drivers/STM32L4xx_HAL_Driver/Src/stm32l4xx_hal_flash_ex.c ****     *WRPStartOffset = READ_BIT(FLASH->WRP2AR, FLASH_WRP2AR_WRP2A_STRT);
1163:Drivers/STM32L4xx_HAL_Driver/Src/stm32l4xx_hal_flash_ex.c ****     *WRDPEndOffset = (READ_BIT(FLASH->WRP2AR, FLASH_WRP2AR_WRP2A_END) >> 16);
1164:Drivers/STM32L4xx_HAL_Driver/Src/stm32l4xx_hal_flash_ex.c ****   }
1165:Drivers/STM32L4xx_HAL_Driver/Src/stm32l4xx_hal_flash_ex.c ****   else if(WRPArea == OB_WRPAREA_BANK2_AREAB)
1166:Drivers/STM32L4xx_HAL_Driver/Src/stm32l4xx_hal_flash_ex.c ****   {
1167:Drivers/STM32L4xx_HAL_Driver/Src/stm32l4xx_hal_flash_ex.c ****     *WRPStartOffset = READ_BIT(FLASH->WRP2BR, FLASH_WRP2BR_WRP2B_STRT);
1168:Drivers/STM32L4xx_HAL_Driver/Src/stm32l4xx_hal_flash_ex.c ****     *WRDPEndOffset = (READ_BIT(FLASH->WRP2BR, FLASH_WRP2BR_WRP2B_END) >> 16);
1169:Drivers/STM32L4xx_HAL_Driver/Src/stm32l4xx_hal_flash_ex.c ****   }
1170:Drivers/STM32L4xx_HAL_Driver/Src/stm32l4xx_hal_flash_ex.c **** #endif
1171:Drivers/STM32L4xx_HAL_Driver/Src/stm32l4xx_hal_flash_ex.c ****   else
1172:Drivers/STM32L4xx_HAL_Driver/Src/stm32l4xx_hal_flash_ex.c ****   {
1173:Drivers/STM32L4xx_HAL_Driver/Src/stm32l4xx_hal_flash_ex.c ****     /* Nothing to do */
1174:Drivers/STM32L4xx_HAL_Driver/Src/stm32l4xx_hal_flash_ex.c ****   }
1175:Drivers/STM32L4xx_HAL_Driver/Src/stm32l4xx_hal_flash_ex.c **** }
 102              		.loc 1 1175 1 view .LVU20
 103 0018 7047     		bx	lr
 104              	.LVL5:
 105              	.L8:
1154:Drivers/STM32L4xx_HAL_Driver/Src/stm32l4xx_hal_flash_ex.c ****     *WRDPEndOffset = (READ_BIT(FLASH->WRP1BR, FLASH_WRP1BR_WRP1B_END) >> 16);
 106              		.loc 1 1154 5 is_stmt 1 view .LVU21
1154:Drivers/STM32L4xx_HAL_Driver/Src/stm32l4xx_hal_flash_ex.c ****     *WRDPEndOffset = (READ_BIT(FLASH->WRP1BR, FLASH_WRP1BR_WRP1B_END) >> 16);
 107              		.loc 1 1154 23 is_stmt 0 view .LVU22
 108 001a 0448     		ldr	r0, .L9
 109              	.LVL6:
1154:Drivers/STM32L4xx_HAL_Driver/Src/stm32l4xx_hal_flash_ex.c ****     *WRDPEndOffset = (READ_BIT(FLASH->WRP1BR, FLASH_WRP1BR_WRP1B_END) >> 16);
 110              		.loc 1 1154 23 view .LVU23
 111 001c 036B     		ldr	r3, [r0, #48]
 112 001e DBB2     		uxtb	r3, r3
1154:Drivers/STM32L4xx_HAL_Driver/Src/stm32l4xx_hal_flash_ex.c ****     *WRDPEndOffset = (READ_BIT(FLASH->WRP1BR, FLASH_WRP1BR_WRP1B_END) >> 16);
 113              		.loc 1 1154 21 view .LVU24
 114 0020 0B60     		str	r3, [r1]
1155:Drivers/STM32L4xx_HAL_Driver/Src/stm32l4xx_hal_flash_ex.c ****   }
 115              		.loc 1 1155 5 is_stmt 1 view .LVU25
1155:Drivers/STM32L4xx_HAL_Driver/Src/stm32l4xx_hal_flash_ex.c ****   }
 116              		.loc 1 1155 23 is_stmt 0 view .LVU26
 117 0022 036B     		ldr	r3, [r0, #48]
1155:Drivers/STM32L4xx_HAL_Driver/Src/stm32l4xx_hal_flash_ex.c ****   }
 118              		.loc 1 1155 71 view .LVU27
 119 0024 C3F30743 		ubfx	r3, r3, #16, #8
1155:Drivers/STM32L4xx_HAL_Driver/Src/stm32l4xx_hal_flash_ex.c ****   }
 120              		.loc 1 1155 20 view .LVU28
 121 0028 1360     		str	r3, [r2]
1174:Drivers/STM32L4xx_HAL_Driver/Src/stm32l4xx_hal_flash_ex.c **** }
 122              		.loc 1 1174 3 is_stmt 1 view .LVU29
 123              		.loc 1 1175 1 is_stmt 0 view .LVU30
 124 002a F5E7     		b	.L5
 125              	.L10:
 126              		.align	2
 127              	.L9:
 128 002c 00200240 		.word	1073881088
 129              		.cfi_endproc
 130              	.LFE134:
ARM GAS  /tmp/ccWeCwHW.s 			page 24


 132              		.section	.text.FLASH_OB_GetRDP,"ax",%progbits
 133              		.align	1
 134              		.syntax unified
 135              		.thumb
 136              		.thumb_func
 137              		.fpu fpv4-sp-d16
 139              	FLASH_OB_GetRDP:
 140              	.LFB135:
1176:Drivers/STM32L4xx_HAL_Driver/Src/stm32l4xx_hal_flash_ex.c **** 
1177:Drivers/STM32L4xx_HAL_Driver/Src/stm32l4xx_hal_flash_ex.c **** /**
1178:Drivers/STM32L4xx_HAL_Driver/Src/stm32l4xx_hal_flash_ex.c ****   * @brief  Return the FLASH Read Protection level.
1179:Drivers/STM32L4xx_HAL_Driver/Src/stm32l4xx_hal_flash_ex.c ****   * @retval FLASH ReadOut Protection Status:
1180:Drivers/STM32L4xx_HAL_Driver/Src/stm32l4xx_hal_flash_ex.c ****   *         This return value can be one of the following values:
1181:Drivers/STM32L4xx_HAL_Driver/Src/stm32l4xx_hal_flash_ex.c ****   *            @arg OB_RDP_LEVEL_0: No protection
1182:Drivers/STM32L4xx_HAL_Driver/Src/stm32l4xx_hal_flash_ex.c ****   *            @arg OB_RDP_LEVEL_1: Read protection of the memory
1183:Drivers/STM32L4xx_HAL_Driver/Src/stm32l4xx_hal_flash_ex.c ****   *            @arg OB_RDP_LEVEL_2: Full chip protection
1184:Drivers/STM32L4xx_HAL_Driver/Src/stm32l4xx_hal_flash_ex.c ****   */
1185:Drivers/STM32L4xx_HAL_Driver/Src/stm32l4xx_hal_flash_ex.c **** static uint32_t FLASH_OB_GetRDP(void)
1186:Drivers/STM32L4xx_HAL_Driver/Src/stm32l4xx_hal_flash_ex.c **** {
 141              		.loc 1 1186 1 is_stmt 1 view -0
 142              		.cfi_startproc
 143              		@ args = 0, pretend = 0, frame = 0
 144              		@ frame_needed = 0, uses_anonymous_args = 0
 145              		@ link register save eliminated.
1187:Drivers/STM32L4xx_HAL_Driver/Src/stm32l4xx_hal_flash_ex.c ****   uint32_t rdp_level = READ_BIT(FLASH->OPTR, FLASH_OPTR_RDP);
 146              		.loc 1 1187 3 view .LVU32
 147              		.loc 1 1187 24 is_stmt 0 view .LVU33
 148 0000 064B     		ldr	r3, .L15
 149 0002 1B6A     		ldr	r3, [r3, #32]
 150              		.loc 1 1187 12 view .LVU34
 151 0004 DBB2     		uxtb	r3, r3
 152              	.LVL7:
1188:Drivers/STM32L4xx_HAL_Driver/Src/stm32l4xx_hal_flash_ex.c **** 
1189:Drivers/STM32L4xx_HAL_Driver/Src/stm32l4xx_hal_flash_ex.c ****   if ((rdp_level != OB_RDP_LEVEL_0) && (rdp_level != OB_RDP_LEVEL_2))
 153              		.loc 1 1189 3 is_stmt 1 view .LVU35
 154              		.loc 1 1189 6 is_stmt 0 view .LVU36
 155 0006 AA2B     		cmp	r3, #170
 156 0008 03D0     		beq	.L12
 157              		.loc 1 1189 37 discriminator 1 view .LVU37
 158 000a CC2B     		cmp	r3, #204
 159 000c 01D0     		beq	.L12
1190:Drivers/STM32L4xx_HAL_Driver/Src/stm32l4xx_hal_flash_ex.c ****   {
1191:Drivers/STM32L4xx_HAL_Driver/Src/stm32l4xx_hal_flash_ex.c ****     return (OB_RDP_LEVEL_1);
 160              		.loc 1 1191 12 view .LVU38
 161 000e BB20     		movs	r0, #187
1192:Drivers/STM32L4xx_HAL_Driver/Src/stm32l4xx_hal_flash_ex.c ****   }
1193:Drivers/STM32L4xx_HAL_Driver/Src/stm32l4xx_hal_flash_ex.c ****   else
1194:Drivers/STM32L4xx_HAL_Driver/Src/stm32l4xx_hal_flash_ex.c ****   {
1195:Drivers/STM32L4xx_HAL_Driver/Src/stm32l4xx_hal_flash_ex.c ****     return (READ_BIT(FLASH->OPTR, FLASH_OPTR_RDP));
1196:Drivers/STM32L4xx_HAL_Driver/Src/stm32l4xx_hal_flash_ex.c ****   }
1197:Drivers/STM32L4xx_HAL_Driver/Src/stm32l4xx_hal_flash_ex.c **** }
 162              		.loc 1 1197 1 view .LVU39
 163 0010 7047     		bx	lr
 164              	.L12:
1195:Drivers/STM32L4xx_HAL_Driver/Src/stm32l4xx_hal_flash_ex.c ****   }
 165              		.loc 1 1195 5 is_stmt 1 view .LVU40
1195:Drivers/STM32L4xx_HAL_Driver/Src/stm32l4xx_hal_flash_ex.c ****   }
ARM GAS  /tmp/ccWeCwHW.s 			page 25


 166              		.loc 1 1195 13 is_stmt 0 view .LVU41
 167 0012 024B     		ldr	r3, .L15
 168              	.LVL8:
1195:Drivers/STM32L4xx_HAL_Driver/Src/stm32l4xx_hal_flash_ex.c ****   }
 169              		.loc 1 1195 13 view .LVU42
 170 0014 186A     		ldr	r0, [r3, #32]
 171 0016 C0B2     		uxtb	r0, r0
 172 0018 7047     		bx	lr
 173              	.L16:
 174 001a 00BF     		.align	2
 175              	.L15:
 176 001c 00200240 		.word	1073881088
 177              		.cfi_endproc
 178              	.LFE135:
 180              		.section	.text.FLASH_OB_GetUser,"ax",%progbits
 181              		.align	1
 182              		.syntax unified
 183              		.thumb
 184              		.thumb_func
 185              		.fpu fpv4-sp-d16
 187              	FLASH_OB_GetUser:
 188              	.LFB136:
1198:Drivers/STM32L4xx_HAL_Driver/Src/stm32l4xx_hal_flash_ex.c **** 
1199:Drivers/STM32L4xx_HAL_Driver/Src/stm32l4xx_hal_flash_ex.c **** /**
1200:Drivers/STM32L4xx_HAL_Driver/Src/stm32l4xx_hal_flash_ex.c ****   * @brief  Return the FLASH User Option Byte value.
1201:Drivers/STM32L4xx_HAL_Driver/Src/stm32l4xx_hal_flash_ex.c ****   * @retval The FLASH User Option Bytes values: 
1202:Drivers/STM32L4xx_HAL_Driver/Src/stm32l4xx_hal_flash_ex.c ****   *      For STM32L47x/STM32L48x devices :
1203:Drivers/STM32L4xx_HAL_Driver/Src/stm32l4xx_hal_flash_ex.c ****   *         BOR_LEV(Bit8-10), nRST_STOP(Bit12), nRST_STDBY(Bit13), nRST_SHDW(Bit14), 
1204:Drivers/STM32L4xx_HAL_Driver/Src/stm32l4xx_hal_flash_ex.c ****   *         IWDG_SW(Bit16), IWDG_STOP(Bit17), IWDG_STDBY(Bit18), WWDG_SW(Bit19),  
1205:Drivers/STM32L4xx_HAL_Driver/Src/stm32l4xx_hal_flash_ex.c ****   *         BFB2(Bit20), DUALBANK(Bit21), nBOOT1(Bit23), SRAM2_PE(Bit24) and SRAM2_RST(Bit25). 
1206:Drivers/STM32L4xx_HAL_Driver/Src/stm32l4xx_hal_flash_ex.c ****   *      For STM32L43x/STM32L44x devices :
1207:Drivers/STM32L4xx_HAL_Driver/Src/stm32l4xx_hal_flash_ex.c ****   *         BOR_LEV(Bit8-10), nRST_STOP(Bit12), nRST_STDBY(Bit13), nRST_SHDW(Bit14),
1208:Drivers/STM32L4xx_HAL_Driver/Src/stm32l4xx_hal_flash_ex.c ****   *         IWDG_SW(Bit16), IWDG_STOP(Bit17), IWDG_STDBY(Bit18), WWDG_SW(Bit19),  
1209:Drivers/STM32L4xx_HAL_Driver/Src/stm32l4xx_hal_flash_ex.c ****   *         nBOOT1(Bit23), SRAM2_PE(Bit24), SRAM2_RST(Bit25), nSWBOOT0(Bit26) and nBOOT0(Bit27). 
1210:Drivers/STM32L4xx_HAL_Driver/Src/stm32l4xx_hal_flash_ex.c ****   */
1211:Drivers/STM32L4xx_HAL_Driver/Src/stm32l4xx_hal_flash_ex.c **** static uint32_t FLASH_OB_GetUser(void)
1212:Drivers/STM32L4xx_HAL_Driver/Src/stm32l4xx_hal_flash_ex.c **** {
 189              		.loc 1 1212 1 is_stmt 1 view -0
 190              		.cfi_startproc
 191              		@ args = 0, pretend = 0, frame = 0
 192              		@ frame_needed = 0, uses_anonymous_args = 0
 193              		@ link register save eliminated.
1213:Drivers/STM32L4xx_HAL_Driver/Src/stm32l4xx_hal_flash_ex.c ****   uint32_t user_config = READ_REG(FLASH->OPTR);
 194              		.loc 1 1213 3 view .LVU44
 195              		.loc 1 1213 12 is_stmt 0 view .LVU45
 196 0000 024B     		ldr	r3, .L18
 197 0002 186A     		ldr	r0, [r3, #32]
 198              	.LVL9:
1214:Drivers/STM32L4xx_HAL_Driver/Src/stm32l4xx_hal_flash_ex.c ****   CLEAR_BIT(user_config, FLASH_OPTR_RDP);
 199              		.loc 1 1214 3 is_stmt 1 view .LVU46
1215:Drivers/STM32L4xx_HAL_Driver/Src/stm32l4xx_hal_flash_ex.c ****   
1216:Drivers/STM32L4xx_HAL_Driver/Src/stm32l4xx_hal_flash_ex.c ****   return user_config;
 200              		.loc 1 1216 3 view .LVU47
1217:Drivers/STM32L4xx_HAL_Driver/Src/stm32l4xx_hal_flash_ex.c **** }
 201              		.loc 1 1217 1 is_stmt 0 view .LVU48
 202 0004 20F0FF00 		bic	r0, r0, #255
 203              	.LVL10:
ARM GAS  /tmp/ccWeCwHW.s 			page 26


 204              		.loc 1 1217 1 view .LVU49
 205 0008 7047     		bx	lr
 206              	.L19:
 207 000a 00BF     		.align	2
 208              	.L18:
 209 000c 00200240 		.word	1073881088
 210              		.cfi_endproc
 211              	.LFE136:
 213              		.section	.text.FLASH_OB_GetPCROP,"ax",%progbits
 214              		.align	1
 215              		.syntax unified
 216              		.thumb
 217              		.thumb_func
 218              		.fpu fpv4-sp-d16
 220              	FLASH_OB_GetPCROP:
 221              	.LVL11:
 222              	.LFB137:
1218:Drivers/STM32L4xx_HAL_Driver/Src/stm32l4xx_hal_flash_ex.c **** 
1219:Drivers/STM32L4xx_HAL_Driver/Src/stm32l4xx_hal_flash_ex.c **** /**
1220:Drivers/STM32L4xx_HAL_Driver/Src/stm32l4xx_hal_flash_ex.c ****   * @brief  Return the FLASH Write Protection Option Bytes value.
1221:Drivers/STM32L4xx_HAL_Driver/Src/stm32l4xx_hal_flash_ex.c ****   *
1222:Drivers/STM32L4xx_HAL_Driver/Src/stm32l4xx_hal_flash_ex.c ****   * @param PCROPConfig [inout]: specifies the configuration (Bank to be configured and PCROP_RDP op
1223:Drivers/STM32L4xx_HAL_Driver/Src/stm32l4xx_hal_flash_ex.c ****   *          This parameter must be a combination of FLASH_BANK_1 or FLASH_BANK_2 
1224:Drivers/STM32L4xx_HAL_Driver/Src/stm32l4xx_hal_flash_ex.c ****   *          with OB_PCROP_RDP_NOT_ERASE or OB_PCROP_RDP_ERASE
1225:Drivers/STM32L4xx_HAL_Driver/Src/stm32l4xx_hal_flash_ex.c ****   *
1226:Drivers/STM32L4xx_HAL_Driver/Src/stm32l4xx_hal_flash_ex.c ****   * @param PCROPStartAddr [out]: specifies the address where to copied the start address 
1227:Drivers/STM32L4xx_HAL_Driver/Src/stm32l4xx_hal_flash_ex.c ****   *                         of the Proprietary code readout protection
1228:Drivers/STM32L4xx_HAL_Driver/Src/stm32l4xx_hal_flash_ex.c ****   *
1229:Drivers/STM32L4xx_HAL_Driver/Src/stm32l4xx_hal_flash_ex.c ****   * @param PCROPEndAddr [out]: specifies the address where to copied the end address of 
1230:Drivers/STM32L4xx_HAL_Driver/Src/stm32l4xx_hal_flash_ex.c ****   *                       the Proprietary code readout protection
1231:Drivers/STM32L4xx_HAL_Driver/Src/stm32l4xx_hal_flash_ex.c ****   *
1232:Drivers/STM32L4xx_HAL_Driver/Src/stm32l4xx_hal_flash_ex.c ****   * @retval None
1233:Drivers/STM32L4xx_HAL_Driver/Src/stm32l4xx_hal_flash_ex.c ****   */
1234:Drivers/STM32L4xx_HAL_Driver/Src/stm32l4xx_hal_flash_ex.c **** static void FLASH_OB_GetPCROP(uint32_t * PCROPConfig, uint32_t * PCROPStartAddr, uint32_t * PCROPEn
1235:Drivers/STM32L4xx_HAL_Driver/Src/stm32l4xx_hal_flash_ex.c **** {
 223              		.loc 1 1235 1 is_stmt 1 view -0
 224              		.cfi_startproc
 225              		@ args = 0, pretend = 0, frame = 0
 226              		@ frame_needed = 0, uses_anonymous_args = 0
 227              		@ link register save eliminated.
 228              		.loc 1 1235 1 is_stmt 0 view .LVU51
 229 0000 30B4     		push	{r4, r5}
 230              	.LCFI0:
 231              		.cfi_def_cfa_offset 8
 232              		.cfi_offset 4, -8
 233              		.cfi_offset 5, -4
1236:Drivers/STM32L4xx_HAL_Driver/Src/stm32l4xx_hal_flash_ex.c ****   uint32_t reg_value;
 234              		.loc 1 1236 3 is_stmt 1 view .LVU52
1237:Drivers/STM32L4xx_HAL_Driver/Src/stm32l4xx_hal_flash_ex.c ****   uint32_t bank1_addr;
 235              		.loc 1 1237 3 view .LVU53
1238:Drivers/STM32L4xx_HAL_Driver/Src/stm32l4xx_hal_flash_ex.c **** #if defined (STM32L471xx) || defined (STM32L475xx) || defined (STM32L476xx) || defined (STM32L485xx
1239:Drivers/STM32L4xx_HAL_Driver/Src/stm32l4xx_hal_flash_ex.c ****     defined (STM32L496xx) || defined (STM32L4A6xx) || \
1240:Drivers/STM32L4xx_HAL_Driver/Src/stm32l4xx_hal_flash_ex.c ****     defined (STM32L4R5xx) || defined (STM32L4R7xx) || defined (STM32L4R9xx) || defined (STM32L4S5xx
1241:Drivers/STM32L4xx_HAL_Driver/Src/stm32l4xx_hal_flash_ex.c ****   uint32_t bank2_addr;
1242:Drivers/STM32L4xx_HAL_Driver/Src/stm32l4xx_hal_flash_ex.c **** #endif
1243:Drivers/STM32L4xx_HAL_Driver/Src/stm32l4xx_hal_flash_ex.c ****   
1244:Drivers/STM32L4xx_HAL_Driver/Src/stm32l4xx_hal_flash_ex.c **** #if defined (STM32L471xx) || defined (STM32L475xx) || defined (STM32L476xx) || defined (STM32L485xx
ARM GAS  /tmp/ccWeCwHW.s 			page 27


1245:Drivers/STM32L4xx_HAL_Driver/Src/stm32l4xx_hal_flash_ex.c ****     defined (STM32L496xx) || defined (STM32L4A6xx) || \
1246:Drivers/STM32L4xx_HAL_Driver/Src/stm32l4xx_hal_flash_ex.c ****     defined (STM32L4R5xx) || defined (STM32L4R7xx) || defined (STM32L4R9xx) || defined (STM32L4S5xx
1247:Drivers/STM32L4xx_HAL_Driver/Src/stm32l4xx_hal_flash_ex.c ****   /* Get the information about the bank swapping */
1248:Drivers/STM32L4xx_HAL_Driver/Src/stm32l4xx_hal_flash_ex.c ****   if (READ_BIT(SYSCFG->MEMRMP, SYSCFG_MEMRMP_FB_MODE) == 0U)
1249:Drivers/STM32L4xx_HAL_Driver/Src/stm32l4xx_hal_flash_ex.c ****   {
1250:Drivers/STM32L4xx_HAL_Driver/Src/stm32l4xx_hal_flash_ex.c ****     bank1_addr = FLASH_BASE;
1251:Drivers/STM32L4xx_HAL_Driver/Src/stm32l4xx_hal_flash_ex.c ****     bank2_addr = FLASH_BASE + FLASH_BANK_SIZE;
1252:Drivers/STM32L4xx_HAL_Driver/Src/stm32l4xx_hal_flash_ex.c ****   }
1253:Drivers/STM32L4xx_HAL_Driver/Src/stm32l4xx_hal_flash_ex.c ****   else
1254:Drivers/STM32L4xx_HAL_Driver/Src/stm32l4xx_hal_flash_ex.c ****   {
1255:Drivers/STM32L4xx_HAL_Driver/Src/stm32l4xx_hal_flash_ex.c ****     bank1_addr = FLASH_BASE + FLASH_BANK_SIZE;
1256:Drivers/STM32L4xx_HAL_Driver/Src/stm32l4xx_hal_flash_ex.c ****     bank2_addr = FLASH_BASE;
1257:Drivers/STM32L4xx_HAL_Driver/Src/stm32l4xx_hal_flash_ex.c ****   }
1258:Drivers/STM32L4xx_HAL_Driver/Src/stm32l4xx_hal_flash_ex.c **** #else
1259:Drivers/STM32L4xx_HAL_Driver/Src/stm32l4xx_hal_flash_ex.c ****   bank1_addr = FLASH_BASE;
 236              		.loc 1 1259 3 view .LVU54
 237              	.LVL12:
1260:Drivers/STM32L4xx_HAL_Driver/Src/stm32l4xx_hal_flash_ex.c **** #endif
1261:Drivers/STM32L4xx_HAL_Driver/Src/stm32l4xx_hal_flash_ex.c ****   
1262:Drivers/STM32L4xx_HAL_Driver/Src/stm32l4xx_hal_flash_ex.c **** #if defined (STM32L4R5xx) || defined (STM32L4R7xx) || defined (STM32L4R9xx) || defined (STM32L4S5xx
1263:Drivers/STM32L4xx_HAL_Driver/Src/stm32l4xx_hal_flash_ex.c ****   if (READ_BIT(FLASH->OPTR, FLASH_OPTR_DBANK) == 0U)
1264:Drivers/STM32L4xx_HAL_Driver/Src/stm32l4xx_hal_flash_ex.c ****   {
1265:Drivers/STM32L4xx_HAL_Driver/Src/stm32l4xx_hal_flash_ex.c ****     if(((*PCROPConfig) & FLASH_BANK_BOTH) == FLASH_BANK_1)
1266:Drivers/STM32L4xx_HAL_Driver/Src/stm32l4xx_hal_flash_ex.c ****     {
1267:Drivers/STM32L4xx_HAL_Driver/Src/stm32l4xx_hal_flash_ex.c ****       reg_value       = (READ_REG(FLASH->PCROP1SR) & FLASH_PCROP1SR_PCROP1_STRT);
1268:Drivers/STM32L4xx_HAL_Driver/Src/stm32l4xx_hal_flash_ex.c ****       *PCROPStartAddr = (reg_value << 4) + FLASH_BASE;
1269:Drivers/STM32L4xx_HAL_Driver/Src/stm32l4xx_hal_flash_ex.c ****       
1270:Drivers/STM32L4xx_HAL_Driver/Src/stm32l4xx_hal_flash_ex.c ****       reg_value     = (READ_REG(FLASH->PCROP1ER) & FLASH_PCROP1ER_PCROP1_END);
1271:Drivers/STM32L4xx_HAL_Driver/Src/stm32l4xx_hal_flash_ex.c ****       *PCROPEndAddr = (reg_value << 4) + FLASH_BASE;
1272:Drivers/STM32L4xx_HAL_Driver/Src/stm32l4xx_hal_flash_ex.c ****     }
1273:Drivers/STM32L4xx_HAL_Driver/Src/stm32l4xx_hal_flash_ex.c ****     else if(((*PCROPConfig) & FLASH_BANK_BOTH) == FLASH_BANK_2)
1274:Drivers/STM32L4xx_HAL_Driver/Src/stm32l4xx_hal_flash_ex.c ****     {
1275:Drivers/STM32L4xx_HAL_Driver/Src/stm32l4xx_hal_flash_ex.c ****       reg_value       = (READ_REG(FLASH->PCROP2SR) & FLASH_PCROP2SR_PCROP2_STRT);
1276:Drivers/STM32L4xx_HAL_Driver/Src/stm32l4xx_hal_flash_ex.c ****       *PCROPStartAddr = (reg_value << 4) + FLASH_BASE;
1277:Drivers/STM32L4xx_HAL_Driver/Src/stm32l4xx_hal_flash_ex.c ****       
1278:Drivers/STM32L4xx_HAL_Driver/Src/stm32l4xx_hal_flash_ex.c ****       reg_value     = (READ_REG(FLASH->PCROP2ER) & FLASH_PCROP2ER_PCROP2_END);
1279:Drivers/STM32L4xx_HAL_Driver/Src/stm32l4xx_hal_flash_ex.c ****       *PCROPEndAddr = (reg_value << 4) + FLASH_BASE;
1280:Drivers/STM32L4xx_HAL_Driver/Src/stm32l4xx_hal_flash_ex.c ****     }
1281:Drivers/STM32L4xx_HAL_Driver/Src/stm32l4xx_hal_flash_ex.c ****     else
1282:Drivers/STM32L4xx_HAL_Driver/Src/stm32l4xx_hal_flash_ex.c ****     {
1283:Drivers/STM32L4xx_HAL_Driver/Src/stm32l4xx_hal_flash_ex.c ****       /* Nothing to do */
1284:Drivers/STM32L4xx_HAL_Driver/Src/stm32l4xx_hal_flash_ex.c ****     }
1285:Drivers/STM32L4xx_HAL_Driver/Src/stm32l4xx_hal_flash_ex.c ****   }
1286:Drivers/STM32L4xx_HAL_Driver/Src/stm32l4xx_hal_flash_ex.c ****   else
1287:Drivers/STM32L4xx_HAL_Driver/Src/stm32l4xx_hal_flash_ex.c **** #endif
1288:Drivers/STM32L4xx_HAL_Driver/Src/stm32l4xx_hal_flash_ex.c ****   {
1289:Drivers/STM32L4xx_HAL_Driver/Src/stm32l4xx_hal_flash_ex.c ****     if(((*PCROPConfig) & FLASH_BANK_BOTH) == FLASH_BANK_1)
 238              		.loc 1 1289 5 view .LVU55
 239              		.loc 1 1289 10 is_stmt 0 view .LVU56
 240 0002 0368     		ldr	r3, [r0]
 241              		.loc 1 1289 7 view .LVU57
 242 0004 13F0010F 		tst	r3, #1
 243 0008 0DD0     		beq	.L21
1290:Drivers/STM32L4xx_HAL_Driver/Src/stm32l4xx_hal_flash_ex.c ****     {
1291:Drivers/STM32L4xx_HAL_Driver/Src/stm32l4xx_hal_flash_ex.c ****       reg_value       = (READ_REG(FLASH->PCROP1SR) & FLASH_PCROP1SR_PCROP1_STRT);
 244              		.loc 1 1291 7 is_stmt 1 view .LVU58
 245              		.loc 1 1291 26 is_stmt 0 view .LVU59
ARM GAS  /tmp/ccWeCwHW.s 			page 28


 246 000a 0B4D     		ldr	r5, .L23
 247 000c 6C6A     		ldr	r4, [r5, #36]
 248              	.LVL13:
1292:Drivers/STM32L4xx_HAL_Driver/Src/stm32l4xx_hal_flash_ex.c ****       *PCROPStartAddr = (reg_value << 3) + bank1_addr;
 249              		.loc 1 1292 7 is_stmt 1 view .LVU60
 250              		.loc 1 1292 36 is_stmt 0 view .LVU61
 251 000e 0B4B     		ldr	r3, .L23+4
 252 0010 03EAC404 		and	r4, r3, r4, lsl #3
 253              	.LVL14:
 254              		.loc 1 1292 42 view .LVU62
 255 0014 04F10064 		add	r4, r4, #134217728
 256              		.loc 1 1292 23 view .LVU63
 257 0018 0C60     		str	r4, [r1]
1293:Drivers/STM32L4xx_HAL_Driver/Src/stm32l4xx_hal_flash_ex.c ****       
1294:Drivers/STM32L4xx_HAL_Driver/Src/stm32l4xx_hal_flash_ex.c ****       reg_value     = (READ_REG(FLASH->PCROP1ER) & FLASH_PCROP1ER_PCROP1_END);
 258              		.loc 1 1294 7 is_stmt 1 view .LVU64
 259              		.loc 1 1294 24 is_stmt 0 view .LVU65
 260 001a A96A     		ldr	r1, [r5, #40]
 261              	.LVL15:
1295:Drivers/STM32L4xx_HAL_Driver/Src/stm32l4xx_hal_flash_ex.c ****       *PCROPEndAddr = (reg_value << 3) + bank1_addr;
 262              		.loc 1 1295 7 is_stmt 1 view .LVU66
 263              		.loc 1 1295 34 is_stmt 0 view .LVU67
 264 001c 03EAC103 		and	r3, r3, r1, lsl #3
 265              		.loc 1 1295 40 view .LVU68
 266 0020 03F10063 		add	r3, r3, #134217728
 267              		.loc 1 1295 21 view .LVU69
 268 0024 1360     		str	r3, [r2]
 269              	.LVL16:
 270              	.L21:
1296:Drivers/STM32L4xx_HAL_Driver/Src/stm32l4xx_hal_flash_ex.c ****     }
1297:Drivers/STM32L4xx_HAL_Driver/Src/stm32l4xx_hal_flash_ex.c **** #if defined (STM32L471xx) || defined (STM32L475xx) || defined (STM32L476xx) || defined (STM32L485xx
1298:Drivers/STM32L4xx_HAL_Driver/Src/stm32l4xx_hal_flash_ex.c ****     defined (STM32L496xx) || defined (STM32L4A6xx) || \
1299:Drivers/STM32L4xx_HAL_Driver/Src/stm32l4xx_hal_flash_ex.c ****     defined (STM32L4R5xx) || defined (STM32L4R7xx) || defined (STM32L4R9xx) || defined (STM32L4S5xx
1300:Drivers/STM32L4xx_HAL_Driver/Src/stm32l4xx_hal_flash_ex.c ****     else if(((*PCROPConfig) & FLASH_BANK_BOTH) == FLASH_BANK_2)
1301:Drivers/STM32L4xx_HAL_Driver/Src/stm32l4xx_hal_flash_ex.c ****     {
1302:Drivers/STM32L4xx_HAL_Driver/Src/stm32l4xx_hal_flash_ex.c ****       reg_value       = (READ_REG(FLASH->PCROP2SR) & FLASH_PCROP2SR_PCROP2_STRT);
1303:Drivers/STM32L4xx_HAL_Driver/Src/stm32l4xx_hal_flash_ex.c ****       *PCROPStartAddr = (reg_value << 3) + bank2_addr;
1304:Drivers/STM32L4xx_HAL_Driver/Src/stm32l4xx_hal_flash_ex.c ****       
1305:Drivers/STM32L4xx_HAL_Driver/Src/stm32l4xx_hal_flash_ex.c ****       reg_value     = (READ_REG(FLASH->PCROP2ER) & FLASH_PCROP2ER_PCROP2_END);
1306:Drivers/STM32L4xx_HAL_Driver/Src/stm32l4xx_hal_flash_ex.c ****       *PCROPEndAddr = (reg_value << 3) + bank2_addr;
1307:Drivers/STM32L4xx_HAL_Driver/Src/stm32l4xx_hal_flash_ex.c ****     }
1308:Drivers/STM32L4xx_HAL_Driver/Src/stm32l4xx_hal_flash_ex.c **** #endif
1309:Drivers/STM32L4xx_HAL_Driver/Src/stm32l4xx_hal_flash_ex.c ****     else
1310:Drivers/STM32L4xx_HAL_Driver/Src/stm32l4xx_hal_flash_ex.c ****     {
1311:Drivers/STM32L4xx_HAL_Driver/Src/stm32l4xx_hal_flash_ex.c ****       /* Nothing to do */
1312:Drivers/STM32L4xx_HAL_Driver/Src/stm32l4xx_hal_flash_ex.c ****     }
 271              		.loc 1 1312 5 is_stmt 1 view .LVU70
1313:Drivers/STM32L4xx_HAL_Driver/Src/stm32l4xx_hal_flash_ex.c ****   }
1314:Drivers/STM32L4xx_HAL_Driver/Src/stm32l4xx_hal_flash_ex.c ****   
1315:Drivers/STM32L4xx_HAL_Driver/Src/stm32l4xx_hal_flash_ex.c ****   *PCROPConfig |= (READ_REG(FLASH->PCROP1ER) & FLASH_PCROP1ER_PCROP_RDP);
 272              		.loc 1 1315 3 view .LVU71
 273              		.loc 1 1315 20 is_stmt 0 view .LVU72
 274 0026 044B     		ldr	r3, .L23
 275 0028 9A6A     		ldr	r2, [r3, #40]
 276              	.LVL17:
 277              		.loc 1 1315 46 view .LVU73
 278 002a 02F00042 		and	r2, r2, #-2147483648
ARM GAS  /tmp/ccWeCwHW.s 			page 29


 279              		.loc 1 1315 16 view .LVU74
 280 002e 0368     		ldr	r3, [r0]
 281 0030 1343     		orrs	r3, r3, r2
 282 0032 0360     		str	r3, [r0]
1316:Drivers/STM32L4xx_HAL_Driver/Src/stm32l4xx_hal_flash_ex.c **** }
 283              		.loc 1 1316 1 view .LVU75
 284 0034 30BC     		pop	{r4, r5}
 285              	.LCFI1:
 286              		.cfi_restore 5
 287              		.cfi_restore 4
 288              		.cfi_def_cfa_offset 0
 289 0036 7047     		bx	lr
 290              	.L24:
 291              		.align	2
 292              	.L23:
 293 0038 00200240 		.word	1073881088
 294 003c F8FF0700 		.word	524280
 295              		.cfi_endproc
 296              	.LFE137:
 298              		.section	.text.FLASH_OB_WRPConfig,"ax",%progbits
 299              		.align	1
 300              		.syntax unified
 301              		.thumb
 302              		.thumb_func
 303              		.fpu fpv4-sp-d16
 305              	FLASH_OB_WRPConfig:
 306              	.LVL18:
 307              	.LFB130:
 680:Drivers/STM32L4xx_HAL_Driver/Src/stm32l4xx_hal_flash_ex.c ****   HAL_StatusTypeDef status;
 308              		.loc 1 680 1 is_stmt 1 view -0
 309              		.cfi_startproc
 310              		@ args = 0, pretend = 0, frame = 0
 311              		@ frame_needed = 0, uses_anonymous_args = 0
 680:Drivers/STM32L4xx_HAL_Driver/Src/stm32l4xx_hal_flash_ex.c ****   HAL_StatusTypeDef status;
 312              		.loc 1 680 1 is_stmt 0 view .LVU77
 313 0000 70B5     		push	{r4, r5, r6, lr}
 314              	.LCFI2:
 315              		.cfi_def_cfa_offset 16
 316              		.cfi_offset 4, -16
 317              		.cfi_offset 5, -12
 318              		.cfi_offset 6, -8
 319              		.cfi_offset 14, -4
 320 0002 0446     		mov	r4, r0
 321 0004 0E46     		mov	r6, r1
 322 0006 1546     		mov	r5, r2
 681:Drivers/STM32L4xx_HAL_Driver/Src/stm32l4xx_hal_flash_ex.c **** 
 323              		.loc 1 681 3 is_stmt 1 view .LVU78
 684:Drivers/STM32L4xx_HAL_Driver/Src/stm32l4xx_hal_flash_ex.c ****   assert_param(IS_FLASH_PAGE(WRPStartOffset));
 324              		.loc 1 684 3 view .LVU79
 685:Drivers/STM32L4xx_HAL_Driver/Src/stm32l4xx_hal_flash_ex.c ****   assert_param(IS_FLASH_PAGE(WRDPEndOffset));
 325              		.loc 1 685 3 view .LVU80
 686:Drivers/STM32L4xx_HAL_Driver/Src/stm32l4xx_hal_flash_ex.c **** 
 326              		.loc 1 686 3 view .LVU81
 689:Drivers/STM32L4xx_HAL_Driver/Src/stm32l4xx_hal_flash_ex.c **** 
 327              		.loc 1 689 3 view .LVU82
 689:Drivers/STM32L4xx_HAL_Driver/Src/stm32l4xx_hal_flash_ex.c **** 
 328              		.loc 1 689 12 is_stmt 0 view .LVU83
ARM GAS  /tmp/ccWeCwHW.s 			page 30


 329 0008 4CF25030 		movw	r0, #50000
 330              	.LVL19:
 689:Drivers/STM32L4xx_HAL_Driver/Src/stm32l4xx_hal_flash_ex.c **** 
 331              		.loc 1 689 12 view .LVU84
 332 000c FFF7FEFF 		bl	FLASH_WaitForLastOperation
 333              	.LVL20:
 691:Drivers/STM32L4xx_HAL_Driver/Src/stm32l4xx_hal_flash_ex.c ****   {
 334              		.loc 1 691 3 is_stmt 1 view .LVU85
 691:Drivers/STM32L4xx_HAL_Driver/Src/stm32l4xx_hal_flash_ex.c ****   {
 335              		.loc 1 691 5 is_stmt 0 view .LVU86
 336 0010 A8B9     		cbnz	r0, .L26
 694:Drivers/STM32L4xx_HAL_Driver/Src/stm32l4xx_hal_flash_ex.c ****     {
 337              		.loc 1 694 5 is_stmt 1 view .LVU87
 694:Drivers/STM32L4xx_HAL_Driver/Src/stm32l4xx_hal_flash_ex.c ****     {
 338              		.loc 1 694 7 is_stmt 0 view .LVU88
 339 0012 ACB9     		cbnz	r4, .L27
 696:Drivers/STM32L4xx_HAL_Driver/Src/stm32l4xx_hal_flash_ex.c ****                  (WRPStartOffset | (WRDPEndOffset << 16)));
 340              		.loc 1 696 7 is_stmt 1 view .LVU89
 341 0014 1048     		ldr	r0, .L30
 342 0016 C36A     		ldr	r3, [r0, #44]
 343 0018 03F0FF23 		and	r3, r3, #-16711936
 344 001c 46EA0542 		orr	r2, r6, r5, lsl #16
 345 0020 1A43     		orrs	r2, r2, r3
 346 0022 C262     		str	r2, [r0, #44]
 347              	.L28:
 721:Drivers/STM32L4xx_HAL_Driver/Src/stm32l4xx_hal_flash_ex.c ****     
 348              		.loc 1 721 5 view .LVU90
 724:Drivers/STM32L4xx_HAL_Driver/Src/stm32l4xx_hal_flash_ex.c ****     
 349              		.loc 1 724 5 view .LVU91
 350 0024 0C4C     		ldr	r4, .L30
 351              	.LVL21:
 724:Drivers/STM32L4xx_HAL_Driver/Src/stm32l4xx_hal_flash_ex.c ****     
 352              		.loc 1 724 5 is_stmt 0 view .LVU92
 353 0026 6369     		ldr	r3, [r4, #20]
 354 0028 43F40033 		orr	r3, r3, #131072
 355 002c 6361     		str	r3, [r4, #20]
 727:Drivers/STM32L4xx_HAL_Driver/Src/stm32l4xx_hal_flash_ex.c **** 
 356              		.loc 1 727 5 is_stmt 1 view .LVU93
 727:Drivers/STM32L4xx_HAL_Driver/Src/stm32l4xx_hal_flash_ex.c **** 
 357              		.loc 1 727 14 is_stmt 0 view .LVU94
 358 002e 4CF25030 		movw	r0, #50000
 359 0032 FFF7FEFF 		bl	FLASH_WaitForLastOperation
 360              	.LVL22:
 730:Drivers/STM32L4xx_HAL_Driver/Src/stm32l4xx_hal_flash_ex.c ****   }
 361              		.loc 1 730 5 is_stmt 1 view .LVU95
 362 0036 6369     		ldr	r3, [r4, #20]
 363 0038 23F40033 		bic	r3, r3, #131072
 364 003c 6361     		str	r3, [r4, #20]
 365              	.LVL23:
 366              	.L26:
 733:Drivers/STM32L4xx_HAL_Driver/Src/stm32l4xx_hal_flash_ex.c **** }
 367              		.loc 1 733 3 view .LVU96
 734:Drivers/STM32L4xx_HAL_Driver/Src/stm32l4xx_hal_flash_ex.c **** 
 368              		.loc 1 734 1 is_stmt 0 view .LVU97
 369 003e 70BD     		pop	{r4, r5, r6, pc}
 370              	.LVL24:
 371              	.L27:
ARM GAS  /tmp/ccWeCwHW.s 			page 31


 699:Drivers/STM32L4xx_HAL_Driver/Src/stm32l4xx_hal_flash_ex.c ****     {
 372              		.loc 1 699 10 is_stmt 1 view .LVU98
 699:Drivers/STM32L4xx_HAL_Driver/Src/stm32l4xx_hal_flash_ex.c ****     {
 373              		.loc 1 699 12 is_stmt 0 view .LVU99
 374 0040 012C     		cmp	r4, #1
 375 0042 EFD1     		bne	.L28
 701:Drivers/STM32L4xx_HAL_Driver/Src/stm32l4xx_hal_flash_ex.c ****                  (WRPStartOffset | (WRDPEndOffset << 16)));
 376              		.loc 1 701 7 is_stmt 1 view .LVU100
 377 0044 044B     		ldr	r3, .L30
 378 0046 196B     		ldr	r1, [r3, #48]
 379 0048 01F0FF21 		and	r1, r1, #-16711936
 380 004c 46EA0542 		orr	r2, r6, r5, lsl #16
 381 0050 0A43     		orrs	r2, r2, r1
 382 0052 1A63     		str	r2, [r3, #48]
 383 0054 E6E7     		b	.L28
 384              	.L31:
 385 0056 00BF     		.align	2
 386              	.L30:
 387 0058 00200240 		.word	1073881088
 388              		.cfi_endproc
 389              	.LFE130:
 391              		.section	.text.FLASH_OB_RDPConfig,"ax",%progbits
 392              		.align	1
 393              		.syntax unified
 394              		.thumb
 395              		.thumb_func
 396              		.fpu fpv4-sp-d16
 398              	FLASH_OB_RDPConfig:
 399              	.LVL25:
 400              	.LFB131:
 755:Drivers/STM32L4xx_HAL_Driver/Src/stm32l4xx_hal_flash_ex.c ****   HAL_StatusTypeDef status;
 401              		.loc 1 755 1 view -0
 402              		.cfi_startproc
 403              		@ args = 0, pretend = 0, frame = 0
 404              		@ frame_needed = 0, uses_anonymous_args = 0
 755:Drivers/STM32L4xx_HAL_Driver/Src/stm32l4xx_hal_flash_ex.c ****   HAL_StatusTypeDef status;
 405              		.loc 1 755 1 is_stmt 0 view .LVU102
 406 0000 38B5     		push	{r3, r4, r5, lr}
 407              	.LCFI3:
 408              		.cfi_def_cfa_offset 16
 409              		.cfi_offset 3, -16
 410              		.cfi_offset 4, -12
 411              		.cfi_offset 5, -8
 412              		.cfi_offset 14, -4
 413 0002 0446     		mov	r4, r0
 756:Drivers/STM32L4xx_HAL_Driver/Src/stm32l4xx_hal_flash_ex.c **** 
 414              		.loc 1 756 3 is_stmt 1 view .LVU103
 759:Drivers/STM32L4xx_HAL_Driver/Src/stm32l4xx_hal_flash_ex.c ****     
 415              		.loc 1 759 3 view .LVU104
 762:Drivers/STM32L4xx_HAL_Driver/Src/stm32l4xx_hal_flash_ex.c **** 
 416              		.loc 1 762 3 view .LVU105
 762:Drivers/STM32L4xx_HAL_Driver/Src/stm32l4xx_hal_flash_ex.c **** 
 417              		.loc 1 762 12 is_stmt 0 view .LVU106
 418 0004 4CF25030 		movw	r0, #50000
 419              	.LVL26:
 762:Drivers/STM32L4xx_HAL_Driver/Src/stm32l4xx_hal_flash_ex.c **** 
 420              		.loc 1 762 12 view .LVU107
ARM GAS  /tmp/ccWeCwHW.s 			page 32


 421 0008 FFF7FEFF 		bl	FLASH_WaitForLastOperation
 422              	.LVL27:
 764:Drivers/STM32L4xx_HAL_Driver/Src/stm32l4xx_hal_flash_ex.c ****   { 
 423              		.loc 1 764 3 is_stmt 1 view .LVU108
 764:Drivers/STM32L4xx_HAL_Driver/Src/stm32l4xx_hal_flash_ex.c ****   { 
 424              		.loc 1 764 5 is_stmt 0 view .LVU109
 425 000c 00B1     		cbz	r0, .L35
 426              	.L33:
 427              	.LVL28:
 779:Drivers/STM32L4xx_HAL_Driver/Src/stm32l4xx_hal_flash_ex.c **** }
 428              		.loc 1 779 3 is_stmt 1 view .LVU110
 780:Drivers/STM32L4xx_HAL_Driver/Src/stm32l4xx_hal_flash_ex.c **** 
 429              		.loc 1 780 1 is_stmt 0 view .LVU111
 430 000e 38BD     		pop	{r3, r4, r5, pc}
 431              	.LVL29:
 432              	.L35:
 767:Drivers/STM32L4xx_HAL_Driver/Src/stm32l4xx_hal_flash_ex.c ****     
 433              		.loc 1 767 5 is_stmt 1 view .LVU112
 434 0010 094D     		ldr	r5, .L36
 435 0012 286A     		ldr	r0, [r5, #32]
 436 0014 20F0FF00 		bic	r0, r0, #255
 437 0018 2043     		orrs	r0, r0, r4
 438 001a 2862     		str	r0, [r5, #32]
 770:Drivers/STM32L4xx_HAL_Driver/Src/stm32l4xx_hal_flash_ex.c ****     
 439              		.loc 1 770 5 view .LVU113
 440 001c 6B69     		ldr	r3, [r5, #20]
 441 001e 43F40033 		orr	r3, r3, #131072
 442 0022 6B61     		str	r3, [r5, #20]
 773:Drivers/STM32L4xx_HAL_Driver/Src/stm32l4xx_hal_flash_ex.c **** 
 443              		.loc 1 773 5 view .LVU114
 773:Drivers/STM32L4xx_HAL_Driver/Src/stm32l4xx_hal_flash_ex.c **** 
 444              		.loc 1 773 14 is_stmt 0 view .LVU115
 445 0024 4CF25030 		movw	r0, #50000
 446 0028 FFF7FEFF 		bl	FLASH_WaitForLastOperation
 447              	.LVL30:
 776:Drivers/STM32L4xx_HAL_Driver/Src/stm32l4xx_hal_flash_ex.c ****   }
 448              		.loc 1 776 5 is_stmt 1 view .LVU116
 449 002c 6B69     		ldr	r3, [r5, #20]
 450 002e 23F40033 		bic	r3, r3, #131072
 451 0032 6B61     		str	r3, [r5, #20]
 452 0034 EBE7     		b	.L33
 453              	.L37:
 454 0036 00BF     		.align	2
 455              	.L36:
 456 0038 00200240 		.word	1073881088
 457              		.cfi_endproc
 458              	.LFE131:
 460              		.section	.text.FLASH_OB_UserConfig,"ax",%progbits
 461              		.align	1
 462              		.syntax unified
 463              		.thumb
 464              		.thumb_func
 465              		.fpu fpv4-sp-d16
 467              	FLASH_OB_UserConfig:
 468              	.LVL31:
 469              	.LFB132:
 799:Drivers/STM32L4xx_HAL_Driver/Src/stm32l4xx_hal_flash_ex.c ****   uint32_t optr_reg_val = 0;
ARM GAS  /tmp/ccWeCwHW.s 			page 33


 470              		.loc 1 799 1 view -0
 471              		.cfi_startproc
 472              		@ args = 0, pretend = 0, frame = 0
 473              		@ frame_needed = 0, uses_anonymous_args = 0
 799:Drivers/STM32L4xx_HAL_Driver/Src/stm32l4xx_hal_flash_ex.c ****   uint32_t optr_reg_val = 0;
 474              		.loc 1 799 1 is_stmt 0 view .LVU118
 475 0000 38B5     		push	{r3, r4, r5, lr}
 476              	.LCFI4:
 477              		.cfi_def_cfa_offset 16
 478              		.cfi_offset 3, -16
 479              		.cfi_offset 4, -12
 480              		.cfi_offset 5, -8
 481              		.cfi_offset 14, -4
 482 0002 0446     		mov	r4, r0
 483 0004 0D46     		mov	r5, r1
 800:Drivers/STM32L4xx_HAL_Driver/Src/stm32l4xx_hal_flash_ex.c ****   uint32_t optr_reg_mask = 0;
 484              		.loc 1 800 3 is_stmt 1 view .LVU119
 485              	.LVL32:
 801:Drivers/STM32L4xx_HAL_Driver/Src/stm32l4xx_hal_flash_ex.c ****   HAL_StatusTypeDef status;
 486              		.loc 1 801 3 view .LVU120
 802:Drivers/STM32L4xx_HAL_Driver/Src/stm32l4xx_hal_flash_ex.c **** 
 487              		.loc 1 802 3 view .LVU121
 805:Drivers/STM32L4xx_HAL_Driver/Src/stm32l4xx_hal_flash_ex.c ****   
 488              		.loc 1 805 3 view .LVU122
 808:Drivers/STM32L4xx_HAL_Driver/Src/stm32l4xx_hal_flash_ex.c **** 
 489              		.loc 1 808 3 view .LVU123
 808:Drivers/STM32L4xx_HAL_Driver/Src/stm32l4xx_hal_flash_ex.c **** 
 490              		.loc 1 808 12 is_stmt 0 view .LVU124
 491 0006 4CF25030 		movw	r0, #50000
 492              	.LVL33:
 808:Drivers/STM32L4xx_HAL_Driver/Src/stm32l4xx_hal_flash_ex.c **** 
 493              		.loc 1 808 12 view .LVU125
 494 000a FFF7FEFF 		bl	FLASH_WaitForLastOperation
 495              	.LVL34:
 810:Drivers/STM32L4xx_HAL_Driver/Src/stm32l4xx_hal_flash_ex.c ****   { 
 496              		.loc 1 810 3 is_stmt 1 view .LVU126
 810:Drivers/STM32L4xx_HAL_Driver/Src/stm32l4xx_hal_flash_ex.c ****   { 
 497              		.loc 1 810 5 is_stmt 0 view .LVU127
 498 000e 0028     		cmp	r0, #0
 499 0010 7AD1     		bne	.L39
 812:Drivers/STM32L4xx_HAL_Driver/Src/stm32l4xx_hal_flash_ex.c ****     {
 500              		.loc 1 812 5 is_stmt 1 view .LVU128
 812:Drivers/STM32L4xx_HAL_Driver/Src/stm32l4xx_hal_flash_ex.c ****     {
 501              		.loc 1 812 7 is_stmt 0 view .LVU129
 502 0012 14F00103 		ands	r3, r4, #1
 503 0016 04D0     		beq	.L53
 815:Drivers/STM32L4xx_HAL_Driver/Src/stm32l4xx_hal_flash_ex.c ****     
 504              		.loc 1 815 7 is_stmt 1 view .LVU130
 818:Drivers/STM32L4xx_HAL_Driver/Src/stm32l4xx_hal_flash_ex.c ****       optr_reg_mask |= FLASH_OPTR_BOR_LEV;
 505              		.loc 1 818 7 view .LVU131
 818:Drivers/STM32L4xx_HAL_Driver/Src/stm32l4xx_hal_flash_ex.c ****       optr_reg_mask |= FLASH_OPTR_BOR_LEV;
 506              		.loc 1 818 35 is_stmt 0 view .LVU132
 507 0018 05F4E063 		and	r3, r5, #1792
 508              	.LVL35:
 819:Drivers/STM32L4xx_HAL_Driver/Src/stm32l4xx_hal_flash_ex.c ****     }
 509              		.loc 1 819 7 is_stmt 1 view .LVU133
 819:Drivers/STM32L4xx_HAL_Driver/Src/stm32l4xx_hal_flash_ex.c ****     }
ARM GAS  /tmp/ccWeCwHW.s 			page 34


 510              		.loc 1 819 21 is_stmt 0 view .LVU134
 511 001c 4FF4E062 		mov	r2, #1792
 512 0020 00E0     		b	.L40
 513              	.LVL36:
 514              	.L53:
 801:Drivers/STM32L4xx_HAL_Driver/Src/stm32l4xx_hal_flash_ex.c ****   HAL_StatusTypeDef status;
 515              		.loc 1 801 12 view .LVU135
 516 0022 1A46     		mov	r2, r3
 517              	.LVL37:
 518              	.L40:
 822:Drivers/STM32L4xx_HAL_Driver/Src/stm32l4xx_hal_flash_ex.c ****     {
 519              		.loc 1 822 5 is_stmt 1 view .LVU136
 822:Drivers/STM32L4xx_HAL_Driver/Src/stm32l4xx_hal_flash_ex.c ****     {
 520              		.loc 1 822 7 is_stmt 0 view .LVU137
 521 0024 14F0020F 		tst	r4, #2
 522 0028 04D0     		beq	.L41
 825:Drivers/STM32L4xx_HAL_Driver/Src/stm32l4xx_hal_flash_ex.c ****     
 523              		.loc 1 825 7 is_stmt 1 view .LVU138
 828:Drivers/STM32L4xx_HAL_Driver/Src/stm32l4xx_hal_flash_ex.c ****       optr_reg_mask |= FLASH_OPTR_nRST_STOP;
 524              		.loc 1 828 7 view .LVU139
 828:Drivers/STM32L4xx_HAL_Driver/Src/stm32l4xx_hal_flash_ex.c ****       optr_reg_mask |= FLASH_OPTR_nRST_STOP;
 525              		.loc 1 828 35 is_stmt 0 view .LVU140
 526 002a 05F48051 		and	r1, r5, #4096
 828:Drivers/STM32L4xx_HAL_Driver/Src/stm32l4xx_hal_flash_ex.c ****       optr_reg_mask |= FLASH_OPTR_nRST_STOP;
 527              		.loc 1 828 20 view .LVU141
 528 002e 0B43     		orrs	r3, r3, r1
 529              	.LVL38:
 829:Drivers/STM32L4xx_HAL_Driver/Src/stm32l4xx_hal_flash_ex.c ****     }
 530              		.loc 1 829 7 is_stmt 1 view .LVU142
 829:Drivers/STM32L4xx_HAL_Driver/Src/stm32l4xx_hal_flash_ex.c ****     }
 531              		.loc 1 829 21 is_stmt 0 view .LVU143
 532 0030 42F48052 		orr	r2, r2, #4096
 533              	.LVL39:
 534              	.L41:
 832:Drivers/STM32L4xx_HAL_Driver/Src/stm32l4xx_hal_flash_ex.c ****     {
 535              		.loc 1 832 5 is_stmt 1 view .LVU144
 832:Drivers/STM32L4xx_HAL_Driver/Src/stm32l4xx_hal_flash_ex.c ****     {
 536              		.loc 1 832 7 is_stmt 0 view .LVU145
 537 0034 14F0040F 		tst	r4, #4
 538 0038 04D0     		beq	.L42
 835:Drivers/STM32L4xx_HAL_Driver/Src/stm32l4xx_hal_flash_ex.c ****     
 539              		.loc 1 835 7 is_stmt 1 view .LVU146
 838:Drivers/STM32L4xx_HAL_Driver/Src/stm32l4xx_hal_flash_ex.c ****       optr_reg_mask |= FLASH_OPTR_nRST_STDBY;
 540              		.loc 1 838 7 view .LVU147
 838:Drivers/STM32L4xx_HAL_Driver/Src/stm32l4xx_hal_flash_ex.c ****       optr_reg_mask |= FLASH_OPTR_nRST_STDBY;
 541              		.loc 1 838 35 is_stmt 0 view .LVU148
 542 003a 05F40051 		and	r1, r5, #8192
 838:Drivers/STM32L4xx_HAL_Driver/Src/stm32l4xx_hal_flash_ex.c ****       optr_reg_mask |= FLASH_OPTR_nRST_STDBY;
 543              		.loc 1 838 20 view .LVU149
 544 003e 0B43     		orrs	r3, r3, r1
 545              	.LVL40:
 839:Drivers/STM32L4xx_HAL_Driver/Src/stm32l4xx_hal_flash_ex.c ****     }
 546              		.loc 1 839 7 is_stmt 1 view .LVU150
 839:Drivers/STM32L4xx_HAL_Driver/Src/stm32l4xx_hal_flash_ex.c ****     }
 547              		.loc 1 839 21 is_stmt 0 view .LVU151
 548 0040 42F40052 		orr	r2, r2, #8192
 549              	.LVL41:
ARM GAS  /tmp/ccWeCwHW.s 			page 35


 550              	.L42:
 842:Drivers/STM32L4xx_HAL_Driver/Src/stm32l4xx_hal_flash_ex.c ****     {
 551              		.loc 1 842 5 is_stmt 1 view .LVU152
 842:Drivers/STM32L4xx_HAL_Driver/Src/stm32l4xx_hal_flash_ex.c ****     {
 552              		.loc 1 842 7 is_stmt 0 view .LVU153
 553 0044 14F4805F 		tst	r4, #4096
 554 0048 04D0     		beq	.L43
 845:Drivers/STM32L4xx_HAL_Driver/Src/stm32l4xx_hal_flash_ex.c ****     
 555              		.loc 1 845 7 is_stmt 1 view .LVU154
 848:Drivers/STM32L4xx_HAL_Driver/Src/stm32l4xx_hal_flash_ex.c ****       optr_reg_mask |= FLASH_OPTR_nRST_SHDW;
 556              		.loc 1 848 7 view .LVU155
 848:Drivers/STM32L4xx_HAL_Driver/Src/stm32l4xx_hal_flash_ex.c ****       optr_reg_mask |= FLASH_OPTR_nRST_SHDW;
 557              		.loc 1 848 35 is_stmt 0 view .LVU156
 558 004a 05F48041 		and	r1, r5, #16384
 848:Drivers/STM32L4xx_HAL_Driver/Src/stm32l4xx_hal_flash_ex.c ****       optr_reg_mask |= FLASH_OPTR_nRST_SHDW;
 559              		.loc 1 848 20 view .LVU157
 560 004e 0B43     		orrs	r3, r3, r1
 561              	.LVL42:
 849:Drivers/STM32L4xx_HAL_Driver/Src/stm32l4xx_hal_flash_ex.c ****     }
 562              		.loc 1 849 7 is_stmt 1 view .LVU158
 849:Drivers/STM32L4xx_HAL_Driver/Src/stm32l4xx_hal_flash_ex.c ****     }
 563              		.loc 1 849 21 is_stmt 0 view .LVU159
 564 0050 42F48042 		orr	r2, r2, #16384
 565              	.LVL43:
 566              	.L43:
 852:Drivers/STM32L4xx_HAL_Driver/Src/stm32l4xx_hal_flash_ex.c ****     {
 567              		.loc 1 852 5 is_stmt 1 view .LVU160
 852:Drivers/STM32L4xx_HAL_Driver/Src/stm32l4xx_hal_flash_ex.c ****     {
 568              		.loc 1 852 7 is_stmt 0 view .LVU161
 569 0054 14F0080F 		tst	r4, #8
 570 0058 04D0     		beq	.L44
 855:Drivers/STM32L4xx_HAL_Driver/Src/stm32l4xx_hal_flash_ex.c ****     
 571              		.loc 1 855 7 is_stmt 1 view .LVU162
 858:Drivers/STM32L4xx_HAL_Driver/Src/stm32l4xx_hal_flash_ex.c ****       optr_reg_mask |= FLASH_OPTR_IWDG_SW;
 572              		.loc 1 858 7 view .LVU163
 858:Drivers/STM32L4xx_HAL_Driver/Src/stm32l4xx_hal_flash_ex.c ****       optr_reg_mask |= FLASH_OPTR_IWDG_SW;
 573              		.loc 1 858 35 is_stmt 0 view .LVU164
 574 005a 05F48031 		and	r1, r5, #65536
 858:Drivers/STM32L4xx_HAL_Driver/Src/stm32l4xx_hal_flash_ex.c ****       optr_reg_mask |= FLASH_OPTR_IWDG_SW;
 575              		.loc 1 858 20 view .LVU165
 576 005e 0B43     		orrs	r3, r3, r1
 577              	.LVL44:
 859:Drivers/STM32L4xx_HAL_Driver/Src/stm32l4xx_hal_flash_ex.c ****     }
 578              		.loc 1 859 7 is_stmt 1 view .LVU166
 859:Drivers/STM32L4xx_HAL_Driver/Src/stm32l4xx_hal_flash_ex.c ****     }
 579              		.loc 1 859 21 is_stmt 0 view .LVU167
 580 0060 42F48032 		orr	r2, r2, #65536
 581              	.LVL45:
 582              	.L44:
 862:Drivers/STM32L4xx_HAL_Driver/Src/stm32l4xx_hal_flash_ex.c ****     {
 583              		.loc 1 862 5 is_stmt 1 view .LVU168
 862:Drivers/STM32L4xx_HAL_Driver/Src/stm32l4xx_hal_flash_ex.c ****     {
 584              		.loc 1 862 7 is_stmt 0 view .LVU169
 585 0064 14F0100F 		tst	r4, #16
 586 0068 04D0     		beq	.L45
 865:Drivers/STM32L4xx_HAL_Driver/Src/stm32l4xx_hal_flash_ex.c ****     
 587              		.loc 1 865 7 is_stmt 1 view .LVU170
ARM GAS  /tmp/ccWeCwHW.s 			page 36


 868:Drivers/STM32L4xx_HAL_Driver/Src/stm32l4xx_hal_flash_ex.c ****       optr_reg_mask |= FLASH_OPTR_IWDG_STOP;
 588              		.loc 1 868 7 view .LVU171
 868:Drivers/STM32L4xx_HAL_Driver/Src/stm32l4xx_hal_flash_ex.c ****       optr_reg_mask |= FLASH_OPTR_IWDG_STOP;
 589              		.loc 1 868 35 is_stmt 0 view .LVU172
 590 006a 05F40031 		and	r1, r5, #131072
 868:Drivers/STM32L4xx_HAL_Driver/Src/stm32l4xx_hal_flash_ex.c ****       optr_reg_mask |= FLASH_OPTR_IWDG_STOP;
 591              		.loc 1 868 20 view .LVU173
 592 006e 0B43     		orrs	r3, r3, r1
 593              	.LVL46:
 869:Drivers/STM32L4xx_HAL_Driver/Src/stm32l4xx_hal_flash_ex.c ****     }
 594              		.loc 1 869 7 is_stmt 1 view .LVU174
 869:Drivers/STM32L4xx_HAL_Driver/Src/stm32l4xx_hal_flash_ex.c ****     }
 595              		.loc 1 869 21 is_stmt 0 view .LVU175
 596 0070 42F40032 		orr	r2, r2, #131072
 597              	.LVL47:
 598              	.L45:
 872:Drivers/STM32L4xx_HAL_Driver/Src/stm32l4xx_hal_flash_ex.c ****     {
 599              		.loc 1 872 5 is_stmt 1 view .LVU176
 872:Drivers/STM32L4xx_HAL_Driver/Src/stm32l4xx_hal_flash_ex.c ****     {
 600              		.loc 1 872 7 is_stmt 0 view .LVU177
 601 0074 14F0200F 		tst	r4, #32
 602 0078 04D0     		beq	.L46
 875:Drivers/STM32L4xx_HAL_Driver/Src/stm32l4xx_hal_flash_ex.c ****     
 603              		.loc 1 875 7 is_stmt 1 view .LVU178
 878:Drivers/STM32L4xx_HAL_Driver/Src/stm32l4xx_hal_flash_ex.c ****       optr_reg_mask |= FLASH_OPTR_IWDG_STDBY;
 604              		.loc 1 878 7 view .LVU179
 878:Drivers/STM32L4xx_HAL_Driver/Src/stm32l4xx_hal_flash_ex.c ****       optr_reg_mask |= FLASH_OPTR_IWDG_STDBY;
 605              		.loc 1 878 35 is_stmt 0 view .LVU180
 606 007a 05F48021 		and	r1, r5, #262144
 878:Drivers/STM32L4xx_HAL_Driver/Src/stm32l4xx_hal_flash_ex.c ****       optr_reg_mask |= FLASH_OPTR_IWDG_STDBY;
 607              		.loc 1 878 20 view .LVU181
 608 007e 0B43     		orrs	r3, r3, r1
 609              	.LVL48:
 879:Drivers/STM32L4xx_HAL_Driver/Src/stm32l4xx_hal_flash_ex.c ****     }
 610              		.loc 1 879 7 is_stmt 1 view .LVU182
 879:Drivers/STM32L4xx_HAL_Driver/Src/stm32l4xx_hal_flash_ex.c ****     }
 611              		.loc 1 879 21 is_stmt 0 view .LVU183
 612 0080 42F48022 		orr	r2, r2, #262144
 613              	.LVL49:
 614              	.L46:
 882:Drivers/STM32L4xx_HAL_Driver/Src/stm32l4xx_hal_flash_ex.c ****     {
 615              		.loc 1 882 5 is_stmt 1 view .LVU184
 882:Drivers/STM32L4xx_HAL_Driver/Src/stm32l4xx_hal_flash_ex.c ****     {
 616              		.loc 1 882 7 is_stmt 0 view .LVU185
 617 0084 14F0400F 		tst	r4, #64
 618 0088 04D0     		beq	.L47
 885:Drivers/STM32L4xx_HAL_Driver/Src/stm32l4xx_hal_flash_ex.c ****     
 619              		.loc 1 885 7 is_stmt 1 view .LVU186
 888:Drivers/STM32L4xx_HAL_Driver/Src/stm32l4xx_hal_flash_ex.c ****       optr_reg_mask |= FLASH_OPTR_WWDG_SW;
 620              		.loc 1 888 7 view .LVU187
 888:Drivers/STM32L4xx_HAL_Driver/Src/stm32l4xx_hal_flash_ex.c ****       optr_reg_mask |= FLASH_OPTR_WWDG_SW;
 621              		.loc 1 888 35 is_stmt 0 view .LVU188
 622 008a 05F40021 		and	r1, r5, #524288
 888:Drivers/STM32L4xx_HAL_Driver/Src/stm32l4xx_hal_flash_ex.c ****       optr_reg_mask |= FLASH_OPTR_WWDG_SW;
 623              		.loc 1 888 20 view .LVU189
 624 008e 0B43     		orrs	r3, r3, r1
 625              	.LVL50:
ARM GAS  /tmp/ccWeCwHW.s 			page 37


 889:Drivers/STM32L4xx_HAL_Driver/Src/stm32l4xx_hal_flash_ex.c ****     }
 626              		.loc 1 889 7 is_stmt 1 view .LVU190
 889:Drivers/STM32L4xx_HAL_Driver/Src/stm32l4xx_hal_flash_ex.c ****     }
 627              		.loc 1 889 21 is_stmt 0 view .LVU191
 628 0090 42F40022 		orr	r2, r2, #524288
 629              	.LVL51:
 630              	.L47:
 925:Drivers/STM32L4xx_HAL_Driver/Src/stm32l4xx_hal_flash_ex.c ****     {
 631              		.loc 1 925 5 is_stmt 1 view .LVU192
 925:Drivers/STM32L4xx_HAL_Driver/Src/stm32l4xx_hal_flash_ex.c ****     {
 632              		.loc 1 925 7 is_stmt 0 view .LVU193
 633 0094 14F4007F 		tst	r4, #512
 634 0098 04D0     		beq	.L48
 928:Drivers/STM32L4xx_HAL_Driver/Src/stm32l4xx_hal_flash_ex.c ****     
 635              		.loc 1 928 7 is_stmt 1 view .LVU194
 931:Drivers/STM32L4xx_HAL_Driver/Src/stm32l4xx_hal_flash_ex.c ****       optr_reg_mask |= FLASH_OPTR_nBOOT1;
 636              		.loc 1 931 7 view .LVU195
 931:Drivers/STM32L4xx_HAL_Driver/Src/stm32l4xx_hal_flash_ex.c ****       optr_reg_mask |= FLASH_OPTR_nBOOT1;
 637              		.loc 1 931 35 is_stmt 0 view .LVU196
 638 009a 05F40001 		and	r1, r5, #8388608
 931:Drivers/STM32L4xx_HAL_Driver/Src/stm32l4xx_hal_flash_ex.c ****       optr_reg_mask |= FLASH_OPTR_nBOOT1;
 639              		.loc 1 931 20 view .LVU197
 640 009e 0B43     		orrs	r3, r3, r1
 641              	.LVL52:
 932:Drivers/STM32L4xx_HAL_Driver/Src/stm32l4xx_hal_flash_ex.c ****     }
 642              		.loc 1 932 7 is_stmt 1 view .LVU198
 932:Drivers/STM32L4xx_HAL_Driver/Src/stm32l4xx_hal_flash_ex.c ****     }
 643              		.loc 1 932 21 is_stmt 0 view .LVU199
 644 00a0 42F40002 		orr	r2, r2, #8388608
 645              	.LVL53:
 646              	.L48:
 935:Drivers/STM32L4xx_HAL_Driver/Src/stm32l4xx_hal_flash_ex.c ****     {
 647              		.loc 1 935 5 is_stmt 1 view .LVU200
 935:Drivers/STM32L4xx_HAL_Driver/Src/stm32l4xx_hal_flash_ex.c ****     {
 648              		.loc 1 935 7 is_stmt 0 view .LVU201
 649 00a4 14F4806F 		tst	r4, #1024
 650 00a8 04D0     		beq	.L49
 938:Drivers/STM32L4xx_HAL_Driver/Src/stm32l4xx_hal_flash_ex.c ****     
 651              		.loc 1 938 7 is_stmt 1 view .LVU202
 941:Drivers/STM32L4xx_HAL_Driver/Src/stm32l4xx_hal_flash_ex.c ****       optr_reg_mask |= FLASH_OPTR_SRAM2_PE;
 652              		.loc 1 941 7 view .LVU203
 941:Drivers/STM32L4xx_HAL_Driver/Src/stm32l4xx_hal_flash_ex.c ****       optr_reg_mask |= FLASH_OPTR_SRAM2_PE;
 653              		.loc 1 941 35 is_stmt 0 view .LVU204
 654 00aa 05F08071 		and	r1, r5, #16777216
 941:Drivers/STM32L4xx_HAL_Driver/Src/stm32l4xx_hal_flash_ex.c ****       optr_reg_mask |= FLASH_OPTR_SRAM2_PE;
 655              		.loc 1 941 20 view .LVU205
 656 00ae 0B43     		orrs	r3, r3, r1
 657              	.LVL54:
 942:Drivers/STM32L4xx_HAL_Driver/Src/stm32l4xx_hal_flash_ex.c ****     }
 658              		.loc 1 942 7 is_stmt 1 view .LVU206
 942:Drivers/STM32L4xx_HAL_Driver/Src/stm32l4xx_hal_flash_ex.c ****     }
 659              		.loc 1 942 21 is_stmt 0 view .LVU207
 660 00b0 42F08072 		orr	r2, r2, #16777216
 661              	.LVL55:
 662              	.L49:
 945:Drivers/STM32L4xx_HAL_Driver/Src/stm32l4xx_hal_flash_ex.c ****     {
 663              		.loc 1 945 5 is_stmt 1 view .LVU208
ARM GAS  /tmp/ccWeCwHW.s 			page 38


 945:Drivers/STM32L4xx_HAL_Driver/Src/stm32l4xx_hal_flash_ex.c ****     {
 664              		.loc 1 945 7 is_stmt 0 view .LVU209
 665 00b4 14F4006F 		tst	r4, #2048
 666 00b8 04D0     		beq	.L50
 948:Drivers/STM32L4xx_HAL_Driver/Src/stm32l4xx_hal_flash_ex.c ****     
 667              		.loc 1 948 7 is_stmt 1 view .LVU210
 951:Drivers/STM32L4xx_HAL_Driver/Src/stm32l4xx_hal_flash_ex.c ****       optr_reg_mask |= FLASH_OPTR_SRAM2_RST;
 668              		.loc 1 951 7 view .LVU211
 951:Drivers/STM32L4xx_HAL_Driver/Src/stm32l4xx_hal_flash_ex.c ****       optr_reg_mask |= FLASH_OPTR_SRAM2_RST;
 669              		.loc 1 951 35 is_stmt 0 view .LVU212
 670 00ba 05F00071 		and	r1, r5, #33554432
 951:Drivers/STM32L4xx_HAL_Driver/Src/stm32l4xx_hal_flash_ex.c ****       optr_reg_mask |= FLASH_OPTR_SRAM2_RST;
 671              		.loc 1 951 20 view .LVU213
 672 00be 0B43     		orrs	r3, r3, r1
 673              	.LVL56:
 952:Drivers/STM32L4xx_HAL_Driver/Src/stm32l4xx_hal_flash_ex.c ****     }
 674              		.loc 1 952 7 is_stmt 1 view .LVU214
 952:Drivers/STM32L4xx_HAL_Driver/Src/stm32l4xx_hal_flash_ex.c ****     }
 675              		.loc 1 952 21 is_stmt 0 view .LVU215
 676 00c0 42F00072 		orr	r2, r2, #33554432
 677              	.LVL57:
 678              	.L50:
 959:Drivers/STM32L4xx_HAL_Driver/Src/stm32l4xx_hal_flash_ex.c ****     {
 679              		.loc 1 959 5 is_stmt 1 view .LVU216
 959:Drivers/STM32L4xx_HAL_Driver/Src/stm32l4xx_hal_flash_ex.c ****     {
 680              		.loc 1 959 7 is_stmt 0 view .LVU217
 681 00c4 14F4005F 		tst	r4, #8192
 682 00c8 04D0     		beq	.L51
 962:Drivers/STM32L4xx_HAL_Driver/Src/stm32l4xx_hal_flash_ex.c ****     
 683              		.loc 1 962 7 is_stmt 1 view .LVU218
 965:Drivers/STM32L4xx_HAL_Driver/Src/stm32l4xx_hal_flash_ex.c ****       optr_reg_mask |= FLASH_OPTR_nSWBOOT0;
 684              		.loc 1 965 7 view .LVU219
 965:Drivers/STM32L4xx_HAL_Driver/Src/stm32l4xx_hal_flash_ex.c ****       optr_reg_mask |= FLASH_OPTR_nSWBOOT0;
 685              		.loc 1 965 35 is_stmt 0 view .LVU220
 686 00ca 05F08061 		and	r1, r5, #67108864
 965:Drivers/STM32L4xx_HAL_Driver/Src/stm32l4xx_hal_flash_ex.c ****       optr_reg_mask |= FLASH_OPTR_nSWBOOT0;
 687              		.loc 1 965 20 view .LVU221
 688 00ce 0B43     		orrs	r3, r3, r1
 689              	.LVL58:
 966:Drivers/STM32L4xx_HAL_Driver/Src/stm32l4xx_hal_flash_ex.c ****     }
 690              		.loc 1 966 7 is_stmt 1 view .LVU222
 966:Drivers/STM32L4xx_HAL_Driver/Src/stm32l4xx_hal_flash_ex.c ****     }
 691              		.loc 1 966 21 is_stmt 0 view .LVU223
 692 00d0 42F08062 		orr	r2, r2, #67108864
 693              	.LVL59:
 694              	.L51:
 969:Drivers/STM32L4xx_HAL_Driver/Src/stm32l4xx_hal_flash_ex.c ****     {
 695              		.loc 1 969 5 is_stmt 1 view .LVU224
 969:Drivers/STM32L4xx_HAL_Driver/Src/stm32l4xx_hal_flash_ex.c ****     {
 696              		.loc 1 969 7 is_stmt 0 view .LVU225
 697 00d4 14F4804F 		tst	r4, #16384
 698 00d8 04D0     		beq	.L52
 972:Drivers/STM32L4xx_HAL_Driver/Src/stm32l4xx_hal_flash_ex.c ****     
 699              		.loc 1 972 7 is_stmt 1 view .LVU226
 975:Drivers/STM32L4xx_HAL_Driver/Src/stm32l4xx_hal_flash_ex.c ****       optr_reg_mask |= FLASH_OPTR_nBOOT0;
 700              		.loc 1 975 7 view .LVU227
 975:Drivers/STM32L4xx_HAL_Driver/Src/stm32l4xx_hal_flash_ex.c ****       optr_reg_mask |= FLASH_OPTR_nBOOT0;
ARM GAS  /tmp/ccWeCwHW.s 			page 39


 701              		.loc 1 975 35 is_stmt 0 view .LVU228
 702 00da 05F00065 		and	r5, r5, #134217728
 703              	.LVL60:
 975:Drivers/STM32L4xx_HAL_Driver/Src/stm32l4xx_hal_flash_ex.c ****       optr_reg_mask |= FLASH_OPTR_nBOOT0;
 704              		.loc 1 975 20 view .LVU229
 705 00de 2B43     		orrs	r3, r3, r5
 706              	.LVL61:
 976:Drivers/STM32L4xx_HAL_Driver/Src/stm32l4xx_hal_flash_ex.c ****     }
 707              		.loc 1 976 7 is_stmt 1 view .LVU230
 976:Drivers/STM32L4xx_HAL_Driver/Src/stm32l4xx_hal_flash_ex.c ****     }
 708              		.loc 1 976 21 is_stmt 0 view .LVU231
 709 00e0 42F00062 		orr	r2, r2, #134217728
 710              	.LVL62:
 711              	.L52:
 981:Drivers/STM32L4xx_HAL_Driver/Src/stm32l4xx_hal_flash_ex.c ****     
 712              		.loc 1 981 5 is_stmt 1 view .LVU232
 713 00e4 094C     		ldr	r4, .L55
 714              	.LVL63:
 981:Drivers/STM32L4xx_HAL_Driver/Src/stm32l4xx_hal_flash_ex.c ****     
 715              		.loc 1 981 5 is_stmt 0 view .LVU233
 716 00e6 216A     		ldr	r1, [r4, #32]
 717 00e8 21EA0202 		bic	r2, r1, r2
 718              	.LVL64:
 981:Drivers/STM32L4xx_HAL_Driver/Src/stm32l4xx_hal_flash_ex.c ****     
 719              		.loc 1 981 5 view .LVU234
 720 00ec 1343     		orrs	r3, r3, r2
 721              	.LVL65:
 981:Drivers/STM32L4xx_HAL_Driver/Src/stm32l4xx_hal_flash_ex.c ****     
 722              		.loc 1 981 5 view .LVU235
 723 00ee 2362     		str	r3, [r4, #32]
 984:Drivers/STM32L4xx_HAL_Driver/Src/stm32l4xx_hal_flash_ex.c ****     
 724              		.loc 1 984 5 is_stmt 1 view .LVU236
 725 00f0 6369     		ldr	r3, [r4, #20]
 726 00f2 43F40033 		orr	r3, r3, #131072
 727 00f6 6361     		str	r3, [r4, #20]
 987:Drivers/STM32L4xx_HAL_Driver/Src/stm32l4xx_hal_flash_ex.c **** 
 728              		.loc 1 987 5 view .LVU237
 987:Drivers/STM32L4xx_HAL_Driver/Src/stm32l4xx_hal_flash_ex.c **** 
 729              		.loc 1 987 14 is_stmt 0 view .LVU238
 730 00f8 4CF25030 		movw	r0, #50000
 731 00fc FFF7FEFF 		bl	FLASH_WaitForLastOperation
 732              	.LVL66:
 990:Drivers/STM32L4xx_HAL_Driver/Src/stm32l4xx_hal_flash_ex.c ****   }
 733              		.loc 1 990 5 is_stmt 1 view .LVU239
 734 0100 6369     		ldr	r3, [r4, #20]
 735 0102 23F40033 		bic	r3, r3, #131072
 736 0106 6361     		str	r3, [r4, #20]
 737              	.LVL67:
 738              	.L39:
 993:Drivers/STM32L4xx_HAL_Driver/Src/stm32l4xx_hal_flash_ex.c **** }
 739              		.loc 1 993 3 view .LVU240
 994:Drivers/STM32L4xx_HAL_Driver/Src/stm32l4xx_hal_flash_ex.c **** 
 740              		.loc 1 994 1 is_stmt 0 view .LVU241
 741 0108 38BD     		pop	{r3, r4, r5, pc}
 742              	.L56:
 743 010a 00BF     		.align	2
 744              	.L55:
ARM GAS  /tmp/ccWeCwHW.s 			page 40


 745 010c 00200240 		.word	1073881088
 746              		.cfi_endproc
 747              	.LFE132:
 749              		.section	.text.FLASH_OB_PCROPConfig,"ax",%progbits
 750              		.align	1
 751              		.syntax unified
 752              		.thumb
 753              		.thumb_func
 754              		.fpu fpv4-sp-d16
 756              	FLASH_OB_PCROPConfig:
 757              	.LVL68:
 758              	.LFB133:
1017:Drivers/STM32L4xx_HAL_Driver/Src/stm32l4xx_hal_flash_ex.c ****   HAL_StatusTypeDef status;
 759              		.loc 1 1017 1 is_stmt 1 view -0
 760              		.cfi_startproc
 761              		@ args = 0, pretend = 0, frame = 0
 762              		@ frame_needed = 0, uses_anonymous_args = 0
1017:Drivers/STM32L4xx_HAL_Driver/Src/stm32l4xx_hal_flash_ex.c ****   HAL_StatusTypeDef status;
 763              		.loc 1 1017 1 is_stmt 0 view .LVU243
 764 0000 70B5     		push	{r4, r5, r6, lr}
 765              	.LCFI5:
 766              		.cfi_def_cfa_offset 16
 767              		.cfi_offset 4, -16
 768              		.cfi_offset 5, -12
 769              		.cfi_offset 6, -8
 770              		.cfi_offset 14, -4
 771 0002 0446     		mov	r4, r0
 772 0004 0E46     		mov	r6, r1
 773 0006 1546     		mov	r5, r2
1018:Drivers/STM32L4xx_HAL_Driver/Src/stm32l4xx_hal_flash_ex.c ****   uint32_t reg_value;
 774              		.loc 1 1018 3 is_stmt 1 view .LVU244
1019:Drivers/STM32L4xx_HAL_Driver/Src/stm32l4xx_hal_flash_ex.c ****   uint32_t bank1_addr;
 775              		.loc 1 1019 3 view .LVU245
1020:Drivers/STM32L4xx_HAL_Driver/Src/stm32l4xx_hal_flash_ex.c **** #if defined (STM32L471xx) || defined (STM32L475xx) || defined (STM32L476xx) || defined (STM32L485xx
 776              		.loc 1 1020 3 view .LVU246
1028:Drivers/STM32L4xx_HAL_Driver/Src/stm32l4xx_hal_flash_ex.c ****   assert_param(IS_OB_PCROP_RDP(PCROPConfig & FLASH_PCROP1ER_PCROP_RDP));
 777              		.loc 1 1028 3 view .LVU247
1029:Drivers/STM32L4xx_HAL_Driver/Src/stm32l4xx_hal_flash_ex.c ****   assert_param(IS_FLASH_MAIN_MEM_ADDRESS(PCROPStartAddr));
 778              		.loc 1 1029 3 view .LVU248
1030:Drivers/STM32L4xx_HAL_Driver/Src/stm32l4xx_hal_flash_ex.c ****   assert_param(IS_FLASH_MAIN_MEM_ADDRESS(PCROPEndAddr));
 779              		.loc 1 1030 3 view .LVU249
1031:Drivers/STM32L4xx_HAL_Driver/Src/stm32l4xx_hal_flash_ex.c **** 
 780              		.loc 1 1031 3 view .LVU250
1034:Drivers/STM32L4xx_HAL_Driver/Src/stm32l4xx_hal_flash_ex.c **** 
 781              		.loc 1 1034 3 view .LVU251
1034:Drivers/STM32L4xx_HAL_Driver/Src/stm32l4xx_hal_flash_ex.c **** 
 782              		.loc 1 1034 12 is_stmt 0 view .LVU252
 783 0008 4CF25030 		movw	r0, #50000
 784              	.LVL69:
1034:Drivers/STM32L4xx_HAL_Driver/Src/stm32l4xx_hal_flash_ex.c **** 
 785              		.loc 1 1034 12 view .LVU253
 786 000c FFF7FEFF 		bl	FLASH_WaitForLastOperation
 787              	.LVL70:
1036:Drivers/STM32L4xx_HAL_Driver/Src/stm32l4xx_hal_flash_ex.c ****   {
 788              		.loc 1 1036 3 is_stmt 1 view .LVU254
1036:Drivers/STM32L4xx_HAL_Driver/Src/stm32l4xx_hal_flash_ex.c ****   {
 789              		.loc 1 1036 5 is_stmt 0 view .LVU255
ARM GAS  /tmp/ccWeCwHW.s 			page 41


 790 0010 38BB     		cbnz	r0, .L58
1053:Drivers/STM32L4xx_HAL_Driver/Src/stm32l4xx_hal_flash_ex.c **** #endif
 791              		.loc 1 1053 5 is_stmt 1 view .LVU256
 792              	.LVL71:
1085:Drivers/STM32L4xx_HAL_Driver/Src/stm32l4xx_hal_flash_ex.c ****       {
 793              		.loc 1 1085 7 view .LVU257
1085:Drivers/STM32L4xx_HAL_Driver/Src/stm32l4xx_hal_flash_ex.c ****       {
 794              		.loc 1 1085 9 is_stmt 0 view .LVU258
 795 0012 14F0010F 		tst	r4, #1
 796 0016 10D0     		beq	.L59
1087:Drivers/STM32L4xx_HAL_Driver/Src/stm32l4xx_hal_flash_ex.c ****         MODIFY_REG(FLASH->PCROP1SR, FLASH_PCROP1SR_PCROP1_STRT, reg_value);
 797              		.loc 1 1087 9 is_stmt 1 view .LVU259
1087:Drivers/STM32L4xx_HAL_Driver/Src/stm32l4xx_hal_flash_ex.c ****         MODIFY_REG(FLASH->PCROP1SR, FLASH_PCROP1SR_PCROP1_STRT, reg_value);
 798              		.loc 1 1087 38 is_stmt 0 view .LVU260
 799 0018 06F17841 		add	r1, r6, #-134217728
 800              	.LVL72:
1088:Drivers/STM32L4xx_HAL_Driver/Src/stm32l4xx_hal_flash_ex.c ****         
 801              		.loc 1 1088 9 is_stmt 1 view .LVU261
 802 001c 114A     		ldr	r2, .L61
 803 001e 566A     		ldr	r6, [r2, #36]
 804              	.LVL73:
1088:Drivers/STM32L4xx_HAL_Driver/Src/stm32l4xx_hal_flash_ex.c ****         
 805              		.loc 1 1088 9 is_stmt 0 view .LVU262
 806 0020 360C     		lsrs	r6, r6, #16
 807 0022 3604     		lsls	r6, r6, #16
 808 0024 46EAD106 		orr	r6, r6, r1, lsr #3
 809 0028 5662     		str	r6, [r2, #36]
1090:Drivers/STM32L4xx_HAL_Driver/Src/stm32l4xx_hal_flash_ex.c ****         MODIFY_REG(FLASH->PCROP1ER, FLASH_PCROP1ER_PCROP1_END, reg_value);
 810              		.loc 1 1090 9 is_stmt 1 view .LVU263
1090:Drivers/STM32L4xx_HAL_Driver/Src/stm32l4xx_hal_flash_ex.c ****         MODIFY_REG(FLASH->PCROP1ER, FLASH_PCROP1ER_PCROP1_END, reg_value);
 811              		.loc 1 1090 36 is_stmt 0 view .LVU264
 812 002a 05F17845 		add	r5, r5, #-134217728
 813              	.LVL74:
1091:Drivers/STM32L4xx_HAL_Driver/Src/stm32l4xx_hal_flash_ex.c ****       }
 814              		.loc 1 1091 9 is_stmt 1 view .LVU265
 815 002e 936A     		ldr	r3, [r2, #40]
 816 0030 1B0C     		lsrs	r3, r3, #16
 817 0032 1B04     		lsls	r3, r3, #16
 818 0034 43EAD503 		orr	r3, r3, r5, lsr #3
 819 0038 9362     		str	r3, [r2, #40]
 820              	.LVL75:
 821              	.L59:
1108:Drivers/STM32L4xx_HAL_Driver/Src/stm32l4xx_hal_flash_ex.c ****     }
 822              		.loc 1 1108 7 view .LVU266
1111:Drivers/STM32L4xx_HAL_Driver/Src/stm32l4xx_hal_flash_ex.c ****     
 823              		.loc 1 1111 5 view .LVU267
 824 003a 0A4D     		ldr	r5, .L61
 825 003c AB6A     		ldr	r3, [r5, #40]
 826 003e 23F00043 		bic	r3, r3, #-2147483648
 827 0042 04F00044 		and	r4, r4, #-2147483648
 828              	.LVL76:
1111:Drivers/STM32L4xx_HAL_Driver/Src/stm32l4xx_hal_flash_ex.c ****     
 829              		.loc 1 1111 5 is_stmt 0 view .LVU268
 830 0046 1C43     		orrs	r4, r4, r3
 831 0048 AC62     		str	r4, [r5, #40]
1114:Drivers/STM32L4xx_HAL_Driver/Src/stm32l4xx_hal_flash_ex.c ****     
 832              		.loc 1 1114 5 is_stmt 1 view .LVU269
ARM GAS  /tmp/ccWeCwHW.s 			page 42


 833 004a 6B69     		ldr	r3, [r5, #20]
 834 004c 43F40033 		orr	r3, r3, #131072
 835 0050 6B61     		str	r3, [r5, #20]
1117:Drivers/STM32L4xx_HAL_Driver/Src/stm32l4xx_hal_flash_ex.c **** 
 836              		.loc 1 1117 5 view .LVU270
1117:Drivers/STM32L4xx_HAL_Driver/Src/stm32l4xx_hal_flash_ex.c **** 
 837              		.loc 1 1117 14 is_stmt 0 view .LVU271
 838 0052 4CF25030 		movw	r0, #50000
 839 0056 FFF7FEFF 		bl	FLASH_WaitForLastOperation
 840              	.LVL77:
1120:Drivers/STM32L4xx_HAL_Driver/Src/stm32l4xx_hal_flash_ex.c ****   }
 841              		.loc 1 1120 5 is_stmt 1 view .LVU272
 842 005a 6B69     		ldr	r3, [r5, #20]
 843 005c 23F40033 		bic	r3, r3, #131072
 844 0060 6B61     		str	r3, [r5, #20]
 845              	.LVL78:
 846              	.L58:
1123:Drivers/STM32L4xx_HAL_Driver/Src/stm32l4xx_hal_flash_ex.c **** }
 847              		.loc 1 1123 3 view .LVU273
1124:Drivers/STM32L4xx_HAL_Driver/Src/stm32l4xx_hal_flash_ex.c **** 
 848              		.loc 1 1124 1 is_stmt 0 view .LVU274
 849 0062 70BD     		pop	{r4, r5, r6, pc}
 850              	.L62:
 851              		.align	2
 852              	.L61:
 853 0064 00200240 		.word	1073881088
 854              		.cfi_endproc
 855              	.LFE133:
 857              		.section	.text.HAL_FLASHEx_OBProgram,"ax",%progbits
 858              		.align	1
 859              		.global	HAL_FLASHEx_OBProgram
 860              		.syntax unified
 861              		.thumb
 862              		.thumb_func
 863              		.fpu fpv4-sp-d16
 865              	HAL_FLASHEx_OBProgram:
 866              	.LVL79:
 867              	.LFB125:
 332:Drivers/STM32L4xx_HAL_Driver/Src/stm32l4xx_hal_flash_ex.c ****   HAL_StatusTypeDef status = HAL_OK;
 868              		.loc 1 332 1 is_stmt 1 view -0
 869              		.cfi_startproc
 870              		@ args = 0, pretend = 0, frame = 0
 871              		@ frame_needed = 0, uses_anonymous_args = 0
 332:Drivers/STM32L4xx_HAL_Driver/Src/stm32l4xx_hal_flash_ex.c ****   HAL_StatusTypeDef status = HAL_OK;
 872              		.loc 1 332 1 is_stmt 0 view .LVU276
 873 0000 38B5     		push	{r3, r4, r5, lr}
 874              	.LCFI6:
 875              		.cfi_def_cfa_offset 16
 876              		.cfi_offset 3, -16
 877              		.cfi_offset 4, -12
 878              		.cfi_offset 5, -8
 879              		.cfi_offset 14, -4
 333:Drivers/STM32L4xx_HAL_Driver/Src/stm32l4xx_hal_flash_ex.c ****   
 880              		.loc 1 333 3 is_stmt 1 view .LVU277
 881              	.LVL80:
 336:Drivers/STM32L4xx_HAL_Driver/Src/stm32l4xx_hal_flash_ex.c **** 
 882              		.loc 1 336 3 view .LVU278
ARM GAS  /tmp/ccWeCwHW.s 			page 43


 336:Drivers/STM32L4xx_HAL_Driver/Src/stm32l4xx_hal_flash_ex.c **** 
 883              		.loc 1 336 3 view .LVU279
 884 0002 234B     		ldr	r3, .L80
 885 0004 1B78     		ldrb	r3, [r3]	@ zero_extendqisi2
 886 0006 012B     		cmp	r3, #1
 887 0008 3FD0     		beq	.L69
 888 000a 0446     		mov	r4, r0
 336:Drivers/STM32L4xx_HAL_Driver/Src/stm32l4xx_hal_flash_ex.c **** 
 889              		.loc 1 336 3 discriminator 2 view .LVU280
 890 000c 204B     		ldr	r3, .L80
 891 000e 0122     		movs	r2, #1
 892 0010 1A70     		strb	r2, [r3]
 336:Drivers/STM32L4xx_HAL_Driver/Src/stm32l4xx_hal_flash_ex.c **** 
 893              		.loc 1 336 3 discriminator 2 view .LVU281
 339:Drivers/STM32L4xx_HAL_Driver/Src/stm32l4xx_hal_flash_ex.c ****   
 894              		.loc 1 339 3 discriminator 2 view .LVU282
 341:Drivers/STM32L4xx_HAL_Driver/Src/stm32l4xx_hal_flash_ex.c **** 
 895              		.loc 1 341 3 discriminator 2 view .LVU283
 341:Drivers/STM32L4xx_HAL_Driver/Src/stm32l4xx_hal_flash_ex.c **** 
 896              		.loc 1 341 20 is_stmt 0 discriminator 2 view .LVU284
 897 0012 0022     		movs	r2, #0
 898 0014 5A60     		str	r2, [r3, #4]
 344:Drivers/STM32L4xx_HAL_Driver/Src/stm32l4xx_hal_flash_ex.c ****   {
 899              		.loc 1 344 3 is_stmt 1 discriminator 2 view .LVU285
 344:Drivers/STM32L4xx_HAL_Driver/Src/stm32l4xx_hal_flash_ex.c ****   {
 900              		.loc 1 344 14 is_stmt 0 discriminator 2 view .LVU286
 901 0016 0368     		ldr	r3, [r0]
 344:Drivers/STM32L4xx_HAL_Driver/Src/stm32l4xx_hal_flash_ex.c ****   {
 902              		.loc 1 344 5 discriminator 2 view .LVU287
 903 0018 13F0010F 		tst	r3, #1
 904 001c 15D1     		bne	.L76
 333:Drivers/STM32L4xx_HAL_Driver/Src/stm32l4xx_hal_flash_ex.c ****   
 905              		.loc 1 333 21 view .LVU288
 906 001e 0025     		movs	r5, #0
 907              	.LVL81:
 908              	.L65:
 355:Drivers/STM32L4xx_HAL_Driver/Src/stm32l4xx_hal_flash_ex.c ****   {
 909              		.loc 1 355 3 is_stmt 1 view .LVU289
 355:Drivers/STM32L4xx_HAL_Driver/Src/stm32l4xx_hal_flash_ex.c ****   {
 910              		.loc 1 355 14 is_stmt 0 view .LVU290
 911 0020 2368     		ldr	r3, [r4]
 355:Drivers/STM32L4xx_HAL_Driver/Src/stm32l4xx_hal_flash_ex.c ****   {
 912              		.loc 1 355 5 view .LVU291
 913 0022 13F0020F 		tst	r3, #2
 914 0026 1AD1     		bne	.L77
 915              	.LVL82:
 916              	.L66:
 365:Drivers/STM32L4xx_HAL_Driver/Src/stm32l4xx_hal_flash_ex.c ****   {
 917              		.loc 1 365 3 is_stmt 1 view .LVU292
 365:Drivers/STM32L4xx_HAL_Driver/Src/stm32l4xx_hal_flash_ex.c ****   {
 918              		.loc 1 365 14 is_stmt 0 view .LVU293
 919 0028 2368     		ldr	r3, [r4]
 365:Drivers/STM32L4xx_HAL_Driver/Src/stm32l4xx_hal_flash_ex.c ****   {
 920              		.loc 1 365 5 view .LVU294
 921 002a 13F0040F 		tst	r3, #4
 922 002e 1DD1     		bne	.L78
 923              	.LVL83:
ARM GAS  /tmp/ccWeCwHW.s 			page 44


 924              	.L67:
 375:Drivers/STM32L4xx_HAL_Driver/Src/stm32l4xx_hal_flash_ex.c ****   {
 925              		.loc 1 375 3 is_stmt 1 view .LVU295
 375:Drivers/STM32L4xx_HAL_Driver/Src/stm32l4xx_hal_flash_ex.c ****   {
 926              		.loc 1 375 14 is_stmt 0 view .LVU296
 927 0030 2368     		ldr	r3, [r4]
 375:Drivers/STM32L4xx_HAL_Driver/Src/stm32l4xx_hal_flash_ex.c ****   {
 928              		.loc 1 375 5 view .LVU297
 929 0032 13F0080F 		tst	r3, #8
 930 0036 03D0     		beq	.L68
 377:Drivers/STM32L4xx_HAL_Driver/Src/stm32l4xx_hal_flash_ex.c ****     {
 931              		.loc 1 377 5 is_stmt 1 view .LVU298
 377:Drivers/STM32L4xx_HAL_Driver/Src/stm32l4xx_hal_flash_ex.c ****     {
 932              		.loc 1 377 16 is_stmt 0 view .LVU299
 933 0038 216A     		ldr	r1, [r4, #32]
 377:Drivers/STM32L4xx_HAL_Driver/Src/stm32l4xx_hal_flash_ex.c ****     {
 934              		.loc 1 377 43 view .LVU300
 935 003a 626A     		ldr	r2, [r4, #36]
 377:Drivers/STM32L4xx_HAL_Driver/Src/stm32l4xx_hal_flash_ex.c ****     {
 936              		.loc 1 377 8 view .LVU301
 937 003c 9142     		cmp	r1, r2
 938 003e 1DD1     		bne	.L79
 939              	.LVL84:
 940              	.L68:
 388:Drivers/STM32L4xx_HAL_Driver/Src/stm32l4xx_hal_flash_ex.c **** 
 941              		.loc 1 388 3 is_stmt 1 view .LVU302
 388:Drivers/STM32L4xx_HAL_Driver/Src/stm32l4xx_hal_flash_ex.c **** 
 942              		.loc 1 388 3 view .LVU303
 943 0040 134B     		ldr	r3, .L80
 944 0042 0022     		movs	r2, #0
 945 0044 1A70     		strb	r2, [r3]
 388:Drivers/STM32L4xx_HAL_Driver/Src/stm32l4xx_hal_flash_ex.c **** 
 946              		.loc 1 388 3 view .LVU304
 390:Drivers/STM32L4xx_HAL_Driver/Src/stm32l4xx_hal_flash_ex.c **** }
 947              		.loc 1 390 3 view .LVU305
 948              	.LVL85:
 949              	.L64:
 391:Drivers/STM32L4xx_HAL_Driver/Src/stm32l4xx_hal_flash_ex.c **** 
 950              		.loc 1 391 1 is_stmt 0 view .LVU306
 951 0046 2846     		mov	r0, r5
 952 0048 38BD     		pop	{r3, r4, r5, pc}
 953              	.LVL86:
 954              	.L76:
 347:Drivers/STM32L4xx_HAL_Driver/Src/stm32l4xx_hal_flash_ex.c ****     {
 955              		.loc 1 347 5 is_stmt 1 view .LVU307
 347:Drivers/STM32L4xx_HAL_Driver/Src/stm32l4xx_hal_flash_ex.c ****     {
 956              		.loc 1 347 8 is_stmt 0 view .LVU308
 957 004a C268     		ldr	r2, [r0, #12]
 958 004c 8168     		ldr	r1, [r0, #8]
 959 004e 4068     		ldr	r0, [r0, #4]
 960              	.LVL87:
 347:Drivers/STM32L4xx_HAL_Driver/Src/stm32l4xx_hal_flash_ex.c ****     {
 961              		.loc 1 347 8 view .LVU309
 962 0050 FFF7FEFF 		bl	FLASH_OB_WRPConfig
 963              	.LVL88:
 347:Drivers/STM32L4xx_HAL_Driver/Src/stm32l4xx_hal_flash_ex.c ****     {
 964              		.loc 1 347 7 view .LVU310
ARM GAS  /tmp/ccWeCwHW.s 			page 45


 965 0054 0546     		mov	r5, r0
 966 0056 0028     		cmp	r0, #0
 967 0058 E2D0     		beq	.L65
 349:Drivers/STM32L4xx_HAL_Driver/Src/stm32l4xx_hal_flash_ex.c ****     }
 968              		.loc 1 349 14 view .LVU311
 969 005a 0125     		movs	r5, #1
 970 005c E0E7     		b	.L65
 971              	.LVL89:
 972              	.L77:
 358:Drivers/STM32L4xx_HAL_Driver/Src/stm32l4xx_hal_flash_ex.c ****     {
 973              		.loc 1 358 5 is_stmt 1 view .LVU312
 358:Drivers/STM32L4xx_HAL_Driver/Src/stm32l4xx_hal_flash_ex.c ****     {
 974              		.loc 1 358 8 is_stmt 0 view .LVU313
 975 005e 2069     		ldr	r0, [r4, #16]
 976 0060 FFF7FEFF 		bl	FLASH_OB_RDPConfig
 977              	.LVL90:
 358:Drivers/STM32L4xx_HAL_Driver/Src/stm32l4xx_hal_flash_ex.c ****     {
 978              		.loc 1 358 7 view .LVU314
 979 0064 0028     		cmp	r0, #0
 980 0066 DFD0     		beq	.L66
 360:Drivers/STM32L4xx_HAL_Driver/Src/stm32l4xx_hal_flash_ex.c ****     }
 981              		.loc 1 360 14 view .LVU315
 982 0068 0125     		movs	r5, #1
 983              	.LVL91:
 360:Drivers/STM32L4xx_HAL_Driver/Src/stm32l4xx_hal_flash_ex.c ****     }
 984              		.loc 1 360 14 view .LVU316
 985 006a DDE7     		b	.L66
 986              	.LVL92:
 987              	.L78:
 368:Drivers/STM32L4xx_HAL_Driver/Src/stm32l4xx_hal_flash_ex.c ****     {
 988              		.loc 1 368 5 is_stmt 1 view .LVU317
 368:Drivers/STM32L4xx_HAL_Driver/Src/stm32l4xx_hal_flash_ex.c ****     {
 989              		.loc 1 368 8 is_stmt 0 view .LVU318
 990 006c A169     		ldr	r1, [r4, #24]
 991 006e 6069     		ldr	r0, [r4, #20]
 992 0070 FFF7FEFF 		bl	FLASH_OB_UserConfig
 993              	.LVL93:
 368:Drivers/STM32L4xx_HAL_Driver/Src/stm32l4xx_hal_flash_ex.c ****     {
 994              		.loc 1 368 7 view .LVU319
 995 0074 0028     		cmp	r0, #0
 996 0076 DBD0     		beq	.L67
 370:Drivers/STM32L4xx_HAL_Driver/Src/stm32l4xx_hal_flash_ex.c ****     }
 997              		.loc 1 370 14 view .LVU320
 998 0078 0125     		movs	r5, #1
 999              	.LVL94:
 370:Drivers/STM32L4xx_HAL_Driver/Src/stm32l4xx_hal_flash_ex.c ****     }
 1000              		.loc 1 370 14 view .LVU321
 1001 007a D9E7     		b	.L67
 1002              	.LVL95:
 1003              	.L79:
 380:Drivers/STM32L4xx_HAL_Driver/Src/stm32l4xx_hal_flash_ex.c ****       {
 1004              		.loc 1 380 7 is_stmt 1 view .LVU322
 380:Drivers/STM32L4xx_HAL_Driver/Src/stm32l4xx_hal_flash_ex.c ****       {
 1005              		.loc 1 380 10 is_stmt 0 view .LVU323
 1006 007c E069     		ldr	r0, [r4, #28]
 1007 007e FFF7FEFF 		bl	FLASH_OB_PCROPConfig
 1008              	.LVL96:
ARM GAS  /tmp/ccWeCwHW.s 			page 46


 380:Drivers/STM32L4xx_HAL_Driver/Src/stm32l4xx_hal_flash_ex.c ****       {
 1009              		.loc 1 380 9 view .LVU324
 1010 0082 0028     		cmp	r0, #0
 1011 0084 DCD0     		beq	.L68
 382:Drivers/STM32L4xx_HAL_Driver/Src/stm32l4xx_hal_flash_ex.c ****       }
 1012              		.loc 1 382 16 view .LVU325
 1013 0086 0125     		movs	r5, #1
 1014              	.LVL97:
 382:Drivers/STM32L4xx_HAL_Driver/Src/stm32l4xx_hal_flash_ex.c ****       }
 1015              		.loc 1 382 16 view .LVU326
 1016 0088 DAE7     		b	.L68
 1017              	.LVL98:
 1018              	.L69:
 336:Drivers/STM32L4xx_HAL_Driver/Src/stm32l4xx_hal_flash_ex.c **** 
 1019              		.loc 1 336 3 view .LVU327
 1020 008a 0225     		movs	r5, #2
 1021 008c DBE7     		b	.L64
 1022              	.L81:
 1023 008e 00BF     		.align	2
 1024              	.L80:
 1025 0090 00000000 		.word	pFlash
 1026              		.cfi_endproc
 1027              	.LFE125:
 1029              		.section	.text.HAL_FLASHEx_OBGetConfig,"ax",%progbits
 1030              		.align	1
 1031              		.global	HAL_FLASHEx_OBGetConfig
 1032              		.syntax unified
 1033              		.thumb
 1034              		.thumb_func
 1035              		.fpu fpv4-sp-d16
 1037              	HAL_FLASHEx_OBGetConfig:
 1038              	.LVL99:
 1039              	.LFB126:
 403:Drivers/STM32L4xx_HAL_Driver/Src/stm32l4xx_hal_flash_ex.c ****   pOBInit->OptionType = (OPTIONBYTE_RDP | OPTIONBYTE_USER);
 1040              		.loc 1 403 1 is_stmt 1 view -0
 1041              		.cfi_startproc
 1042              		@ args = 0, pretend = 0, frame = 0
 1043              		@ frame_needed = 0, uses_anonymous_args = 0
 403:Drivers/STM32L4xx_HAL_Driver/Src/stm32l4xx_hal_flash_ex.c ****   pOBInit->OptionType = (OPTIONBYTE_RDP | OPTIONBYTE_USER);
 1044              		.loc 1 403 1 is_stmt 0 view .LVU329
 1045 0000 10B5     		push	{r4, lr}
 1046              	.LCFI7:
 1047              		.cfi_def_cfa_offset 8
 1048              		.cfi_offset 4, -8
 1049              		.cfi_offset 14, -4
 1050 0002 0446     		mov	r4, r0
 404:Drivers/STM32L4xx_HAL_Driver/Src/stm32l4xx_hal_flash_ex.c **** 
 1051              		.loc 1 404 3 is_stmt 1 view .LVU330
 404:Drivers/STM32L4xx_HAL_Driver/Src/stm32l4xx_hal_flash_ex.c **** 
 1052              		.loc 1 404 23 is_stmt 0 view .LVU331
 1053 0004 0623     		movs	r3, #6
 1054 0006 0360     		str	r3, [r0]
 412:Drivers/STM32L4xx_HAL_Driver/Src/stm32l4xx_hal_flash_ex.c **** #endif
 1055              		.loc 1 412 3 is_stmt 1 view .LVU332
 412:Drivers/STM32L4xx_HAL_Driver/Src/stm32l4xx_hal_flash_ex.c **** #endif
 1056              		.loc 1 412 14 is_stmt 0 view .LVU333
 1057 0008 4068     		ldr	r0, [r0, #4]
ARM GAS  /tmp/ccWeCwHW.s 			page 47


 1058              	.LVL100:
 412:Drivers/STM32L4xx_HAL_Driver/Src/stm32l4xx_hal_flash_ex.c **** #endif
 1059              		.loc 1 412 5 view .LVU334
 1060 000a 0128     		cmp	r0, #1
 1061 000c 09D9     		bls	.L86
 1062              	.L83:
 421:Drivers/STM32L4xx_HAL_Driver/Src/stm32l4xx_hal_flash_ex.c ****   
 1063              		.loc 1 421 3 is_stmt 1 view .LVU335
 421:Drivers/STM32L4xx_HAL_Driver/Src/stm32l4xx_hal_flash_ex.c ****   
 1064              		.loc 1 421 23 is_stmt 0 view .LVU336
 1065 000e FFF7FEFF 		bl	FLASH_OB_GetRDP
 1066              	.LVL101:
 421:Drivers/STM32L4xx_HAL_Driver/Src/stm32l4xx_hal_flash_ex.c ****   
 1067              		.loc 1 421 21 view .LVU337
 1068 0012 2061     		str	r0, [r4, #16]
 424:Drivers/STM32L4xx_HAL_Driver/Src/stm32l4xx_hal_flash_ex.c ****   
 1069              		.loc 1 424 3 is_stmt 1 view .LVU338
 424:Drivers/STM32L4xx_HAL_Driver/Src/stm32l4xx_hal_flash_ex.c ****   
 1070              		.loc 1 424 25 is_stmt 0 view .LVU339
 1071 0014 FFF7FEFF 		bl	FLASH_OB_GetUser
 1072              	.LVL102:
 424:Drivers/STM32L4xx_HAL_Driver/Src/stm32l4xx_hal_flash_ex.c ****   
 1073              		.loc 1 424 23 view .LVU340
 1074 0018 A061     		str	r0, [r4, #24]
 431:Drivers/STM32L4xx_HAL_Driver/Src/stm32l4xx_hal_flash_ex.c **** #endif    
 1075              		.loc 1 431 3 is_stmt 1 view .LVU341
 431:Drivers/STM32L4xx_HAL_Driver/Src/stm32l4xx_hal_flash_ex.c **** #endif    
 1076              		.loc 1 431 13 is_stmt 0 view .LVU342
 1077 001a E369     		ldr	r3, [r4, #28]
 431:Drivers/STM32L4xx_HAL_Driver/Src/stm32l4xx_hal_flash_ex.c **** #endif    
 1078              		.loc 1 431 5 view .LVU343
 1079 001c 012B     		cmp	r3, #1
 1080 001e 09D0     		beq	.L87
 1081              	.L82:
 438:Drivers/STM32L4xx_HAL_Driver/Src/stm32l4xx_hal_flash_ex.c **** 
 1082              		.loc 1 438 1 view .LVU344
 1083 0020 10BD     		pop	{r4, pc}
 1084              	.LVL103:
 1085              	.L86:
 415:Drivers/STM32L4xx_HAL_Driver/Src/stm32l4xx_hal_flash_ex.c ****     /* Get write protection on the selected area */
 1086              		.loc 1 415 5 is_stmt 1 view .LVU345
 415:Drivers/STM32L4xx_HAL_Driver/Src/stm32l4xx_hal_flash_ex.c ****     /* Get write protection on the selected area */
 1087              		.loc 1 415 25 is_stmt 0 view .LVU346
 1088 0022 2246     		mov	r2, r4
 1089 0024 0723     		movs	r3, #7
 1090 0026 42F80C3B 		str	r3, [r2], #12
 417:Drivers/STM32L4xx_HAL_Driver/Src/stm32l4xx_hal_flash_ex.c ****   }
 1091              		.loc 1 417 5 is_stmt 1 view .LVU347
 1092 002a 04F10801 		add	r1, r4, #8
 1093 002e FFF7FEFF 		bl	FLASH_OB_GetWRP
 1094              	.LVL104:
 1095 0032 ECE7     		b	.L83
 1096              	.L87:
 434:Drivers/STM32L4xx_HAL_Driver/Src/stm32l4xx_hal_flash_ex.c ****     /* Get the Proprietary code readout protection */
 1097              		.loc 1 434 5 view .LVU348
 434:Drivers/STM32L4xx_HAL_Driver/Src/stm32l4xx_hal_flash_ex.c ****     /* Get the Proprietary code readout protection */
 1098              		.loc 1 434 25 is_stmt 0 view .LVU349
ARM GAS  /tmp/ccWeCwHW.s 			page 48


 1099 0034 2368     		ldr	r3, [r4]
 1100 0036 43F00803 		orr	r3, r3, #8
 1101 003a 2246     		mov	r2, r4
 1102 003c 42F8243B 		str	r3, [r2], #36
 436:Drivers/STM32L4xx_HAL_Driver/Src/stm32l4xx_hal_flash_ex.c ****   }
 1103              		.loc 1 436 5 is_stmt 1 view .LVU350
 1104 0040 04F12001 		add	r1, r4, #32
 1105 0044 04F11C00 		add	r0, r4, #28
 1106 0048 FFF7FEFF 		bl	FLASH_OB_GetPCROP
 1107              	.LVL105:
 438:Drivers/STM32L4xx_HAL_Driver/Src/stm32l4xx_hal_flash_ex.c **** 
 1108              		.loc 1 438 1 is_stmt 0 view .LVU351
 1109 004c E8E7     		b	.L82
 1110              		.cfi_endproc
 1111              	.LFE126:
 1113              		.section	.text.FLASH_PageErase,"ax",%progbits
 1114              		.align	1
 1115              		.global	FLASH_PageErase
 1116              		.syntax unified
 1117              		.thumb
 1118              		.thumb_func
 1119              		.fpu fpv4-sp-d16
 1121              	FLASH_PageErase:
 1122              	.LVL106:
 1123              	.LFB128:
 583:Drivers/STM32L4xx_HAL_Driver/Src/stm32l4xx_hal_flash_ex.c ****   /* Check the parameters */
 1124              		.loc 1 583 1 is_stmt 1 view -0
 1125              		.cfi_startproc
 1126              		@ args = 0, pretend = 0, frame = 0
 1127              		@ frame_needed = 0, uses_anonymous_args = 0
 1128              		@ link register save eliminated.
 585:Drivers/STM32L4xx_HAL_Driver/Src/stm32l4xx_hal_flash_ex.c **** 
 1129              		.loc 1 585 3 view .LVU353
 611:Drivers/STM32L4xx_HAL_Driver/Src/stm32l4xx_hal_flash_ex.c **** #endif
 1130              		.loc 1 611 3 view .LVU354
 615:Drivers/STM32L4xx_HAL_Driver/Src/stm32l4xx_hal_flash_ex.c ****   SET_BIT(FLASH->CR, FLASH_CR_PER);
 1131              		.loc 1 615 3 view .LVU355
 1132 0000 084B     		ldr	r3, .L89
 1133 0002 5A69     		ldr	r2, [r3, #20]
 1134 0004 22F4FF62 		bic	r2, r2, #2040
 1135 0008 C000     		lsls	r0, r0, #3
 1136              	.LVL107:
 615:Drivers/STM32L4xx_HAL_Driver/Src/stm32l4xx_hal_flash_ex.c ****   SET_BIT(FLASH->CR, FLASH_CR_PER);
 1137              		.loc 1 615 3 is_stmt 0 view .LVU356
 1138 000a 00F4FF60 		and	r0, r0, #2040
 1139 000e 0243     		orrs	r2, r2, r0
 1140 0010 5A61     		str	r2, [r3, #20]
 616:Drivers/STM32L4xx_HAL_Driver/Src/stm32l4xx_hal_flash_ex.c ****   SET_BIT(FLASH->CR, FLASH_CR_STRT);
 1141              		.loc 1 616 3 is_stmt 1 view .LVU357
 1142 0012 5A69     		ldr	r2, [r3, #20]
 1143 0014 42F00202 		orr	r2, r2, #2
 1144 0018 5A61     		str	r2, [r3, #20]
 617:Drivers/STM32L4xx_HAL_Driver/Src/stm32l4xx_hal_flash_ex.c **** }
 1145              		.loc 1 617 3 view .LVU358
 1146 001a 5A69     		ldr	r2, [r3, #20]
 1147 001c 42F48032 		orr	r2, r2, #65536
 1148 0020 5A61     		str	r2, [r3, #20]
ARM GAS  /tmp/ccWeCwHW.s 			page 49


 618:Drivers/STM32L4xx_HAL_Driver/Src/stm32l4xx_hal_flash_ex.c **** 
 1149              		.loc 1 618 1 is_stmt 0 view .LVU359
 1150 0022 7047     		bx	lr
 1151              	.L90:
 1152              		.align	2
 1153              	.L89:
 1154 0024 00200240 		.word	1073881088
 1155              		.cfi_endproc
 1156              	.LFE128:
 1158              		.section	.text.HAL_FLASHEx_Erase_IT,"ax",%progbits
 1159              		.align	1
 1160              		.global	HAL_FLASHEx_Erase_IT
 1161              		.syntax unified
 1162              		.thumb
 1163              		.thumb_func
 1164              		.fpu fpv4-sp-d16
 1166              	HAL_FLASHEx_Erase_IT:
 1167              	.LVL108:
 1168              	.LFB124:
 260:Drivers/STM32L4xx_HAL_Driver/Src/stm32l4xx_hal_flash_ex.c ****   HAL_StatusTypeDef status = HAL_OK;
 1169              		.loc 1 260 1 is_stmt 1 view -0
 1170              		.cfi_startproc
 1171              		@ args = 0, pretend = 0, frame = 0
 1172              		@ frame_needed = 0, uses_anonymous_args = 0
 261:Drivers/STM32L4xx_HAL_Driver/Src/stm32l4xx_hal_flash_ex.c **** 
 1173              		.loc 1 261 3 view .LVU361
 264:Drivers/STM32L4xx_HAL_Driver/Src/stm32l4xx_hal_flash_ex.c **** 
 1174              		.loc 1 264 3 view .LVU362
 264:Drivers/STM32L4xx_HAL_Driver/Src/stm32l4xx_hal_flash_ex.c **** 
 1175              		.loc 1 264 3 view .LVU363
 1176 0000 2B4A     		ldr	r2, .L104
 1177 0002 1278     		ldrb	r2, [r2]	@ zero_extendqisi2
 1178 0004 012A     		cmp	r2, #1
 1179 0006 51D0     		beq	.L98
 260:Drivers/STM32L4xx_HAL_Driver/Src/stm32l4xx_hal_flash_ex.c ****   HAL_StatusTypeDef status = HAL_OK;
 1180              		.loc 1 260 1 is_stmt 0 discriminator 2 view .LVU364
 1181 0008 08B5     		push	{r3, lr}
 1182              	.LCFI8:
 1183              		.cfi_def_cfa_offset 8
 1184              		.cfi_offset 3, -8
 1185              		.cfi_offset 14, -4
 1186 000a 0346     		mov	r3, r0
 264:Drivers/STM32L4xx_HAL_Driver/Src/stm32l4xx_hal_flash_ex.c **** 
 1187              		.loc 1 264 3 is_stmt 1 discriminator 2 view .LVU365
 1188 000c 284A     		ldr	r2, .L104
 1189 000e 0121     		movs	r1, #1
 1190 0010 1170     		strb	r1, [r2]
 264:Drivers/STM32L4xx_HAL_Driver/Src/stm32l4xx_hal_flash_ex.c **** 
 1191              		.loc 1 264 3 discriminator 2 view .LVU366
 267:Drivers/STM32L4xx_HAL_Driver/Src/stm32l4xx_hal_flash_ex.c **** 
 1192              		.loc 1 267 3 discriminator 2 view .LVU367
 269:Drivers/STM32L4xx_HAL_Driver/Src/stm32l4xx_hal_flash_ex.c **** 
 1193              		.loc 1 269 3 discriminator 2 view .LVU368
 269:Drivers/STM32L4xx_HAL_Driver/Src/stm32l4xx_hal_flash_ex.c **** 
 1194              		.loc 1 269 20 is_stmt 0 discriminator 2 view .LVU369
 1195 0012 0021     		movs	r1, #0
 1196 0014 5160     		str	r1, [r2, #4]
ARM GAS  /tmp/ccWeCwHW.s 			page 50


 272:Drivers/STM32L4xx_HAL_Driver/Src/stm32l4xx_hal_flash_ex.c ****   {
 1197              		.loc 1 272 3 is_stmt 1 discriminator 2 view .LVU370
 272:Drivers/STM32L4xx_HAL_Driver/Src/stm32l4xx_hal_flash_ex.c ****   {
 1198              		.loc 1 272 6 is_stmt 0 discriminator 2 view .LVU371
 1199 0016 274A     		ldr	r2, .L104+4
 1200 0018 1268     		ldr	r2, [r2]
 272:Drivers/STM32L4xx_HAL_Driver/Src/stm32l4xx_hal_flash_ex.c ****   {
 1201              		.loc 1 272 5 discriminator 2 view .LVU372
 1202 001a 12F4007F 		tst	r2, #512
 1203 001e 2BD0     		beq	.L93
 275:Drivers/STM32L4xx_HAL_Driver/Src/stm32l4xx_hal_flash_ex.c ****     
 1204              		.loc 1 275 5 is_stmt 1 view .LVU373
 1205 0020 244A     		ldr	r2, .L104+4
 1206 0022 1168     		ldr	r1, [r2]
 1207 0024 21F40071 		bic	r1, r1, #512
 1208 0028 1160     		str	r1, [r2]
 277:Drivers/STM32L4xx_HAL_Driver/Src/stm32l4xx_hal_flash_ex.c ****     {
 1209              		.loc 1 277 5 view .LVU374
 277:Drivers/STM32L4xx_HAL_Driver/Src/stm32l4xx_hal_flash_ex.c ****     {
 1210              		.loc 1 277 8 is_stmt 0 view .LVU375
 1211 002a 1268     		ldr	r2, [r2]
 277:Drivers/STM32L4xx_HAL_Driver/Src/stm32l4xx_hal_flash_ex.c ****     {
 1212              		.loc 1 277 7 view .LVU376
 1213 002c 12F4806F 		tst	r2, #1024
 1214 0030 1ED0     		beq	.L94
 280:Drivers/STM32L4xx_HAL_Driver/Src/stm32l4xx_hal_flash_ex.c ****       pFlash.CacheToReactivate = FLASH_CACHE_ICACHE_DCACHE_ENABLED;
 1215              		.loc 1 280 7 is_stmt 1 view .LVU377
 1216 0032 2049     		ldr	r1, .L104+4
 1217 0034 0A68     		ldr	r2, [r1]
 1218 0036 22F48062 		bic	r2, r2, #1024
 1219 003a 0A60     		str	r2, [r1]
 281:Drivers/STM32L4xx_HAL_Driver/Src/stm32l4xx_hal_flash_ex.c ****     }
 1220              		.loc 1 281 7 view .LVU378
 281:Drivers/STM32L4xx_HAL_Driver/Src/stm32l4xx_hal_flash_ex.c ****     }
 1221              		.loc 1 281 32 is_stmt 0 view .LVU379
 1222 003c 1C4A     		ldr	r2, .L104
 1223 003e 0321     		movs	r1, #3
 1224 0040 1177     		strb	r1, [r2, #28]
 1225              	.L95:
 300:Drivers/STM32L4xx_HAL_Driver/Src/stm32l4xx_hal_flash_ex.c **** 
 1226              		.loc 1 300 3 is_stmt 1 discriminator 4 view .LVU380
 300:Drivers/STM32L4xx_HAL_Driver/Src/stm32l4xx_hal_flash_ex.c **** 
 1227              		.loc 1 300 3 discriminator 4 view .LVU381
 300:Drivers/STM32L4xx_HAL_Driver/Src/stm32l4xx_hal_flash_ex.c **** 
 1228              		.loc 1 300 3 discriminator 4 view .LVU382
 300:Drivers/STM32L4xx_HAL_Driver/Src/stm32l4xx_hal_flash_ex.c **** 
 1229              		.loc 1 300 3 discriminator 4 view .LVU383
 1230 0042 1C49     		ldr	r1, .L104+4
 1231 0044 4A69     		ldr	r2, [r1, #20]
 1232 0046 42F04072 		orr	r2, r2, #50331648
 1233 004a 4A61     		str	r2, [r1, #20]
 300:Drivers/STM32L4xx_HAL_Driver/Src/stm32l4xx_hal_flash_ex.c **** 
 1234              		.loc 1 300 3 discriminator 4 view .LVU384
 302:Drivers/STM32L4xx_HAL_Driver/Src/stm32l4xx_hal_flash_ex.c **** 
 1235              		.loc 1 302 3 discriminator 4 view .LVU385
 302:Drivers/STM32L4xx_HAL_Driver/Src/stm32l4xx_hal_flash_ex.c **** 
 1236              		.loc 1 302 27 is_stmt 0 discriminator 4 view .LVU386
ARM GAS  /tmp/ccWeCwHW.s 			page 51


 1237 004c 5968     		ldr	r1, [r3, #4]
 302:Drivers/STM32L4xx_HAL_Driver/Src/stm32l4xx_hal_flash_ex.c **** 
 1238              		.loc 1 302 15 discriminator 4 view .LVU387
 1239 004e 184A     		ldr	r2, .L104
 1240 0050 1161     		str	r1, [r2, #16]
 304:Drivers/STM32L4xx_HAL_Driver/Src/stm32l4xx_hal_flash_ex.c ****   {
 1241              		.loc 1 304 3 is_stmt 1 discriminator 4 view .LVU388
 304:Drivers/STM32L4xx_HAL_Driver/Src/stm32l4xx_hal_flash_ex.c ****   {
 1242              		.loc 1 304 17 is_stmt 0 discriminator 4 view .LVU389
 1243 0052 1A68     		ldr	r2, [r3]
 304:Drivers/STM32L4xx_HAL_Driver/Src/stm32l4xx_hal_flash_ex.c ****   {
 1244              		.loc 1 304 6 discriminator 4 view .LVU390
 1245 0054 012A     		cmp	r2, #1
 1246 0056 21D0     		beq	.L103
 313:Drivers/STM32L4xx_HAL_Driver/Src/stm32l4xx_hal_flash_ex.c ****     pFlash.NbPagesToErase = pEraseInit->NbPages;
 1247              		.loc 1 313 5 is_stmt 1 view .LVU391
 313:Drivers/STM32L4xx_HAL_Driver/Src/stm32l4xx_hal_flash_ex.c ****     pFlash.NbPagesToErase = pEraseInit->NbPages;
 1248              		.loc 1 313 29 is_stmt 0 view .LVU392
 1249 0058 154A     		ldr	r2, .L104
 1250 005a 0121     		movs	r1, #1
 1251 005c 1172     		strb	r1, [r2, #8]
 314:Drivers/STM32L4xx_HAL_Driver/Src/stm32l4xx_hal_flash_ex.c ****     pFlash.Page = pEraseInit->Page;
 1252              		.loc 1 314 5 is_stmt 1 view .LVU393
 314:Drivers/STM32L4xx_HAL_Driver/Src/stm32l4xx_hal_flash_ex.c ****     pFlash.Page = pEraseInit->Page;
 1253              		.loc 1 314 39 is_stmt 0 view .LVU394
 1254 005e D968     		ldr	r1, [r3, #12]
 314:Drivers/STM32L4xx_HAL_Driver/Src/stm32l4xx_hal_flash_ex.c ****     pFlash.Page = pEraseInit->Page;
 1255              		.loc 1 314 27 view .LVU395
 1256 0060 9161     		str	r1, [r2, #24]
 315:Drivers/STM32L4xx_HAL_Driver/Src/stm32l4xx_hal_flash_ex.c **** 
 1257              		.loc 1 315 5 is_stmt 1 view .LVU396
 315:Drivers/STM32L4xx_HAL_Driver/Src/stm32l4xx_hal_flash_ex.c **** 
 1258              		.loc 1 315 29 is_stmt 0 view .LVU397
 1259 0062 9868     		ldr	r0, [r3, #8]
 1260              	.LVL109:
 315:Drivers/STM32L4xx_HAL_Driver/Src/stm32l4xx_hal_flash_ex.c **** 
 1261              		.loc 1 315 17 view .LVU398
 1262 0064 5061     		str	r0, [r2, #20]
 318:Drivers/STM32L4xx_HAL_Driver/Src/stm32l4xx_hal_flash_ex.c ****   }
 1263              		.loc 1 318 5 is_stmt 1 view .LVU399
 1264 0066 5968     		ldr	r1, [r3, #4]
 1265 0068 FFF7FEFF 		bl	FLASH_PageErase
 1266              	.LVL110:
 321:Drivers/STM32L4xx_HAL_Driver/Src/stm32l4xx_hal_flash_ex.c **** }
 1267              		.loc 1 321 10 is_stmt 0 view .LVU400
 1268 006c 0020     		movs	r0, #0
 1269              	.L92:
 322:Drivers/STM32L4xx_HAL_Driver/Src/stm32l4xx_hal_flash_ex.c **** 
 1270              		.loc 1 322 1 view .LVU401
 1271 006e 08BD     		pop	{r3, pc}
 1272              	.LVL111:
 1273              	.L94:
 285:Drivers/STM32L4xx_HAL_Driver/Src/stm32l4xx_hal_flash_ex.c ****     }
 1274              		.loc 1 285 7 is_stmt 1 view .LVU402
 285:Drivers/STM32L4xx_HAL_Driver/Src/stm32l4xx_hal_flash_ex.c ****     }
 1275              		.loc 1 285 32 is_stmt 0 view .LVU403
 1276 0070 0F4A     		ldr	r2, .L104
ARM GAS  /tmp/ccWeCwHW.s 			page 52


 1277 0072 0121     		movs	r1, #1
 1278 0074 1177     		strb	r1, [r2, #28]
 1279 0076 E4E7     		b	.L95
 1280              	.L93:
 288:Drivers/STM32L4xx_HAL_Driver/Src/stm32l4xx_hal_flash_ex.c ****   {
 1281              		.loc 1 288 8 is_stmt 1 view .LVU404
 288:Drivers/STM32L4xx_HAL_Driver/Src/stm32l4xx_hal_flash_ex.c ****   {
 1282              		.loc 1 288 11 is_stmt 0 view .LVU405
 1283 0078 0E4A     		ldr	r2, .L104+4
 1284 007a 1268     		ldr	r2, [r2]
 288:Drivers/STM32L4xx_HAL_Driver/Src/stm32l4xx_hal_flash_ex.c ****   {
 1285              		.loc 1 288 10 view .LVU406
 1286 007c 12F4806F 		tst	r2, #1024
 1287 0080 08D0     		beq	.L96
 291:Drivers/STM32L4xx_HAL_Driver/Src/stm32l4xx_hal_flash_ex.c ****     pFlash.CacheToReactivate = FLASH_CACHE_DCACHE_ENABLED;
 1288              		.loc 1 291 5 is_stmt 1 view .LVU407
 1289 0082 0C49     		ldr	r1, .L104+4
 1290 0084 0A68     		ldr	r2, [r1]
 1291 0086 22F48062 		bic	r2, r2, #1024
 1292 008a 0A60     		str	r2, [r1]
 292:Drivers/STM32L4xx_HAL_Driver/Src/stm32l4xx_hal_flash_ex.c ****   }
 1293              		.loc 1 292 5 view .LVU408
 292:Drivers/STM32L4xx_HAL_Driver/Src/stm32l4xx_hal_flash_ex.c ****   }
 1294              		.loc 1 292 30 is_stmt 0 view .LVU409
 1295 008c 084A     		ldr	r2, .L104
 1296 008e 0221     		movs	r1, #2
 1297 0090 1177     		strb	r1, [r2, #28]
 1298 0092 D6E7     		b	.L95
 1299              	.L96:
 296:Drivers/STM32L4xx_HAL_Driver/Src/stm32l4xx_hal_flash_ex.c ****   }
 1300              		.loc 1 296 5 is_stmt 1 view .LVU410
 296:Drivers/STM32L4xx_HAL_Driver/Src/stm32l4xx_hal_flash_ex.c ****   }
 1301              		.loc 1 296 30 is_stmt 0 view .LVU411
 1302 0094 064A     		ldr	r2, .L104
 1303 0096 0021     		movs	r1, #0
 1304 0098 1177     		strb	r1, [r2, #28]
 1305 009a D2E7     		b	.L95
 1306              	.L103:
 307:Drivers/STM32L4xx_HAL_Driver/Src/stm32l4xx_hal_flash_ex.c ****     FLASH_MassErase(pEraseInit->Banks);
 1307              		.loc 1 307 5 is_stmt 1 view .LVU412
 307:Drivers/STM32L4xx_HAL_Driver/Src/stm32l4xx_hal_flash_ex.c ****     FLASH_MassErase(pEraseInit->Banks);
 1308              		.loc 1 307 29 is_stmt 0 view .LVU413
 1309 009c 044A     		ldr	r2, .L104
 1310 009e 0221     		movs	r1, #2
 1311 00a0 1172     		strb	r1, [r2, #8]
 308:Drivers/STM32L4xx_HAL_Driver/Src/stm32l4xx_hal_flash_ex.c ****   }
 1312              		.loc 1 308 5 is_stmt 1 view .LVU414
 1313 00a2 5868     		ldr	r0, [r3, #4]
 1314              	.LVL112:
 308:Drivers/STM32L4xx_HAL_Driver/Src/stm32l4xx_hal_flash_ex.c ****   }
 1315              		.loc 1 308 5 is_stmt 0 view .LVU415
 1316 00a4 FFF7FEFF 		bl	FLASH_MassErase
 1317              	.LVL113:
 321:Drivers/STM32L4xx_HAL_Driver/Src/stm32l4xx_hal_flash_ex.c **** }
 1318              		.loc 1 321 10 view .LVU416
 1319 00a8 0020     		movs	r0, #0
 1320 00aa E0E7     		b	.L92
ARM GAS  /tmp/ccWeCwHW.s 			page 53


 1321              	.LVL114:
 1322              	.L98:
 1323              	.LCFI9:
 1324              		.cfi_def_cfa_offset 0
 1325              		.cfi_restore 3
 1326              		.cfi_restore 14
 264:Drivers/STM32L4xx_HAL_Driver/Src/stm32l4xx_hal_flash_ex.c **** 
 1327              		.loc 1 264 3 view .LVU417
 1328 00ac 0220     		movs	r0, #2
 1329              	.LVL115:
 322:Drivers/STM32L4xx_HAL_Driver/Src/stm32l4xx_hal_flash_ex.c **** 
 1330              		.loc 1 322 1 view .LVU418
 1331 00ae 7047     		bx	lr
 1332              	.L105:
 1333              		.align	2
 1334              	.L104:
 1335 00b0 00000000 		.word	pFlash
 1336 00b4 00200240 		.word	1073881088
 1337              		.cfi_endproc
 1338              	.LFE124:
 1340              		.section	.text.FLASH_FlushCaches,"ax",%progbits
 1341              		.align	1
 1342              		.global	FLASH_FlushCaches
 1343              		.syntax unified
 1344              		.thumb
 1345              		.thumb_func
 1346              		.fpu fpv4-sp-d16
 1348              	FLASH_FlushCaches:
 1349              	.LFB129:
 625:Drivers/STM32L4xx_HAL_Driver/Src/stm32l4xx_hal_flash_ex.c ****   FLASH_CacheTypeDef cache = pFlash.CacheToReactivate;
 1350              		.loc 1 625 1 is_stmt 1 view -0
 1351              		.cfi_startproc
 1352              		@ args = 0, pretend = 0, frame = 0
 1353              		@ frame_needed = 0, uses_anonymous_args = 0
 1354              		@ link register save eliminated.
 626:Drivers/STM32L4xx_HAL_Driver/Src/stm32l4xx_hal_flash_ex.c **** 
 1355              		.loc 1 626 3 view .LVU420
 626:Drivers/STM32L4xx_HAL_Driver/Src/stm32l4xx_hal_flash_ex.c **** 
 1356              		.loc 1 626 22 is_stmt 0 view .LVU421
 1357 0000 144B     		ldr	r3, .L111
 1358 0002 1B7F     		ldrb	r3, [r3, #28]	@ zero_extendqisi2
 1359 0004 DBB2     		uxtb	r3, r3
 1360              	.LVL116:
 629:Drivers/STM32L4xx_HAL_Driver/Src/stm32l4xx_hal_flash_ex.c ****      (cache == FLASH_CACHE_ICACHE_DCACHE_ENABLED))
 1361              		.loc 1 629 3 is_stmt 1 view .LVU422
 629:Drivers/STM32L4xx_HAL_Driver/Src/stm32l4xx_hal_flash_ex.c ****      (cache == FLASH_CACHE_ICACHE_DCACHE_ENABLED))
 1362              		.loc 1 629 5 is_stmt 0 view .LVU423
 1363 0006 012B     		cmp	r3, #1
 1364 0008 01D0     		beq	.L107
 629:Drivers/STM32L4xx_HAL_Driver/Src/stm32l4xx_hal_flash_ex.c ****      (cache == FLASH_CACHE_ICACHE_DCACHE_ENABLED))
 1365              		.loc 1 629 44 discriminator 1 view .LVU424
 1366 000a 032B     		cmp	r3, #3
 1367 000c 0CD1     		bne	.L108
 1368              	.L107:
 633:Drivers/STM32L4xx_HAL_Driver/Src/stm32l4xx_hal_flash_ex.c ****     /* Enable instruction cache */
 1369              		.loc 1 633 5 is_stmt 1 view .LVU425
 633:Drivers/STM32L4xx_HAL_Driver/Src/stm32l4xx_hal_flash_ex.c ****     /* Enable instruction cache */
ARM GAS  /tmp/ccWeCwHW.s 			page 54


 1370              		.loc 1 633 5 view .LVU426
 1371 000e 124A     		ldr	r2, .L111+4
 1372 0010 1168     		ldr	r1, [r2]
 1373 0012 41F40061 		orr	r1, r1, #2048
 1374 0016 1160     		str	r1, [r2]
 633:Drivers/STM32L4xx_HAL_Driver/Src/stm32l4xx_hal_flash_ex.c ****     /* Enable instruction cache */
 1375              		.loc 1 633 5 view .LVU427
 1376 0018 1168     		ldr	r1, [r2]
 1377 001a 21F40061 		bic	r1, r1, #2048
 1378 001e 1160     		str	r1, [r2]
 633:Drivers/STM32L4xx_HAL_Driver/Src/stm32l4xx_hal_flash_ex.c ****     /* Enable instruction cache */
 1379              		.loc 1 633 5 view .LVU428
 635:Drivers/STM32L4xx_HAL_Driver/Src/stm32l4xx_hal_flash_ex.c ****   }
 1380              		.loc 1 635 5 view .LVU429
 1381 0020 1168     		ldr	r1, [r2]
 1382 0022 41F40071 		orr	r1, r1, #512
 1383 0026 1160     		str	r1, [r2]
 1384              	.L108:
 639:Drivers/STM32L4xx_HAL_Driver/Src/stm32l4xx_hal_flash_ex.c ****      (cache == FLASH_CACHE_ICACHE_DCACHE_ENABLED))
 1385              		.loc 1 639 3 view .LVU430
 639:Drivers/STM32L4xx_HAL_Driver/Src/stm32l4xx_hal_flash_ex.c ****      (cache == FLASH_CACHE_ICACHE_DCACHE_ENABLED))
 1386              		.loc 1 639 44 is_stmt 0 view .LVU431
 1387 0028 023B     		subs	r3, r3, #2
 1388              	.LVL117:
 639:Drivers/STM32L4xx_HAL_Driver/Src/stm32l4xx_hal_flash_ex.c ****      (cache == FLASH_CACHE_ICACHE_DCACHE_ENABLED))
 1389              		.loc 1 639 44 view .LVU432
 1390 002a DBB2     		uxtb	r3, r3
 1391              	.LVL118:
 639:Drivers/STM32L4xx_HAL_Driver/Src/stm32l4xx_hal_flash_ex.c ****      (cache == FLASH_CACHE_ICACHE_DCACHE_ENABLED))
 1392              		.loc 1 639 5 view .LVU433
 1393 002c 012B     		cmp	r3, #1
 1394 002e 03D9     		bls	.L110
 1395              	.L109:
 649:Drivers/STM32L4xx_HAL_Driver/Src/stm32l4xx_hal_flash_ex.c **** }
 1396              		.loc 1 649 3 is_stmt 1 view .LVU434
 649:Drivers/STM32L4xx_HAL_Driver/Src/stm32l4xx_hal_flash_ex.c **** }
 1397              		.loc 1 649 28 is_stmt 0 view .LVU435
 1398 0030 084B     		ldr	r3, .L111
 1399 0032 0022     		movs	r2, #0
 1400 0034 1A77     		strb	r2, [r3, #28]
 650:Drivers/STM32L4xx_HAL_Driver/Src/stm32l4xx_hal_flash_ex.c **** 
 1401              		.loc 1 650 1 view .LVU436
 1402 0036 7047     		bx	lr
 1403              	.L110:
 643:Drivers/STM32L4xx_HAL_Driver/Src/stm32l4xx_hal_flash_ex.c ****     /* Enable data cache */
 1404              		.loc 1 643 5 is_stmt 1 view .LVU437
 643:Drivers/STM32L4xx_HAL_Driver/Src/stm32l4xx_hal_flash_ex.c ****     /* Enable data cache */
 1405              		.loc 1 643 5 view .LVU438
 1406 0038 074B     		ldr	r3, .L111+4
 1407 003a 1A68     		ldr	r2, [r3]
 1408 003c 42F48052 		orr	r2, r2, #4096
 1409 0040 1A60     		str	r2, [r3]
 643:Drivers/STM32L4xx_HAL_Driver/Src/stm32l4xx_hal_flash_ex.c ****     /* Enable data cache */
 1410              		.loc 1 643 5 view .LVU439
 1411 0042 1A68     		ldr	r2, [r3]
 1412 0044 22F48052 		bic	r2, r2, #4096
 1413 0048 1A60     		str	r2, [r3]
ARM GAS  /tmp/ccWeCwHW.s 			page 55


 643:Drivers/STM32L4xx_HAL_Driver/Src/stm32l4xx_hal_flash_ex.c ****     /* Enable data cache */
 1414              		.loc 1 643 5 view .LVU440
 645:Drivers/STM32L4xx_HAL_Driver/Src/stm32l4xx_hal_flash_ex.c ****   }
 1415              		.loc 1 645 5 view .LVU441
 1416 004a 1A68     		ldr	r2, [r3]
 1417 004c 42F48062 		orr	r2, r2, #1024
 1418 0050 1A60     		str	r2, [r3]
 1419 0052 EDE7     		b	.L109
 1420              	.L112:
 1421              		.align	2
 1422              	.L111:
 1423 0054 00000000 		.word	pFlash
 1424 0058 00200240 		.word	1073881088
 1425              		.cfi_endproc
 1426              	.LFE129:
 1428              		.section	.text.HAL_FLASHEx_Erase,"ax",%progbits
 1429              		.align	1
 1430              		.global	HAL_FLASHEx_Erase
 1431              		.syntax unified
 1432              		.thumb
 1433              		.thumb_func
 1434              		.fpu fpv4-sp-d16
 1436              	HAL_FLASHEx_Erase:
 1437              	.LVL119:
 1438              	.LFB123:
 155:Drivers/STM32L4xx_HAL_Driver/Src/stm32l4xx_hal_flash_ex.c ****   HAL_StatusTypeDef status;
 1439              		.loc 1 155 1 view -0
 1440              		.cfi_startproc
 1441              		@ args = 0, pretend = 0, frame = 0
 1442              		@ frame_needed = 0, uses_anonymous_args = 0
 155:Drivers/STM32L4xx_HAL_Driver/Src/stm32l4xx_hal_flash_ex.c ****   HAL_StatusTypeDef status;
 1443              		.loc 1 155 1 is_stmt 0 view .LVU443
 1444 0000 F8B5     		push	{r3, r4, r5, r6, r7, lr}
 1445              	.LCFI10:
 1446              		.cfi_def_cfa_offset 24
 1447              		.cfi_offset 3, -24
 1448              		.cfi_offset 4, -20
 1449              		.cfi_offset 5, -16
 1450              		.cfi_offset 6, -12
 1451              		.cfi_offset 7, -8
 1452              		.cfi_offset 14, -4
 156:Drivers/STM32L4xx_HAL_Driver/Src/stm32l4xx_hal_flash_ex.c ****   uint32_t page_index;
 1453              		.loc 1 156 3 is_stmt 1 view .LVU444
 157:Drivers/STM32L4xx_HAL_Driver/Src/stm32l4xx_hal_flash_ex.c **** 
 1454              		.loc 1 157 3 view .LVU445
 160:Drivers/STM32L4xx_HAL_Driver/Src/stm32l4xx_hal_flash_ex.c **** 
 1455              		.loc 1 160 3 view .LVU446
 160:Drivers/STM32L4xx_HAL_Driver/Src/stm32l4xx_hal_flash_ex.c **** 
 1456              		.loc 1 160 3 view .LVU447
 1457 0002 3B4B     		ldr	r3, .L129
 1458 0004 1B78     		ldrb	r3, [r3]	@ zero_extendqisi2
 1459 0006 012B     		cmp	r3, #1
 1460 0008 6FD0     		beq	.L125
 1461 000a 0446     		mov	r4, r0
 1462 000c 0E46     		mov	r6, r1
 160:Drivers/STM32L4xx_HAL_Driver/Src/stm32l4xx_hal_flash_ex.c **** 
 1463              		.loc 1 160 3 discriminator 2 view .LVU448
ARM GAS  /tmp/ccWeCwHW.s 			page 56


 1464 000e 384B     		ldr	r3, .L129
 1465 0010 0122     		movs	r2, #1
 1466 0012 1A70     		strb	r2, [r3]
 160:Drivers/STM32L4xx_HAL_Driver/Src/stm32l4xx_hal_flash_ex.c **** 
 1467              		.loc 1 160 3 discriminator 2 view .LVU449
 163:Drivers/STM32L4xx_HAL_Driver/Src/stm32l4xx_hal_flash_ex.c **** 
 1468              		.loc 1 163 3 discriminator 2 view .LVU450
 166:Drivers/STM32L4xx_HAL_Driver/Src/stm32l4xx_hal_flash_ex.c **** 
 1469              		.loc 1 166 3 discriminator 2 view .LVU451
 166:Drivers/STM32L4xx_HAL_Driver/Src/stm32l4xx_hal_flash_ex.c **** 
 1470              		.loc 1 166 12 is_stmt 0 discriminator 2 view .LVU452
 1471 0014 4CF25030 		movw	r0, #50000
 1472              	.LVL120:
 166:Drivers/STM32L4xx_HAL_Driver/Src/stm32l4xx_hal_flash_ex.c **** 
 1473              		.loc 1 166 12 discriminator 2 view .LVU453
 1474 0018 FFF7FEFF 		bl	FLASH_WaitForLastOperation
 1475              	.LVL121:
 168:Drivers/STM32L4xx_HAL_Driver/Src/stm32l4xx_hal_flash_ex.c ****   {
 1476              		.loc 1 168 3 is_stmt 1 discriminator 2 view .LVU454
 168:Drivers/STM32L4xx_HAL_Driver/Src/stm32l4xx_hal_flash_ex.c ****   {
 1477              		.loc 1 168 6 is_stmt 0 discriminator 2 view .LVU455
 1478 001c 0746     		mov	r7, r0
 1479 001e 0028     		cmp	r0, #0
 1480 0020 5ED1     		bne	.L115
 170:Drivers/STM32L4xx_HAL_Driver/Src/stm32l4xx_hal_flash_ex.c **** 
 1481              		.loc 1 170 5 is_stmt 1 view .LVU456
 170:Drivers/STM32L4xx_HAL_Driver/Src/stm32l4xx_hal_flash_ex.c **** 
 1482              		.loc 1 170 22 is_stmt 0 view .LVU457
 1483 0022 334B     		ldr	r3, .L129
 1484 0024 0022     		movs	r2, #0
 1485 0026 5A60     		str	r2, [r3, #4]
 173:Drivers/STM32L4xx_HAL_Driver/Src/stm32l4xx_hal_flash_ex.c ****     {
 1486              		.loc 1 173 5 is_stmt 1 view .LVU458
 173:Drivers/STM32L4xx_HAL_Driver/Src/stm32l4xx_hal_flash_ex.c ****     {
 1487              		.loc 1 173 8 is_stmt 0 view .LVU459
 1488 0028 324B     		ldr	r3, .L129+4
 1489 002a 1B68     		ldr	r3, [r3]
 173:Drivers/STM32L4xx_HAL_Driver/Src/stm32l4xx_hal_flash_ex.c ****     {
 1490              		.loc 1 173 7 view .LVU460
 1491 002c 13F4007F 		tst	r3, #512
 1492 0030 33D0     		beq	.L116
 176:Drivers/STM32L4xx_HAL_Driver/Src/stm32l4xx_hal_flash_ex.c **** 
 1493              		.loc 1 176 7 is_stmt 1 view .LVU461
 1494 0032 304B     		ldr	r3, .L129+4
 1495 0034 1A68     		ldr	r2, [r3]
 1496 0036 22F40072 		bic	r2, r2, #512
 1497 003a 1A60     		str	r2, [r3]
 178:Drivers/STM32L4xx_HAL_Driver/Src/stm32l4xx_hal_flash_ex.c ****       {
 1498              		.loc 1 178 7 view .LVU462
 178:Drivers/STM32L4xx_HAL_Driver/Src/stm32l4xx_hal_flash_ex.c ****       {
 1499              		.loc 1 178 10 is_stmt 0 view .LVU463
 1500 003c 1B68     		ldr	r3, [r3]
 178:Drivers/STM32L4xx_HAL_Driver/Src/stm32l4xx_hal_flash_ex.c ****       {
 1501              		.loc 1 178 9 view .LVU464
 1502 003e 13F4806F 		tst	r3, #1024
 1503 0042 26D0     		beq	.L117
 181:Drivers/STM32L4xx_HAL_Driver/Src/stm32l4xx_hal_flash_ex.c ****         pFlash.CacheToReactivate = FLASH_CACHE_ICACHE_DCACHE_ENABLED;
ARM GAS  /tmp/ccWeCwHW.s 			page 57


 1504              		.loc 1 181 9 is_stmt 1 view .LVU465
 1505 0044 2B4A     		ldr	r2, .L129+4
 1506 0046 1368     		ldr	r3, [r2]
 1507 0048 23F48063 		bic	r3, r3, #1024
 1508 004c 1360     		str	r3, [r2]
 182:Drivers/STM32L4xx_HAL_Driver/Src/stm32l4xx_hal_flash_ex.c ****       }
 1509              		.loc 1 182 9 view .LVU466
 182:Drivers/STM32L4xx_HAL_Driver/Src/stm32l4xx_hal_flash_ex.c ****       }
 1510              		.loc 1 182 34 is_stmt 0 view .LVU467
 1511 004e 284B     		ldr	r3, .L129
 1512 0050 0322     		movs	r2, #3
 1513 0052 1A77     		strb	r2, [r3, #28]
 1514              	.L118:
 200:Drivers/STM32L4xx_HAL_Driver/Src/stm32l4xx_hal_flash_ex.c ****     {
 1515              		.loc 1 200 5 is_stmt 1 view .LVU468
 200:Drivers/STM32L4xx_HAL_Driver/Src/stm32l4xx_hal_flash_ex.c ****     {
 1516              		.loc 1 200 19 is_stmt 0 view .LVU469
 1517 0054 2368     		ldr	r3, [r4]
 200:Drivers/STM32L4xx_HAL_Driver/Src/stm32l4xx_hal_flash_ex.c ****     {
 1518              		.loc 1 200 8 view .LVU470
 1519 0056 012B     		cmp	r3, #1
 1520 0058 31D0     		beq	.L127
 221:Drivers/STM32L4xx_HAL_Driver/Src/stm32l4xx_hal_flash_ex.c ****       
 1521              		.loc 1 221 7 is_stmt 1 view .LVU471
 221:Drivers/STM32L4xx_HAL_Driver/Src/stm32l4xx_hal_flash_ex.c ****       
 1522              		.loc 1 221 18 is_stmt 0 view .LVU472
 1523 005a 4FF0FF33 		mov	r3, #-1
 1524 005e 3360     		str	r3, [r6]
 223:Drivers/STM32L4xx_HAL_Driver/Src/stm32l4xx_hal_flash_ex.c ****       {
 1525              		.loc 1 223 7 is_stmt 1 view .LVU473
 223:Drivers/STM32L4xx_HAL_Driver/Src/stm32l4xx_hal_flash_ex.c ****       {
 1526              		.loc 1 223 22 is_stmt 0 view .LVU474
 1527 0060 A568     		ldr	r5, [r4, #8]
 1528              	.LVL122:
 1529              	.L122:
 223:Drivers/STM32L4xx_HAL_Driver/Src/stm32l4xx_hal_flash_ex.c ****       {
 1530              		.loc 1 223 42 is_stmt 1 discriminator 1 view .LVU475
 223:Drivers/STM32L4xx_HAL_Driver/Src/stm32l4xx_hal_flash_ex.c ****       {
 1531              		.loc 1 223 66 is_stmt 0 discriminator 1 view .LVU476
 1532 0062 A368     		ldr	r3, [r4, #8]
 223:Drivers/STM32L4xx_HAL_Driver/Src/stm32l4xx_hal_flash_ex.c ****       {
 1533              		.loc 1 223 85 discriminator 1 view .LVU477
 1534 0064 E268     		ldr	r2, [r4, #12]
 223:Drivers/STM32L4xx_HAL_Driver/Src/stm32l4xx_hal_flash_ex.c ****       {
 1535              		.loc 1 223 73 discriminator 1 view .LVU478
 1536 0066 1344     		add	r3, r3, r2
 223:Drivers/STM32L4xx_HAL_Driver/Src/stm32l4xx_hal_flash_ex.c ****       {
 1537              		.loc 1 223 7 discriminator 1 view .LVU479
 1538 0068 AB42     		cmp	r3, r5
 1539 006a 37D9     		bls	.L121
 225:Drivers/STM32L4xx_HAL_Driver/Src/stm32l4xx_hal_flash_ex.c **** 
 1540              		.loc 1 225 9 is_stmt 1 view .LVU480
 1541 006c 6168     		ldr	r1, [r4, #4]
 1542 006e 2846     		mov	r0, r5
 1543 0070 FFF7FEFF 		bl	FLASH_PageErase
 1544              	.LVL123:
 228:Drivers/STM32L4xx_HAL_Driver/Src/stm32l4xx_hal_flash_ex.c **** 
ARM GAS  /tmp/ccWeCwHW.s 			page 58


 1545              		.loc 1 228 9 view .LVU481
 228:Drivers/STM32L4xx_HAL_Driver/Src/stm32l4xx_hal_flash_ex.c **** 
 1546              		.loc 1 228 18 is_stmt 0 view .LVU482
 1547 0074 4CF25030 		movw	r0, #50000
 1548 0078 FFF7FEFF 		bl	FLASH_WaitForLastOperation
 1549              	.LVL124:
 231:Drivers/STM32L4xx_HAL_Driver/Src/stm32l4xx_hal_flash_ex.c **** 
 1550              		.loc 1 231 9 is_stmt 1 view .LVU483
 1551 007c 1D4A     		ldr	r2, .L129+4
 1552 007e 5369     		ldr	r3, [r2, #20]
 1553 0080 23F4FF63 		bic	r3, r3, #2040
 1554 0084 23F00203 		bic	r3, r3, #2
 1555 0088 5361     		str	r3, [r2, #20]
 233:Drivers/STM32L4xx_HAL_Driver/Src/stm32l4xx_hal_flash_ex.c ****         {
 1556              		.loc 1 233 9 view .LVU484
 233:Drivers/STM32L4xx_HAL_Driver/Src/stm32l4xx_hal_flash_ex.c ****         {
 1557              		.loc 1 233 12 is_stmt 0 view .LVU485
 1558 008a 0746     		mov	r7, r0
 1559 008c 28BB     		cbnz	r0, .L128
 223:Drivers/STM32L4xx_HAL_Driver/Src/stm32l4xx_hal_flash_ex.c ****       {
 1560              		.loc 1 223 97 is_stmt 1 discriminator 2 view .LVU486
 223:Drivers/STM32L4xx_HAL_Driver/Src/stm32l4xx_hal_flash_ex.c ****       {
 1561              		.loc 1 223 107 is_stmt 0 discriminator 2 view .LVU487
 1562 008e 0135     		adds	r5, r5, #1
 1563              	.LVL125:
 223:Drivers/STM32L4xx_HAL_Driver/Src/stm32l4xx_hal_flash_ex.c ****       {
 1564              		.loc 1 223 107 discriminator 2 view .LVU488
 1565 0090 E7E7     		b	.L122
 1566              	.LVL126:
 1567              	.L117:
 186:Drivers/STM32L4xx_HAL_Driver/Src/stm32l4xx_hal_flash_ex.c ****       }
 1568              		.loc 1 186 9 is_stmt 1 view .LVU489
 186:Drivers/STM32L4xx_HAL_Driver/Src/stm32l4xx_hal_flash_ex.c ****       }
 1569              		.loc 1 186 34 is_stmt 0 view .LVU490
 1570 0092 174B     		ldr	r3, .L129
 1571 0094 0122     		movs	r2, #1
 1572 0096 1A77     		strb	r2, [r3, #28]
 1573 0098 DCE7     		b	.L118
 1574              	.L116:
 189:Drivers/STM32L4xx_HAL_Driver/Src/stm32l4xx_hal_flash_ex.c ****     {
 1575              		.loc 1 189 10 is_stmt 1 view .LVU491
 189:Drivers/STM32L4xx_HAL_Driver/Src/stm32l4xx_hal_flash_ex.c ****     {
 1576              		.loc 1 189 13 is_stmt 0 view .LVU492
 1577 009a 164B     		ldr	r3, .L129+4
 1578 009c 1B68     		ldr	r3, [r3]
 189:Drivers/STM32L4xx_HAL_Driver/Src/stm32l4xx_hal_flash_ex.c ****     {
 1579              		.loc 1 189 12 view .LVU493
 1580 009e 13F4806F 		tst	r3, #1024
 1581 00a2 08D0     		beq	.L119
 192:Drivers/STM32L4xx_HAL_Driver/Src/stm32l4xx_hal_flash_ex.c ****       pFlash.CacheToReactivate = FLASH_CACHE_DCACHE_ENABLED;
 1582              		.loc 1 192 7 is_stmt 1 view .LVU494
 1583 00a4 134A     		ldr	r2, .L129+4
 1584 00a6 1368     		ldr	r3, [r2]
 1585 00a8 23F48063 		bic	r3, r3, #1024
 1586 00ac 1360     		str	r3, [r2]
 193:Drivers/STM32L4xx_HAL_Driver/Src/stm32l4xx_hal_flash_ex.c ****     }
 1587              		.loc 1 193 7 view .LVU495
ARM GAS  /tmp/ccWeCwHW.s 			page 59


 193:Drivers/STM32L4xx_HAL_Driver/Src/stm32l4xx_hal_flash_ex.c ****     }
 1588              		.loc 1 193 32 is_stmt 0 view .LVU496
 1589 00ae 104B     		ldr	r3, .L129
 1590 00b0 0222     		movs	r2, #2
 1591 00b2 1A77     		strb	r2, [r3, #28]
 1592 00b4 CEE7     		b	.L118
 1593              	.L119:
 197:Drivers/STM32L4xx_HAL_Driver/Src/stm32l4xx_hal_flash_ex.c ****     }
 1594              		.loc 1 197 7 is_stmt 1 view .LVU497
 197:Drivers/STM32L4xx_HAL_Driver/Src/stm32l4xx_hal_flash_ex.c ****     }
 1595              		.loc 1 197 32 is_stmt 0 view .LVU498
 1596 00b6 0E4B     		ldr	r3, .L129
 1597 00b8 0022     		movs	r2, #0
 1598 00ba 1A77     		strb	r2, [r3, #28]
 1599 00bc CAE7     		b	.L118
 1600              	.L127:
 203:Drivers/STM32L4xx_HAL_Driver/Src/stm32l4xx_hal_flash_ex.c **** 
 1601              		.loc 1 203 7 is_stmt 1 view .LVU499
 1602 00be 6068     		ldr	r0, [r4, #4]
 1603              	.LVL127:
 203:Drivers/STM32L4xx_HAL_Driver/Src/stm32l4xx_hal_flash_ex.c **** 
 1604              		.loc 1 203 7 is_stmt 0 view .LVU500
 1605 00c0 FFF7FEFF 		bl	FLASH_MassErase
 1606              	.LVL128:
 206:Drivers/STM32L4xx_HAL_Driver/Src/stm32l4xx_hal_flash_ex.c **** 
 1607              		.loc 1 206 7 is_stmt 1 view .LVU501
 206:Drivers/STM32L4xx_HAL_Driver/Src/stm32l4xx_hal_flash_ex.c **** 
 1608              		.loc 1 206 16 is_stmt 0 view .LVU502
 1609 00c4 4CF25030 		movw	r0, #50000
 1610 00c8 FFF7FEFF 		bl	FLASH_WaitForLastOperation
 1611              	.LVL129:
 1612 00cc 0746     		mov	r7, r0
 1613              	.LVL130:
 215:Drivers/STM32L4xx_HAL_Driver/Src/stm32l4xx_hal_flash_ex.c **** #endif      
 1614              		.loc 1 215 7 is_stmt 1 view .LVU503
 1615 00ce 094A     		ldr	r2, .L129+4
 1616 00d0 5369     		ldr	r3, [r2, #20]
 1617 00d2 23F00403 		bic	r3, r3, #4
 1618 00d6 5361     		str	r3, [r2, #20]
 1619 00d8 00E0     		b	.L121
 1620              	.LVL131:
 1621              	.L128:
 236:Drivers/STM32L4xx_HAL_Driver/Src/stm32l4xx_hal_flash_ex.c ****           break;
 1622              		.loc 1 236 11 view .LVU504
 236:Drivers/STM32L4xx_HAL_Driver/Src/stm32l4xx_hal_flash_ex.c ****           break;
 1623              		.loc 1 236 22 is_stmt 0 view .LVU505
 1624 00da 3560     		str	r5, [r6]
 237:Drivers/STM32L4xx_HAL_Driver/Src/stm32l4xx_hal_flash_ex.c ****         }
 1625              		.loc 1 237 11 is_stmt 1 view .LVU506
 1626              	.LVL132:
 1627              	.L121:
 243:Drivers/STM32L4xx_HAL_Driver/Src/stm32l4xx_hal_flash_ex.c ****   }
 1628              		.loc 1 243 5 view .LVU507
 1629 00dc FFF7FEFF 		bl	FLASH_FlushCaches
 1630              	.LVL133:
 1631              	.L115:
 247:Drivers/STM32L4xx_HAL_Driver/Src/stm32l4xx_hal_flash_ex.c **** 
ARM GAS  /tmp/ccWeCwHW.s 			page 60


 1632              		.loc 1 247 3 view .LVU508
 247:Drivers/STM32L4xx_HAL_Driver/Src/stm32l4xx_hal_flash_ex.c **** 
 1633              		.loc 1 247 3 view .LVU509
 1634 00e0 034B     		ldr	r3, .L129
 1635 00e2 0022     		movs	r2, #0
 1636 00e4 1A70     		strb	r2, [r3]
 247:Drivers/STM32L4xx_HAL_Driver/Src/stm32l4xx_hal_flash_ex.c **** 
 1637              		.loc 1 247 3 view .LVU510
 249:Drivers/STM32L4xx_HAL_Driver/Src/stm32l4xx_hal_flash_ex.c **** }
 1638              		.loc 1 249 3 view .LVU511
 1639              	.LVL134:
 1640              	.L114:
 250:Drivers/STM32L4xx_HAL_Driver/Src/stm32l4xx_hal_flash_ex.c **** 
 1641              		.loc 1 250 1 is_stmt 0 view .LVU512
 1642 00e6 3846     		mov	r0, r7
 1643 00e8 F8BD     		pop	{r3, r4, r5, r6, r7, pc}
 1644              	.LVL135:
 1645              	.L125:
 160:Drivers/STM32L4xx_HAL_Driver/Src/stm32l4xx_hal_flash_ex.c **** 
 1646              		.loc 1 160 3 view .LVU513
 1647 00ea 0227     		movs	r7, #2
 1648 00ec FBE7     		b	.L114
 1649              	.L130:
 1650 00ee 00BF     		.align	2
 1651              	.L129:
 1652 00f0 00000000 		.word	pFlash
 1653 00f4 00200240 		.word	1073881088
 1654              		.cfi_endproc
 1655              	.LFE123:
 1657              		.text
 1658              	.Letext0:
 1659              		.file 2 "/opt/gcc-arm-none-eabi/gcc-arm-none-eabi-10-2020-q4-major/arm-none-eabi/include/machine/_
 1660              		.file 3 "/opt/gcc-arm-none-eabi/gcc-arm-none-eabi-10-2020-q4-major/arm-none-eabi/include/sys/_stdi
 1661              		.file 4 "Drivers/CMSIS/Device/ST/STM32L4xx/Include/stm32l432xx.h"
 1662              		.file 5 "Drivers/STM32L4xx_HAL_Driver/Inc/stm32l4xx_hal_def.h"
 1663              		.file 6 "Drivers/STM32L4xx_HAL_Driver/Inc/stm32l4xx_hal_flash.h"
ARM GAS  /tmp/ccWeCwHW.s 			page 61


DEFINED SYMBOLS
                            *ABS*:0000000000000000 stm32l4xx_hal_flash_ex.c
     /tmp/ccWeCwHW.s:18     .text.FLASH_MassErase:0000000000000000 $t
     /tmp/ccWeCwHW.s:25     .text.FLASH_MassErase:0000000000000000 FLASH_MassErase
     /tmp/ccWeCwHW.s:55     .text.FLASH_MassErase:000000000000001c $d
     /tmp/ccWeCwHW.s:60     .text.FLASH_OB_GetWRP:0000000000000000 $t
     /tmp/ccWeCwHW.s:66     .text.FLASH_OB_GetWRP:0000000000000000 FLASH_OB_GetWRP
     /tmp/ccWeCwHW.s:128    .text.FLASH_OB_GetWRP:000000000000002c $d
     /tmp/ccWeCwHW.s:133    .text.FLASH_OB_GetRDP:0000000000000000 $t
     /tmp/ccWeCwHW.s:139    .text.FLASH_OB_GetRDP:0000000000000000 FLASH_OB_GetRDP
     /tmp/ccWeCwHW.s:176    .text.FLASH_OB_GetRDP:000000000000001c $d
     /tmp/ccWeCwHW.s:181    .text.FLASH_OB_GetUser:0000000000000000 $t
     /tmp/ccWeCwHW.s:187    .text.FLASH_OB_GetUser:0000000000000000 FLASH_OB_GetUser
     /tmp/ccWeCwHW.s:209    .text.FLASH_OB_GetUser:000000000000000c $d
     /tmp/ccWeCwHW.s:214    .text.FLASH_OB_GetPCROP:0000000000000000 $t
     /tmp/ccWeCwHW.s:220    .text.FLASH_OB_GetPCROP:0000000000000000 FLASH_OB_GetPCROP
     /tmp/ccWeCwHW.s:293    .text.FLASH_OB_GetPCROP:0000000000000038 $d
     /tmp/ccWeCwHW.s:299    .text.FLASH_OB_WRPConfig:0000000000000000 $t
     /tmp/ccWeCwHW.s:305    .text.FLASH_OB_WRPConfig:0000000000000000 FLASH_OB_WRPConfig
     /tmp/ccWeCwHW.s:387    .text.FLASH_OB_WRPConfig:0000000000000058 $d
     /tmp/ccWeCwHW.s:392    .text.FLASH_OB_RDPConfig:0000000000000000 $t
     /tmp/ccWeCwHW.s:398    .text.FLASH_OB_RDPConfig:0000000000000000 FLASH_OB_RDPConfig
     /tmp/ccWeCwHW.s:456    .text.FLASH_OB_RDPConfig:0000000000000038 $d
     /tmp/ccWeCwHW.s:461    .text.FLASH_OB_UserConfig:0000000000000000 $t
     /tmp/ccWeCwHW.s:467    .text.FLASH_OB_UserConfig:0000000000000000 FLASH_OB_UserConfig
     /tmp/ccWeCwHW.s:745    .text.FLASH_OB_UserConfig:000000000000010c $d
     /tmp/ccWeCwHW.s:750    .text.FLASH_OB_PCROPConfig:0000000000000000 $t
     /tmp/ccWeCwHW.s:756    .text.FLASH_OB_PCROPConfig:0000000000000000 FLASH_OB_PCROPConfig
     /tmp/ccWeCwHW.s:853    .text.FLASH_OB_PCROPConfig:0000000000000064 $d
     /tmp/ccWeCwHW.s:858    .text.HAL_FLASHEx_OBProgram:0000000000000000 $t
     /tmp/ccWeCwHW.s:865    .text.HAL_FLASHEx_OBProgram:0000000000000000 HAL_FLASHEx_OBProgram
     /tmp/ccWeCwHW.s:1025   .text.HAL_FLASHEx_OBProgram:0000000000000090 $d
     /tmp/ccWeCwHW.s:1030   .text.HAL_FLASHEx_OBGetConfig:0000000000000000 $t
     /tmp/ccWeCwHW.s:1037   .text.HAL_FLASHEx_OBGetConfig:0000000000000000 HAL_FLASHEx_OBGetConfig
     /tmp/ccWeCwHW.s:1114   .text.FLASH_PageErase:0000000000000000 $t
     /tmp/ccWeCwHW.s:1121   .text.FLASH_PageErase:0000000000000000 FLASH_PageErase
     /tmp/ccWeCwHW.s:1154   .text.FLASH_PageErase:0000000000000024 $d
     /tmp/ccWeCwHW.s:1159   .text.HAL_FLASHEx_Erase_IT:0000000000000000 $t
     /tmp/ccWeCwHW.s:1166   .text.HAL_FLASHEx_Erase_IT:0000000000000000 HAL_FLASHEx_Erase_IT
     /tmp/ccWeCwHW.s:1335   .text.HAL_FLASHEx_Erase_IT:00000000000000b0 $d
     /tmp/ccWeCwHW.s:1341   .text.FLASH_FlushCaches:0000000000000000 $t
     /tmp/ccWeCwHW.s:1348   .text.FLASH_FlushCaches:0000000000000000 FLASH_FlushCaches
     /tmp/ccWeCwHW.s:1423   .text.FLASH_FlushCaches:0000000000000054 $d
     /tmp/ccWeCwHW.s:1429   .text.HAL_FLASHEx_Erase:0000000000000000 $t
     /tmp/ccWeCwHW.s:1436   .text.HAL_FLASHEx_Erase:0000000000000000 HAL_FLASHEx_Erase
     /tmp/ccWeCwHW.s:1652   .text.HAL_FLASHEx_Erase:00000000000000f0 $d

UNDEFINED SYMBOLS
FLASH_WaitForLastOperation
pFlash
