ARM GAS  /tmp/cctJgZ6D.s 			page 1


   1              		.cpu cortex-m4
   2              		.eabi_attribute 27, 1
   3              		.eabi_attribute 28, 1
   4              		.eabi_attribute 20, 1
   5              		.eabi_attribute 21, 1
   6              		.eabi_attribute 23, 3
   7              		.eabi_attribute 24, 1
   8              		.eabi_attribute 25, 1
   9              		.eabi_attribute 26, 1
  10              		.eabi_attribute 30, 1
  11              		.eabi_attribute 34, 1
  12              		.eabi_attribute 18, 4
  13              		.file	"stm32l4xx_hal_flash.c"
  14              		.text
  15              	.Ltext0:
  16              		.cfi_sections	.debug_frame
  17              		.section	.text.FLASH_Program_DoubleWord,"ax",%progbits
  18              		.align	1
  19              		.arch armv7e-m
  20              		.syntax unified
  21              		.thumb
  22              		.thumb_func
  23              		.fpu fpv4-sp-d16
  25              	FLASH_Program_DoubleWord:
  26              	.LVL0:
  27              	.LFB135:
  28              		.file 1 "Drivers/STM32L4xx_HAL_Driver/Src/stm32l4xx_hal_flash.c"
   1:Drivers/STM32L4xx_HAL_Driver/Src/stm32l4xx_hal_flash.c **** /**
   2:Drivers/STM32L4xx_HAL_Driver/Src/stm32l4xx_hal_flash.c ****   ******************************************************************************
   3:Drivers/STM32L4xx_HAL_Driver/Src/stm32l4xx_hal_flash.c ****   * @file    stm32l4xx_hal_flash.c
   4:Drivers/STM32L4xx_HAL_Driver/Src/stm32l4xx_hal_flash.c ****   * @author  MCD Application Team
   5:Drivers/STM32L4xx_HAL_Driver/Src/stm32l4xx_hal_flash.c ****   * @brief   FLASH HAL module driver.
   6:Drivers/STM32L4xx_HAL_Driver/Src/stm32l4xx_hal_flash.c ****   *          This file provides firmware functions to manage the following
   7:Drivers/STM32L4xx_HAL_Driver/Src/stm32l4xx_hal_flash.c ****   *          functionalities of the internal FLASH memory:
   8:Drivers/STM32L4xx_HAL_Driver/Src/stm32l4xx_hal_flash.c ****   *           + Program operations functions
   9:Drivers/STM32L4xx_HAL_Driver/Src/stm32l4xx_hal_flash.c ****   *           + Memory Control functions
  10:Drivers/STM32L4xx_HAL_Driver/Src/stm32l4xx_hal_flash.c ****   *           + Peripheral Errors functions
  11:Drivers/STM32L4xx_HAL_Driver/Src/stm32l4xx_hal_flash.c ****   *
  12:Drivers/STM32L4xx_HAL_Driver/Src/stm32l4xx_hal_flash.c ****  @verbatim
  13:Drivers/STM32L4xx_HAL_Driver/Src/stm32l4xx_hal_flash.c ****   ==============================================================================
  14:Drivers/STM32L4xx_HAL_Driver/Src/stm32l4xx_hal_flash.c ****                         ##### FLASH peripheral features #####
  15:Drivers/STM32L4xx_HAL_Driver/Src/stm32l4xx_hal_flash.c ****   ==============================================================================
  16:Drivers/STM32L4xx_HAL_Driver/Src/stm32l4xx_hal_flash.c **** 
  17:Drivers/STM32L4xx_HAL_Driver/Src/stm32l4xx_hal_flash.c ****   [..] The Flash memory interface manages CPU AHB I-Code and D-Code accesses
  18:Drivers/STM32L4xx_HAL_Driver/Src/stm32l4xx_hal_flash.c ****        to the Flash memory. It implements the erase and program Flash memory operations
  19:Drivers/STM32L4xx_HAL_Driver/Src/stm32l4xx_hal_flash.c ****        and the read and write protection mechanisms.
  20:Drivers/STM32L4xx_HAL_Driver/Src/stm32l4xx_hal_flash.c **** 
  21:Drivers/STM32L4xx_HAL_Driver/Src/stm32l4xx_hal_flash.c ****   [..] The Flash memory interface accelerates code execution with a system of instruction
  22:Drivers/STM32L4xx_HAL_Driver/Src/stm32l4xx_hal_flash.c ****        prefetch and cache lines.
  23:Drivers/STM32L4xx_HAL_Driver/Src/stm32l4xx_hal_flash.c **** 
  24:Drivers/STM32L4xx_HAL_Driver/Src/stm32l4xx_hal_flash.c ****   [..] The FLASH main features are:
  25:Drivers/STM32L4xx_HAL_Driver/Src/stm32l4xx_hal_flash.c ****       (+) Flash memory read operations
  26:Drivers/STM32L4xx_HAL_Driver/Src/stm32l4xx_hal_flash.c ****       (+) Flash memory program/erase operations
  27:Drivers/STM32L4xx_HAL_Driver/Src/stm32l4xx_hal_flash.c ****       (+) Read / write protections
  28:Drivers/STM32L4xx_HAL_Driver/Src/stm32l4xx_hal_flash.c ****       (+) Option bytes programming
  29:Drivers/STM32L4xx_HAL_Driver/Src/stm32l4xx_hal_flash.c ****       (+) Prefetch on I-Code
  30:Drivers/STM32L4xx_HAL_Driver/Src/stm32l4xx_hal_flash.c ****       (+) 32 cache lines of 4*64 bits on I-Code
ARM GAS  /tmp/cctJgZ6D.s 			page 2


  31:Drivers/STM32L4xx_HAL_Driver/Src/stm32l4xx_hal_flash.c ****       (+) 8 cache lines of 4*64 bits on D-Code
  32:Drivers/STM32L4xx_HAL_Driver/Src/stm32l4xx_hal_flash.c ****       (+) Error code correction (ECC) : Data in flash are 72-bits word
  33:Drivers/STM32L4xx_HAL_Driver/Src/stm32l4xx_hal_flash.c ****           (8 bits added per double word)
  34:Drivers/STM32L4xx_HAL_Driver/Src/stm32l4xx_hal_flash.c **** 
  35:Drivers/STM32L4xx_HAL_Driver/Src/stm32l4xx_hal_flash.c **** 
  36:Drivers/STM32L4xx_HAL_Driver/Src/stm32l4xx_hal_flash.c ****                         ##### How to use this driver #####
  37:Drivers/STM32L4xx_HAL_Driver/Src/stm32l4xx_hal_flash.c ****  ==============================================================================
  38:Drivers/STM32L4xx_HAL_Driver/Src/stm32l4xx_hal_flash.c ****     [..]
  39:Drivers/STM32L4xx_HAL_Driver/Src/stm32l4xx_hal_flash.c ****       This driver provides functions and macros to configure and program the FLASH
  40:Drivers/STM32L4xx_HAL_Driver/Src/stm32l4xx_hal_flash.c ****       memory of all STM32L4xx devices.
  41:Drivers/STM32L4xx_HAL_Driver/Src/stm32l4xx_hal_flash.c **** 
  42:Drivers/STM32L4xx_HAL_Driver/Src/stm32l4xx_hal_flash.c ****       (#) Flash Memory IO Programming functions:
  43:Drivers/STM32L4xx_HAL_Driver/Src/stm32l4xx_hal_flash.c ****            (++) Lock and Unlock the FLASH interface using HAL_FLASH_Unlock() and
  44:Drivers/STM32L4xx_HAL_Driver/Src/stm32l4xx_hal_flash.c ****                 HAL_FLASH_Lock() functions
  45:Drivers/STM32L4xx_HAL_Driver/Src/stm32l4xx_hal_flash.c ****            (++) Program functions: double word and fast program (full row programming)
  46:Drivers/STM32L4xx_HAL_Driver/Src/stm32l4xx_hal_flash.c ****            (++) There Two modes of programming :
  47:Drivers/STM32L4xx_HAL_Driver/Src/stm32l4xx_hal_flash.c ****             (+++) Polling mode using HAL_FLASH_Program() function
  48:Drivers/STM32L4xx_HAL_Driver/Src/stm32l4xx_hal_flash.c ****             (+++) Interrupt mode using HAL_FLASH_Program_IT() function
  49:Drivers/STM32L4xx_HAL_Driver/Src/stm32l4xx_hal_flash.c **** 
  50:Drivers/STM32L4xx_HAL_Driver/Src/stm32l4xx_hal_flash.c ****       (#) Interrupts and flags management functions :
  51:Drivers/STM32L4xx_HAL_Driver/Src/stm32l4xx_hal_flash.c ****            (++) Handle FLASH interrupts by calling HAL_FLASH_IRQHandler()
  52:Drivers/STM32L4xx_HAL_Driver/Src/stm32l4xx_hal_flash.c ****            (++) Callback functions are called when the flash operations are finished :
  53:Drivers/STM32L4xx_HAL_Driver/Src/stm32l4xx_hal_flash.c ****                 HAL_FLASH_EndOfOperationCallback() when everything is ok, otherwise
  54:Drivers/STM32L4xx_HAL_Driver/Src/stm32l4xx_hal_flash.c ****                 HAL_FLASH_OperationErrorCallback()
  55:Drivers/STM32L4xx_HAL_Driver/Src/stm32l4xx_hal_flash.c ****            (++) Get error flag status by calling HAL_GetError()
  56:Drivers/STM32L4xx_HAL_Driver/Src/stm32l4xx_hal_flash.c **** 
  57:Drivers/STM32L4xx_HAL_Driver/Src/stm32l4xx_hal_flash.c ****       (#) Option bytes management functions :
  58:Drivers/STM32L4xx_HAL_Driver/Src/stm32l4xx_hal_flash.c ****            (++) Lock and Unlock the option bytes using HAL_FLASH_OB_Unlock() and
  59:Drivers/STM32L4xx_HAL_Driver/Src/stm32l4xx_hal_flash.c ****                 HAL_FLASH_OB_Lock() functions
  60:Drivers/STM32L4xx_HAL_Driver/Src/stm32l4xx_hal_flash.c ****            (++) Launch the reload of the option bytes using HAL_FLASH_Launch() function.
  61:Drivers/STM32L4xx_HAL_Driver/Src/stm32l4xx_hal_flash.c ****                 In this case, a reset is generated
  62:Drivers/STM32L4xx_HAL_Driver/Src/stm32l4xx_hal_flash.c **** 
  63:Drivers/STM32L4xx_HAL_Driver/Src/stm32l4xx_hal_flash.c ****     [..]
  64:Drivers/STM32L4xx_HAL_Driver/Src/stm32l4xx_hal_flash.c ****       In addition to these functions, this driver includes a set of macros allowing
  65:Drivers/STM32L4xx_HAL_Driver/Src/stm32l4xx_hal_flash.c ****       to handle the following operations:
  66:Drivers/STM32L4xx_HAL_Driver/Src/stm32l4xx_hal_flash.c ****        (+) Set the latency
  67:Drivers/STM32L4xx_HAL_Driver/Src/stm32l4xx_hal_flash.c ****        (+) Enable/Disable the prefetch buffer
  68:Drivers/STM32L4xx_HAL_Driver/Src/stm32l4xx_hal_flash.c ****        (+) Enable/Disable the Instruction cache and the Data cache
  69:Drivers/STM32L4xx_HAL_Driver/Src/stm32l4xx_hal_flash.c ****        (+) Reset the Instruction cache and the Data cache
  70:Drivers/STM32L4xx_HAL_Driver/Src/stm32l4xx_hal_flash.c ****        (+) Enable/Disable the Flash power-down during low-power run and sleep modes
  71:Drivers/STM32L4xx_HAL_Driver/Src/stm32l4xx_hal_flash.c ****        (+) Enable/Disable the Flash interrupts
  72:Drivers/STM32L4xx_HAL_Driver/Src/stm32l4xx_hal_flash.c ****        (+) Monitor the Flash flags status
  73:Drivers/STM32L4xx_HAL_Driver/Src/stm32l4xx_hal_flash.c **** 
  74:Drivers/STM32L4xx_HAL_Driver/Src/stm32l4xx_hal_flash.c ****  @endverbatim
  75:Drivers/STM32L4xx_HAL_Driver/Src/stm32l4xx_hal_flash.c ****   ******************************************************************************
  76:Drivers/STM32L4xx_HAL_Driver/Src/stm32l4xx_hal_flash.c ****   * @attention
  77:Drivers/STM32L4xx_HAL_Driver/Src/stm32l4xx_hal_flash.c ****   *
  78:Drivers/STM32L4xx_HAL_Driver/Src/stm32l4xx_hal_flash.c ****   * <h2><center>&copy; COPYRIGHT(c) 2017 STMicroelectronics</center></h2>
  79:Drivers/STM32L4xx_HAL_Driver/Src/stm32l4xx_hal_flash.c ****   *
  80:Drivers/STM32L4xx_HAL_Driver/Src/stm32l4xx_hal_flash.c ****   * Redistribution and use in source and binary forms, with or without modification,
  81:Drivers/STM32L4xx_HAL_Driver/Src/stm32l4xx_hal_flash.c ****   * are permitted provided that the following conditions are met:
  82:Drivers/STM32L4xx_HAL_Driver/Src/stm32l4xx_hal_flash.c ****   *   1. Redistributions of source code must retain the above copyright notice,
  83:Drivers/STM32L4xx_HAL_Driver/Src/stm32l4xx_hal_flash.c ****   *      this list of conditions and the following disclaimer.
  84:Drivers/STM32L4xx_HAL_Driver/Src/stm32l4xx_hal_flash.c ****   *   2. Redistributions in binary form must reproduce the above copyright notice,
  85:Drivers/STM32L4xx_HAL_Driver/Src/stm32l4xx_hal_flash.c ****   *      this list of conditions and the following disclaimer in the documentation
  86:Drivers/STM32L4xx_HAL_Driver/Src/stm32l4xx_hal_flash.c ****   *      and/or other materials provided with the distribution.
  87:Drivers/STM32L4xx_HAL_Driver/Src/stm32l4xx_hal_flash.c ****   *   3. Neither the name of STMicroelectronics nor the names of its contributors
ARM GAS  /tmp/cctJgZ6D.s 			page 3


  88:Drivers/STM32L4xx_HAL_Driver/Src/stm32l4xx_hal_flash.c ****   *      may be used to endorse or promote products derived from this software
  89:Drivers/STM32L4xx_HAL_Driver/Src/stm32l4xx_hal_flash.c ****   *      without specific prior written permission.
  90:Drivers/STM32L4xx_HAL_Driver/Src/stm32l4xx_hal_flash.c ****   *
  91:Drivers/STM32L4xx_HAL_Driver/Src/stm32l4xx_hal_flash.c ****   * THIS SOFTWARE IS PROVIDED BY THE COPYRIGHT HOLDERS AND CONTRIBUTORS "AS IS"
  92:Drivers/STM32L4xx_HAL_Driver/Src/stm32l4xx_hal_flash.c ****   * AND ANY EXPRESS OR IMPLIED WARRANTIES, INCLUDING, BUT NOT LIMITED TO, THE
  93:Drivers/STM32L4xx_HAL_Driver/Src/stm32l4xx_hal_flash.c ****   * IMPLIED WARRANTIES OF MERCHANTABILITY AND FITNESS FOR A PARTICULAR PURPOSE ARE
  94:Drivers/STM32L4xx_HAL_Driver/Src/stm32l4xx_hal_flash.c ****   * DISCLAIMED. IN NO EVENT SHALL THE COPYRIGHT HOLDER OR CONTRIBUTORS BE LIABLE
  95:Drivers/STM32L4xx_HAL_Driver/Src/stm32l4xx_hal_flash.c ****   * FOR ANY DIRECT, INDIRECT, INCIDENTAL, SPECIAL, EXEMPLARY, OR CONSEQUENTIAL
  96:Drivers/STM32L4xx_HAL_Driver/Src/stm32l4xx_hal_flash.c ****   * DAMAGES (INCLUDING, BUT NOT LIMITED TO, PROCUREMENT OF SUBSTITUTE GOODS OR
  97:Drivers/STM32L4xx_HAL_Driver/Src/stm32l4xx_hal_flash.c ****   * SERVICES; LOSS OF USE, DATA, OR PROFITS; OR BUSINESS INTERRUPTION) HOWEVER
  98:Drivers/STM32L4xx_HAL_Driver/Src/stm32l4xx_hal_flash.c ****   * CAUSED AND ON ANY THEORY OF LIABILITY, WHETHER IN CONTRACT, STRICT LIABILITY,
  99:Drivers/STM32L4xx_HAL_Driver/Src/stm32l4xx_hal_flash.c ****   * OR TORT (INCLUDING NEGLIGENCE OR OTHERWISE) ARISING IN ANY WAY OUT OF THE USE
 100:Drivers/STM32L4xx_HAL_Driver/Src/stm32l4xx_hal_flash.c ****   * OF THIS SOFTWARE, EVEN IF ADVISED OF THE POSSIBILITY OF SUCH DAMAGE.
 101:Drivers/STM32L4xx_HAL_Driver/Src/stm32l4xx_hal_flash.c ****   *
 102:Drivers/STM32L4xx_HAL_Driver/Src/stm32l4xx_hal_flash.c ****   ******************************************************************************
 103:Drivers/STM32L4xx_HAL_Driver/Src/stm32l4xx_hal_flash.c ****   */
 104:Drivers/STM32L4xx_HAL_Driver/Src/stm32l4xx_hal_flash.c **** 
 105:Drivers/STM32L4xx_HAL_Driver/Src/stm32l4xx_hal_flash.c **** /* Includes ------------------------------------------------------------------*/
 106:Drivers/STM32L4xx_HAL_Driver/Src/stm32l4xx_hal_flash.c **** #include "stm32l4xx_hal.h"
 107:Drivers/STM32L4xx_HAL_Driver/Src/stm32l4xx_hal_flash.c **** 
 108:Drivers/STM32L4xx_HAL_Driver/Src/stm32l4xx_hal_flash.c **** /** @addtogroup STM32L4xx_HAL_Driver
 109:Drivers/STM32L4xx_HAL_Driver/Src/stm32l4xx_hal_flash.c ****   * @{
 110:Drivers/STM32L4xx_HAL_Driver/Src/stm32l4xx_hal_flash.c ****   */
 111:Drivers/STM32L4xx_HAL_Driver/Src/stm32l4xx_hal_flash.c **** 
 112:Drivers/STM32L4xx_HAL_Driver/Src/stm32l4xx_hal_flash.c **** /** @defgroup FLASH FLASH
 113:Drivers/STM32L4xx_HAL_Driver/Src/stm32l4xx_hal_flash.c ****   * @brief FLASH HAL module driver
 114:Drivers/STM32L4xx_HAL_Driver/Src/stm32l4xx_hal_flash.c ****   * @{
 115:Drivers/STM32L4xx_HAL_Driver/Src/stm32l4xx_hal_flash.c ****   */
 116:Drivers/STM32L4xx_HAL_Driver/Src/stm32l4xx_hal_flash.c **** 
 117:Drivers/STM32L4xx_HAL_Driver/Src/stm32l4xx_hal_flash.c **** #ifdef HAL_FLASH_MODULE_ENABLED
 118:Drivers/STM32L4xx_HAL_Driver/Src/stm32l4xx_hal_flash.c **** 
 119:Drivers/STM32L4xx_HAL_Driver/Src/stm32l4xx_hal_flash.c **** /* Private typedef -----------------------------------------------------------*/
 120:Drivers/STM32L4xx_HAL_Driver/Src/stm32l4xx_hal_flash.c **** /* Private defines -----------------------------------------------------------*/
 121:Drivers/STM32L4xx_HAL_Driver/Src/stm32l4xx_hal_flash.c **** #if defined (STM32L4R5xx) || defined (STM32L4R7xx) || defined (STM32L4R9xx) || defined (STM32L4S5xx
 122:Drivers/STM32L4xx_HAL_Driver/Src/stm32l4xx_hal_flash.c **** #define FLASH_NB_DOUBLE_WORDS_IN_ROW  64
 123:Drivers/STM32L4xx_HAL_Driver/Src/stm32l4xx_hal_flash.c **** #else
 124:Drivers/STM32L4xx_HAL_Driver/Src/stm32l4xx_hal_flash.c **** #define FLASH_NB_DOUBLE_WORDS_IN_ROW  32
 125:Drivers/STM32L4xx_HAL_Driver/Src/stm32l4xx_hal_flash.c **** #endif
 126:Drivers/STM32L4xx_HAL_Driver/Src/stm32l4xx_hal_flash.c **** /* Private macros ------------------------------------------------------------*/
 127:Drivers/STM32L4xx_HAL_Driver/Src/stm32l4xx_hal_flash.c **** /* Private variables ---------------------------------------------------------*/
 128:Drivers/STM32L4xx_HAL_Driver/Src/stm32l4xx_hal_flash.c **** /** @defgroup FLASH_Private_Variables FLASH Private Variables
 129:Drivers/STM32L4xx_HAL_Driver/Src/stm32l4xx_hal_flash.c ****  * @{
 130:Drivers/STM32L4xx_HAL_Driver/Src/stm32l4xx_hal_flash.c ****  */
 131:Drivers/STM32L4xx_HAL_Driver/Src/stm32l4xx_hal_flash.c **** /**
 132:Drivers/STM32L4xx_HAL_Driver/Src/stm32l4xx_hal_flash.c ****   * @brief  Variable used for Program/Erase sectors under interruption
 133:Drivers/STM32L4xx_HAL_Driver/Src/stm32l4xx_hal_flash.c ****   */
 134:Drivers/STM32L4xx_HAL_Driver/Src/stm32l4xx_hal_flash.c **** extern FLASH_ProcessTypeDef pFlash;
 135:Drivers/STM32L4xx_HAL_Driver/Src/stm32l4xx_hal_flash.c **** FLASH_ProcessTypeDef pFlash = {.Lock = HAL_UNLOCKED, \
 136:Drivers/STM32L4xx_HAL_Driver/Src/stm32l4xx_hal_flash.c ****                                .ErrorCode = HAL_FLASH_ERROR_NONE, \
 137:Drivers/STM32L4xx_HAL_Driver/Src/stm32l4xx_hal_flash.c ****                                .ProcedureOnGoing = FLASH_PROC_NONE, \
 138:Drivers/STM32L4xx_HAL_Driver/Src/stm32l4xx_hal_flash.c ****                                .Address = 0U, \
 139:Drivers/STM32L4xx_HAL_Driver/Src/stm32l4xx_hal_flash.c ****                                .Bank = FLASH_BANK_1, \
 140:Drivers/STM32L4xx_HAL_Driver/Src/stm32l4xx_hal_flash.c ****                                .Page = 0U, \
 141:Drivers/STM32L4xx_HAL_Driver/Src/stm32l4xx_hal_flash.c ****                                .NbPagesToErase = 0U, \
 142:Drivers/STM32L4xx_HAL_Driver/Src/stm32l4xx_hal_flash.c ****                                .CacheToReactivate = FLASH_CACHE_DISABLED};
 143:Drivers/STM32L4xx_HAL_Driver/Src/stm32l4xx_hal_flash.c **** /**
 144:Drivers/STM32L4xx_HAL_Driver/Src/stm32l4xx_hal_flash.c ****   * @}
ARM GAS  /tmp/cctJgZ6D.s 			page 4


 145:Drivers/STM32L4xx_HAL_Driver/Src/stm32l4xx_hal_flash.c ****   */
 146:Drivers/STM32L4xx_HAL_Driver/Src/stm32l4xx_hal_flash.c **** 
 147:Drivers/STM32L4xx_HAL_Driver/Src/stm32l4xx_hal_flash.c **** /* Private function prototypes -----------------------------------------------*/
 148:Drivers/STM32L4xx_HAL_Driver/Src/stm32l4xx_hal_flash.c **** /** @defgroup FLASH_Private_Functions FLASH Private Functions
 149:Drivers/STM32L4xx_HAL_Driver/Src/stm32l4xx_hal_flash.c ****  * @{
 150:Drivers/STM32L4xx_HAL_Driver/Src/stm32l4xx_hal_flash.c ****  */
 151:Drivers/STM32L4xx_HAL_Driver/Src/stm32l4xx_hal_flash.c **** HAL_StatusTypeDef    FLASH_WaitForLastOperation(uint32_t Timeout);
 152:Drivers/STM32L4xx_HAL_Driver/Src/stm32l4xx_hal_flash.c **** extern void          FLASH_PageErase(uint32_t Page, uint32_t Banks);
 153:Drivers/STM32L4xx_HAL_Driver/Src/stm32l4xx_hal_flash.c **** extern void          FLASH_FlushCaches(void);
 154:Drivers/STM32L4xx_HAL_Driver/Src/stm32l4xx_hal_flash.c **** static void          FLASH_Program_DoubleWord(uint32_t Address, uint64_t Data);
 155:Drivers/STM32L4xx_HAL_Driver/Src/stm32l4xx_hal_flash.c **** static void          FLASH_Program_Fast(uint32_t Address, uint32_t DataAddress);
 156:Drivers/STM32L4xx_HAL_Driver/Src/stm32l4xx_hal_flash.c **** /**
 157:Drivers/STM32L4xx_HAL_Driver/Src/stm32l4xx_hal_flash.c ****   * @}
 158:Drivers/STM32L4xx_HAL_Driver/Src/stm32l4xx_hal_flash.c ****   */
 159:Drivers/STM32L4xx_HAL_Driver/Src/stm32l4xx_hal_flash.c **** 
 160:Drivers/STM32L4xx_HAL_Driver/Src/stm32l4xx_hal_flash.c **** /* Exported functions --------------------------------------------------------*/
 161:Drivers/STM32L4xx_HAL_Driver/Src/stm32l4xx_hal_flash.c **** /** @defgroup FLASH_Exported_Functions FLASH Exported Functions
 162:Drivers/STM32L4xx_HAL_Driver/Src/stm32l4xx_hal_flash.c ****   * @{
 163:Drivers/STM32L4xx_HAL_Driver/Src/stm32l4xx_hal_flash.c ****   */
 164:Drivers/STM32L4xx_HAL_Driver/Src/stm32l4xx_hal_flash.c **** 
 165:Drivers/STM32L4xx_HAL_Driver/Src/stm32l4xx_hal_flash.c **** /** @defgroup FLASH_Exported_Functions_Group1 Programming operation functions
 166:Drivers/STM32L4xx_HAL_Driver/Src/stm32l4xx_hal_flash.c ****  *  @brief   Programming operation functions
 167:Drivers/STM32L4xx_HAL_Driver/Src/stm32l4xx_hal_flash.c ****  *
 168:Drivers/STM32L4xx_HAL_Driver/Src/stm32l4xx_hal_flash.c **** @verbatim
 169:Drivers/STM32L4xx_HAL_Driver/Src/stm32l4xx_hal_flash.c ****  ===============================================================================
 170:Drivers/STM32L4xx_HAL_Driver/Src/stm32l4xx_hal_flash.c ****                   ##### Programming operation functions #####
 171:Drivers/STM32L4xx_HAL_Driver/Src/stm32l4xx_hal_flash.c ****  ===============================================================================
 172:Drivers/STM32L4xx_HAL_Driver/Src/stm32l4xx_hal_flash.c ****     [..]
 173:Drivers/STM32L4xx_HAL_Driver/Src/stm32l4xx_hal_flash.c ****     This subsection provides a set of functions allowing to manage the FLASH
 174:Drivers/STM32L4xx_HAL_Driver/Src/stm32l4xx_hal_flash.c ****     program operations.
 175:Drivers/STM32L4xx_HAL_Driver/Src/stm32l4xx_hal_flash.c **** 
 176:Drivers/STM32L4xx_HAL_Driver/Src/stm32l4xx_hal_flash.c **** @endverbatim
 177:Drivers/STM32L4xx_HAL_Driver/Src/stm32l4xx_hal_flash.c ****   * @{
 178:Drivers/STM32L4xx_HAL_Driver/Src/stm32l4xx_hal_flash.c ****   */
 179:Drivers/STM32L4xx_HAL_Driver/Src/stm32l4xx_hal_flash.c **** 
 180:Drivers/STM32L4xx_HAL_Driver/Src/stm32l4xx_hal_flash.c **** /**
 181:Drivers/STM32L4xx_HAL_Driver/Src/stm32l4xx_hal_flash.c ****   * @brief  Program double word or fast program of a row at a specified address.
 182:Drivers/STM32L4xx_HAL_Driver/Src/stm32l4xx_hal_flash.c ****   * @param  TypeProgram:  Indicate the way to program at a specified address.
 183:Drivers/STM32L4xx_HAL_Driver/Src/stm32l4xx_hal_flash.c ****   *                           This parameter can be a value of @ref FLASH_Type_Program
 184:Drivers/STM32L4xx_HAL_Driver/Src/stm32l4xx_hal_flash.c ****   * @param  Address:  specifies the address to be programmed.
 185:Drivers/STM32L4xx_HAL_Driver/Src/stm32l4xx_hal_flash.c ****   * @param  Data: specifies the data to be programmed
 186:Drivers/STM32L4xx_HAL_Driver/Src/stm32l4xx_hal_flash.c ****   *                This parameter is the data for the double word program and the address where
 187:Drivers/STM32L4xx_HAL_Driver/Src/stm32l4xx_hal_flash.c ****   *                are stored the data for the row fast program
 188:Drivers/STM32L4xx_HAL_Driver/Src/stm32l4xx_hal_flash.c ****   *
 189:Drivers/STM32L4xx_HAL_Driver/Src/stm32l4xx_hal_flash.c ****   * @retval HAL_StatusTypeDef HAL Status
 190:Drivers/STM32L4xx_HAL_Driver/Src/stm32l4xx_hal_flash.c ****   */
 191:Drivers/STM32L4xx_HAL_Driver/Src/stm32l4xx_hal_flash.c **** HAL_StatusTypeDef HAL_FLASH_Program(uint32_t TypeProgram, uint32_t Address, uint64_t Data)
 192:Drivers/STM32L4xx_HAL_Driver/Src/stm32l4xx_hal_flash.c **** {
 193:Drivers/STM32L4xx_HAL_Driver/Src/stm32l4xx_hal_flash.c ****   HAL_StatusTypeDef status;
 194:Drivers/STM32L4xx_HAL_Driver/Src/stm32l4xx_hal_flash.c ****   uint32_t prog_bit = 0;
 195:Drivers/STM32L4xx_HAL_Driver/Src/stm32l4xx_hal_flash.c **** 
 196:Drivers/STM32L4xx_HAL_Driver/Src/stm32l4xx_hal_flash.c ****   /* Process Locked */
 197:Drivers/STM32L4xx_HAL_Driver/Src/stm32l4xx_hal_flash.c ****   __HAL_LOCK(&pFlash);
 198:Drivers/STM32L4xx_HAL_Driver/Src/stm32l4xx_hal_flash.c **** 
 199:Drivers/STM32L4xx_HAL_Driver/Src/stm32l4xx_hal_flash.c ****   /* Check the parameters */
 200:Drivers/STM32L4xx_HAL_Driver/Src/stm32l4xx_hal_flash.c ****   assert_param(IS_FLASH_TYPEPROGRAM(TypeProgram));
 201:Drivers/STM32L4xx_HAL_Driver/Src/stm32l4xx_hal_flash.c **** 
ARM GAS  /tmp/cctJgZ6D.s 			page 5


 202:Drivers/STM32L4xx_HAL_Driver/Src/stm32l4xx_hal_flash.c ****   /* Wait for last operation to be completed */
 203:Drivers/STM32L4xx_HAL_Driver/Src/stm32l4xx_hal_flash.c ****   status = FLASH_WaitForLastOperation((uint32_t)FLASH_TIMEOUT_VALUE);
 204:Drivers/STM32L4xx_HAL_Driver/Src/stm32l4xx_hal_flash.c **** 
 205:Drivers/STM32L4xx_HAL_Driver/Src/stm32l4xx_hal_flash.c ****   if(status == HAL_OK)
 206:Drivers/STM32L4xx_HAL_Driver/Src/stm32l4xx_hal_flash.c ****   {
 207:Drivers/STM32L4xx_HAL_Driver/Src/stm32l4xx_hal_flash.c ****     pFlash.ErrorCode = HAL_FLASH_ERROR_NONE;
 208:Drivers/STM32L4xx_HAL_Driver/Src/stm32l4xx_hal_flash.c **** 
 209:Drivers/STM32L4xx_HAL_Driver/Src/stm32l4xx_hal_flash.c ****     /* Deactivate the data cache if they are activated to avoid data misbehavior */
 210:Drivers/STM32L4xx_HAL_Driver/Src/stm32l4xx_hal_flash.c ****     if(READ_BIT(FLASH->ACR, FLASH_ACR_DCEN) != 0U)
 211:Drivers/STM32L4xx_HAL_Driver/Src/stm32l4xx_hal_flash.c ****     {
 212:Drivers/STM32L4xx_HAL_Driver/Src/stm32l4xx_hal_flash.c ****       /* Disable data cache  */
 213:Drivers/STM32L4xx_HAL_Driver/Src/stm32l4xx_hal_flash.c ****       __HAL_FLASH_DATA_CACHE_DISABLE();
 214:Drivers/STM32L4xx_HAL_Driver/Src/stm32l4xx_hal_flash.c ****       pFlash.CacheToReactivate = FLASH_CACHE_DCACHE_ENABLED;
 215:Drivers/STM32L4xx_HAL_Driver/Src/stm32l4xx_hal_flash.c ****     }
 216:Drivers/STM32L4xx_HAL_Driver/Src/stm32l4xx_hal_flash.c ****     else
 217:Drivers/STM32L4xx_HAL_Driver/Src/stm32l4xx_hal_flash.c ****     {
 218:Drivers/STM32L4xx_HAL_Driver/Src/stm32l4xx_hal_flash.c ****       pFlash.CacheToReactivate = FLASH_CACHE_DISABLED;
 219:Drivers/STM32L4xx_HAL_Driver/Src/stm32l4xx_hal_flash.c ****     }
 220:Drivers/STM32L4xx_HAL_Driver/Src/stm32l4xx_hal_flash.c **** 
 221:Drivers/STM32L4xx_HAL_Driver/Src/stm32l4xx_hal_flash.c ****     if(TypeProgram == FLASH_TYPEPROGRAM_DOUBLEWORD)
 222:Drivers/STM32L4xx_HAL_Driver/Src/stm32l4xx_hal_flash.c ****     {
 223:Drivers/STM32L4xx_HAL_Driver/Src/stm32l4xx_hal_flash.c ****       /* Program double-word (64-bit) at a specified address */
 224:Drivers/STM32L4xx_HAL_Driver/Src/stm32l4xx_hal_flash.c ****       FLASH_Program_DoubleWord(Address, Data);
 225:Drivers/STM32L4xx_HAL_Driver/Src/stm32l4xx_hal_flash.c ****       prog_bit = FLASH_CR_PG;
 226:Drivers/STM32L4xx_HAL_Driver/Src/stm32l4xx_hal_flash.c ****     }
 227:Drivers/STM32L4xx_HAL_Driver/Src/stm32l4xx_hal_flash.c ****     else if((TypeProgram == FLASH_TYPEPROGRAM_FAST) || (TypeProgram == FLASH_TYPEPROGRAM_FAST_AND_L
 228:Drivers/STM32L4xx_HAL_Driver/Src/stm32l4xx_hal_flash.c ****     {
 229:Drivers/STM32L4xx_HAL_Driver/Src/stm32l4xx_hal_flash.c ****       /* Fast program a 32 row double-word (64-bit) at a specified address */
 230:Drivers/STM32L4xx_HAL_Driver/Src/stm32l4xx_hal_flash.c ****       FLASH_Program_Fast(Address, (uint32_t)Data);
 231:Drivers/STM32L4xx_HAL_Driver/Src/stm32l4xx_hal_flash.c **** 
 232:Drivers/STM32L4xx_HAL_Driver/Src/stm32l4xx_hal_flash.c ****       /* If it is the last row, the bit will be cleared at the end of the operation */
 233:Drivers/STM32L4xx_HAL_Driver/Src/stm32l4xx_hal_flash.c ****       if(TypeProgram == FLASH_TYPEPROGRAM_FAST_AND_LAST)
 234:Drivers/STM32L4xx_HAL_Driver/Src/stm32l4xx_hal_flash.c ****       {
 235:Drivers/STM32L4xx_HAL_Driver/Src/stm32l4xx_hal_flash.c ****         prog_bit = FLASH_CR_FSTPG;
 236:Drivers/STM32L4xx_HAL_Driver/Src/stm32l4xx_hal_flash.c ****       }
 237:Drivers/STM32L4xx_HAL_Driver/Src/stm32l4xx_hal_flash.c ****     }
 238:Drivers/STM32L4xx_HAL_Driver/Src/stm32l4xx_hal_flash.c ****     else
 239:Drivers/STM32L4xx_HAL_Driver/Src/stm32l4xx_hal_flash.c ****     {
 240:Drivers/STM32L4xx_HAL_Driver/Src/stm32l4xx_hal_flash.c ****       /* Nothing to do */
 241:Drivers/STM32L4xx_HAL_Driver/Src/stm32l4xx_hal_flash.c ****     }
 242:Drivers/STM32L4xx_HAL_Driver/Src/stm32l4xx_hal_flash.c **** 
 243:Drivers/STM32L4xx_HAL_Driver/Src/stm32l4xx_hal_flash.c ****     /* Wait for last operation to be completed */
 244:Drivers/STM32L4xx_HAL_Driver/Src/stm32l4xx_hal_flash.c ****     status = FLASH_WaitForLastOperation((uint32_t)FLASH_TIMEOUT_VALUE);
 245:Drivers/STM32L4xx_HAL_Driver/Src/stm32l4xx_hal_flash.c **** 
 246:Drivers/STM32L4xx_HAL_Driver/Src/stm32l4xx_hal_flash.c ****     /* If the program operation is completed, disable the PG or FSTPG Bit */
 247:Drivers/STM32L4xx_HAL_Driver/Src/stm32l4xx_hal_flash.c ****     if (prog_bit != 0U)
 248:Drivers/STM32L4xx_HAL_Driver/Src/stm32l4xx_hal_flash.c ****     {
 249:Drivers/STM32L4xx_HAL_Driver/Src/stm32l4xx_hal_flash.c ****       CLEAR_BIT(FLASH->CR, prog_bit);
 250:Drivers/STM32L4xx_HAL_Driver/Src/stm32l4xx_hal_flash.c ****     }
 251:Drivers/STM32L4xx_HAL_Driver/Src/stm32l4xx_hal_flash.c **** 
 252:Drivers/STM32L4xx_HAL_Driver/Src/stm32l4xx_hal_flash.c ****     /* Flush the caches to be sure of the data consistency */
 253:Drivers/STM32L4xx_HAL_Driver/Src/stm32l4xx_hal_flash.c ****     FLASH_FlushCaches();
 254:Drivers/STM32L4xx_HAL_Driver/Src/stm32l4xx_hal_flash.c ****   }
 255:Drivers/STM32L4xx_HAL_Driver/Src/stm32l4xx_hal_flash.c **** 
 256:Drivers/STM32L4xx_HAL_Driver/Src/stm32l4xx_hal_flash.c ****   /* Process Unlocked */
 257:Drivers/STM32L4xx_HAL_Driver/Src/stm32l4xx_hal_flash.c ****   __HAL_UNLOCK(&pFlash);
 258:Drivers/STM32L4xx_HAL_Driver/Src/stm32l4xx_hal_flash.c **** 
ARM GAS  /tmp/cctJgZ6D.s 			page 6


 259:Drivers/STM32L4xx_HAL_Driver/Src/stm32l4xx_hal_flash.c ****   return status;
 260:Drivers/STM32L4xx_HAL_Driver/Src/stm32l4xx_hal_flash.c **** }
 261:Drivers/STM32L4xx_HAL_Driver/Src/stm32l4xx_hal_flash.c **** 
 262:Drivers/STM32L4xx_HAL_Driver/Src/stm32l4xx_hal_flash.c **** /**
 263:Drivers/STM32L4xx_HAL_Driver/Src/stm32l4xx_hal_flash.c ****   * @brief  Program double word or fast program of a row at a specified address with interrupt enab
 264:Drivers/STM32L4xx_HAL_Driver/Src/stm32l4xx_hal_flash.c ****   * @param  TypeProgram:  Indicate the way to program at a specified address.
 265:Drivers/STM32L4xx_HAL_Driver/Src/stm32l4xx_hal_flash.c ****   *                           This parameter can be a value of @ref FLASH_Type_Program
 266:Drivers/STM32L4xx_HAL_Driver/Src/stm32l4xx_hal_flash.c ****   * @param  Address:  specifies the address to be programmed.
 267:Drivers/STM32L4xx_HAL_Driver/Src/stm32l4xx_hal_flash.c ****   * @param  Data: specifies the data to be programmed
 268:Drivers/STM32L4xx_HAL_Driver/Src/stm32l4xx_hal_flash.c ****   *                This parameter is the data for the double word program and the address where
 269:Drivers/STM32L4xx_HAL_Driver/Src/stm32l4xx_hal_flash.c ****   *                are stored the data for the row fast program
 270:Drivers/STM32L4xx_HAL_Driver/Src/stm32l4xx_hal_flash.c ****   *
 271:Drivers/STM32L4xx_HAL_Driver/Src/stm32l4xx_hal_flash.c ****   * @retval HAL Status
 272:Drivers/STM32L4xx_HAL_Driver/Src/stm32l4xx_hal_flash.c ****   */
 273:Drivers/STM32L4xx_HAL_Driver/Src/stm32l4xx_hal_flash.c **** HAL_StatusTypeDef HAL_FLASH_Program_IT(uint32_t TypeProgram, uint32_t Address, uint64_t Data)
 274:Drivers/STM32L4xx_HAL_Driver/Src/stm32l4xx_hal_flash.c **** {
 275:Drivers/STM32L4xx_HAL_Driver/Src/stm32l4xx_hal_flash.c ****   HAL_StatusTypeDef status = HAL_OK;
 276:Drivers/STM32L4xx_HAL_Driver/Src/stm32l4xx_hal_flash.c **** 
 277:Drivers/STM32L4xx_HAL_Driver/Src/stm32l4xx_hal_flash.c ****   /* Check the parameters */
 278:Drivers/STM32L4xx_HAL_Driver/Src/stm32l4xx_hal_flash.c ****   assert_param(IS_FLASH_TYPEPROGRAM(TypeProgram));
 279:Drivers/STM32L4xx_HAL_Driver/Src/stm32l4xx_hal_flash.c **** 
 280:Drivers/STM32L4xx_HAL_Driver/Src/stm32l4xx_hal_flash.c ****   /* Process Locked */
 281:Drivers/STM32L4xx_HAL_Driver/Src/stm32l4xx_hal_flash.c ****   __HAL_LOCK(&pFlash);
 282:Drivers/STM32L4xx_HAL_Driver/Src/stm32l4xx_hal_flash.c **** 
 283:Drivers/STM32L4xx_HAL_Driver/Src/stm32l4xx_hal_flash.c ****   pFlash.ErrorCode = HAL_FLASH_ERROR_NONE;
 284:Drivers/STM32L4xx_HAL_Driver/Src/stm32l4xx_hal_flash.c **** 
 285:Drivers/STM32L4xx_HAL_Driver/Src/stm32l4xx_hal_flash.c ****   /* Deactivate the data cache if they are activated to avoid data misbehavior */
 286:Drivers/STM32L4xx_HAL_Driver/Src/stm32l4xx_hal_flash.c ****   if(READ_BIT(FLASH->ACR, FLASH_ACR_DCEN) != 0U)
 287:Drivers/STM32L4xx_HAL_Driver/Src/stm32l4xx_hal_flash.c ****   {
 288:Drivers/STM32L4xx_HAL_Driver/Src/stm32l4xx_hal_flash.c ****     /* Disable data cache  */
 289:Drivers/STM32L4xx_HAL_Driver/Src/stm32l4xx_hal_flash.c ****     __HAL_FLASH_DATA_CACHE_DISABLE();
 290:Drivers/STM32L4xx_HAL_Driver/Src/stm32l4xx_hal_flash.c ****     pFlash.CacheToReactivate = FLASH_CACHE_DCACHE_ENABLED;
 291:Drivers/STM32L4xx_HAL_Driver/Src/stm32l4xx_hal_flash.c ****   }
 292:Drivers/STM32L4xx_HAL_Driver/Src/stm32l4xx_hal_flash.c ****   else
 293:Drivers/STM32L4xx_HAL_Driver/Src/stm32l4xx_hal_flash.c ****   {
 294:Drivers/STM32L4xx_HAL_Driver/Src/stm32l4xx_hal_flash.c ****     pFlash.CacheToReactivate = FLASH_CACHE_DISABLED;
 295:Drivers/STM32L4xx_HAL_Driver/Src/stm32l4xx_hal_flash.c ****   }
 296:Drivers/STM32L4xx_HAL_Driver/Src/stm32l4xx_hal_flash.c **** 
 297:Drivers/STM32L4xx_HAL_Driver/Src/stm32l4xx_hal_flash.c ****   /* Set internal variables used by the IRQ handler */
 298:Drivers/STM32L4xx_HAL_Driver/Src/stm32l4xx_hal_flash.c ****   if(TypeProgram == FLASH_TYPEPROGRAM_FAST_AND_LAST)
 299:Drivers/STM32L4xx_HAL_Driver/Src/stm32l4xx_hal_flash.c ****   {
 300:Drivers/STM32L4xx_HAL_Driver/Src/stm32l4xx_hal_flash.c ****     pFlash.ProcedureOnGoing = FLASH_PROC_PROGRAM_LAST;
 301:Drivers/STM32L4xx_HAL_Driver/Src/stm32l4xx_hal_flash.c ****   }
 302:Drivers/STM32L4xx_HAL_Driver/Src/stm32l4xx_hal_flash.c ****   else
 303:Drivers/STM32L4xx_HAL_Driver/Src/stm32l4xx_hal_flash.c ****   {
 304:Drivers/STM32L4xx_HAL_Driver/Src/stm32l4xx_hal_flash.c ****     pFlash.ProcedureOnGoing = FLASH_PROC_PROGRAM;
 305:Drivers/STM32L4xx_HAL_Driver/Src/stm32l4xx_hal_flash.c ****   }
 306:Drivers/STM32L4xx_HAL_Driver/Src/stm32l4xx_hal_flash.c ****   pFlash.Address = Address;
 307:Drivers/STM32L4xx_HAL_Driver/Src/stm32l4xx_hal_flash.c **** 
 308:Drivers/STM32L4xx_HAL_Driver/Src/stm32l4xx_hal_flash.c ****   /* Enable End of Operation and Error interrupts */
 309:Drivers/STM32L4xx_HAL_Driver/Src/stm32l4xx_hal_flash.c ****   __HAL_FLASH_ENABLE_IT(FLASH_IT_EOP | FLASH_IT_OPERR);
 310:Drivers/STM32L4xx_HAL_Driver/Src/stm32l4xx_hal_flash.c **** 
 311:Drivers/STM32L4xx_HAL_Driver/Src/stm32l4xx_hal_flash.c ****   if(TypeProgram == FLASH_TYPEPROGRAM_DOUBLEWORD)
 312:Drivers/STM32L4xx_HAL_Driver/Src/stm32l4xx_hal_flash.c ****   {
 313:Drivers/STM32L4xx_HAL_Driver/Src/stm32l4xx_hal_flash.c ****     /* Program double-word (64-bit) at a specified address */
 314:Drivers/STM32L4xx_HAL_Driver/Src/stm32l4xx_hal_flash.c ****     FLASH_Program_DoubleWord(Address, Data);
 315:Drivers/STM32L4xx_HAL_Driver/Src/stm32l4xx_hal_flash.c ****   }
ARM GAS  /tmp/cctJgZ6D.s 			page 7


 316:Drivers/STM32L4xx_HAL_Driver/Src/stm32l4xx_hal_flash.c ****   else if((TypeProgram == FLASH_TYPEPROGRAM_FAST) || (TypeProgram == FLASH_TYPEPROGRAM_FAST_AND_LAS
 317:Drivers/STM32L4xx_HAL_Driver/Src/stm32l4xx_hal_flash.c ****   {
 318:Drivers/STM32L4xx_HAL_Driver/Src/stm32l4xx_hal_flash.c ****     /* Fast program a 32 row double-word (64-bit) at a specified address */
 319:Drivers/STM32L4xx_HAL_Driver/Src/stm32l4xx_hal_flash.c ****     FLASH_Program_Fast(Address, (uint32_t)Data);
 320:Drivers/STM32L4xx_HAL_Driver/Src/stm32l4xx_hal_flash.c ****   }
 321:Drivers/STM32L4xx_HAL_Driver/Src/stm32l4xx_hal_flash.c ****   else
 322:Drivers/STM32L4xx_HAL_Driver/Src/stm32l4xx_hal_flash.c ****   {
 323:Drivers/STM32L4xx_HAL_Driver/Src/stm32l4xx_hal_flash.c ****     /* Nothing to do */
 324:Drivers/STM32L4xx_HAL_Driver/Src/stm32l4xx_hal_flash.c ****   }
 325:Drivers/STM32L4xx_HAL_Driver/Src/stm32l4xx_hal_flash.c **** 
 326:Drivers/STM32L4xx_HAL_Driver/Src/stm32l4xx_hal_flash.c ****   return status;
 327:Drivers/STM32L4xx_HAL_Driver/Src/stm32l4xx_hal_flash.c **** }
 328:Drivers/STM32L4xx_HAL_Driver/Src/stm32l4xx_hal_flash.c **** 
 329:Drivers/STM32L4xx_HAL_Driver/Src/stm32l4xx_hal_flash.c **** /**
 330:Drivers/STM32L4xx_HAL_Driver/Src/stm32l4xx_hal_flash.c ****   * @brief Handle FLASH interrupt request.
 331:Drivers/STM32L4xx_HAL_Driver/Src/stm32l4xx_hal_flash.c ****   * @retval None
 332:Drivers/STM32L4xx_HAL_Driver/Src/stm32l4xx_hal_flash.c ****   */
 333:Drivers/STM32L4xx_HAL_Driver/Src/stm32l4xx_hal_flash.c **** void HAL_FLASH_IRQHandler(void)
 334:Drivers/STM32L4xx_HAL_Driver/Src/stm32l4xx_hal_flash.c **** {
 335:Drivers/STM32L4xx_HAL_Driver/Src/stm32l4xx_hal_flash.c ****   uint32_t tmp_page;
 336:Drivers/STM32L4xx_HAL_Driver/Src/stm32l4xx_hal_flash.c ****   uint32_t error;
 337:Drivers/STM32L4xx_HAL_Driver/Src/stm32l4xx_hal_flash.c ****   FLASH_ProcedureTypeDef procedure;
 338:Drivers/STM32L4xx_HAL_Driver/Src/stm32l4xx_hal_flash.c **** 
 339:Drivers/STM32L4xx_HAL_Driver/Src/stm32l4xx_hal_flash.c ****   /* If the operation is completed, disable the PG, PNB, MER1, MER2 and PER Bit */
 340:Drivers/STM32L4xx_HAL_Driver/Src/stm32l4xx_hal_flash.c ****   CLEAR_BIT(FLASH->CR, (FLASH_CR_PG | FLASH_CR_MER1 | FLASH_CR_PER | FLASH_CR_PNB));
 341:Drivers/STM32L4xx_HAL_Driver/Src/stm32l4xx_hal_flash.c **** #if defined (STM32L471xx) || defined (STM32L475xx) || defined (STM32L476xx) || defined (STM32L485xx
 342:Drivers/STM32L4xx_HAL_Driver/Src/stm32l4xx_hal_flash.c ****     defined (STM32L496xx) || defined (STM32L4A6xx) || \
 343:Drivers/STM32L4xx_HAL_Driver/Src/stm32l4xx_hal_flash.c ****     defined (STM32L4R5xx) || defined (STM32L4R7xx) || defined (STM32L4R9xx) || defined (STM32L4S5xx
 344:Drivers/STM32L4xx_HAL_Driver/Src/stm32l4xx_hal_flash.c ****   CLEAR_BIT(FLASH->CR, FLASH_CR_MER2);
 345:Drivers/STM32L4xx_HAL_Driver/Src/stm32l4xx_hal_flash.c **** #endif
 346:Drivers/STM32L4xx_HAL_Driver/Src/stm32l4xx_hal_flash.c **** 
 347:Drivers/STM32L4xx_HAL_Driver/Src/stm32l4xx_hal_flash.c ****   /* Disable the FSTPG Bit only if it is the last row programmed */
 348:Drivers/STM32L4xx_HAL_Driver/Src/stm32l4xx_hal_flash.c ****   if(pFlash.ProcedureOnGoing == FLASH_PROC_PROGRAM_LAST)
 349:Drivers/STM32L4xx_HAL_Driver/Src/stm32l4xx_hal_flash.c ****   {
 350:Drivers/STM32L4xx_HAL_Driver/Src/stm32l4xx_hal_flash.c ****     CLEAR_BIT(FLASH->CR, FLASH_CR_FSTPG);
 351:Drivers/STM32L4xx_HAL_Driver/Src/stm32l4xx_hal_flash.c ****   }
 352:Drivers/STM32L4xx_HAL_Driver/Src/stm32l4xx_hal_flash.c **** 
 353:Drivers/STM32L4xx_HAL_Driver/Src/stm32l4xx_hal_flash.c ****   /* Check FLASH operation error flags */
 354:Drivers/STM32L4xx_HAL_Driver/Src/stm32l4xx_hal_flash.c ****   error = (FLASH->SR & FLASH_FLAG_SR_ERRORS);
 355:Drivers/STM32L4xx_HAL_Driver/Src/stm32l4xx_hal_flash.c ****   error |= (FLASH->ECCR & FLASH_FLAG_ECCC);
 356:Drivers/STM32L4xx_HAL_Driver/Src/stm32l4xx_hal_flash.c **** 
 357:Drivers/STM32L4xx_HAL_Driver/Src/stm32l4xx_hal_flash.c ****   if (error !=0U)
 358:Drivers/STM32L4xx_HAL_Driver/Src/stm32l4xx_hal_flash.c ****   {
 359:Drivers/STM32L4xx_HAL_Driver/Src/stm32l4xx_hal_flash.c ****     /*Save the error code*/
 360:Drivers/STM32L4xx_HAL_Driver/Src/stm32l4xx_hal_flash.c ****     pFlash.ErrorCode |= error;
 361:Drivers/STM32L4xx_HAL_Driver/Src/stm32l4xx_hal_flash.c **** 
 362:Drivers/STM32L4xx_HAL_Driver/Src/stm32l4xx_hal_flash.c ****     /* Clear error programming flags */
 363:Drivers/STM32L4xx_HAL_Driver/Src/stm32l4xx_hal_flash.c ****     __HAL_FLASH_CLEAR_FLAG(error);
 364:Drivers/STM32L4xx_HAL_Driver/Src/stm32l4xx_hal_flash.c **** 
 365:Drivers/STM32L4xx_HAL_Driver/Src/stm32l4xx_hal_flash.c ****     /* Flush the caches to be sure of the data consistency */
 366:Drivers/STM32L4xx_HAL_Driver/Src/stm32l4xx_hal_flash.c ****     FLASH_FlushCaches() ;
 367:Drivers/STM32L4xx_HAL_Driver/Src/stm32l4xx_hal_flash.c **** 
 368:Drivers/STM32L4xx_HAL_Driver/Src/stm32l4xx_hal_flash.c ****     /* FLASH error interrupt user callback */
 369:Drivers/STM32L4xx_HAL_Driver/Src/stm32l4xx_hal_flash.c ****     procedure = pFlash.ProcedureOnGoing;
 370:Drivers/STM32L4xx_HAL_Driver/Src/stm32l4xx_hal_flash.c ****     if(procedure == FLASH_PROC_PAGE_ERASE)
 371:Drivers/STM32L4xx_HAL_Driver/Src/stm32l4xx_hal_flash.c ****     {
 372:Drivers/STM32L4xx_HAL_Driver/Src/stm32l4xx_hal_flash.c ****        HAL_FLASH_OperationErrorCallback(pFlash.Page);
ARM GAS  /tmp/cctJgZ6D.s 			page 8


 373:Drivers/STM32L4xx_HAL_Driver/Src/stm32l4xx_hal_flash.c ****     }
 374:Drivers/STM32L4xx_HAL_Driver/Src/stm32l4xx_hal_flash.c ****     else if(procedure == FLASH_PROC_MASS_ERASE)
 375:Drivers/STM32L4xx_HAL_Driver/Src/stm32l4xx_hal_flash.c ****     {
 376:Drivers/STM32L4xx_HAL_Driver/Src/stm32l4xx_hal_flash.c ****         HAL_FLASH_OperationErrorCallback(pFlash.Bank);
 377:Drivers/STM32L4xx_HAL_Driver/Src/stm32l4xx_hal_flash.c ****     }
 378:Drivers/STM32L4xx_HAL_Driver/Src/stm32l4xx_hal_flash.c ****     else if((procedure == FLASH_PROC_PROGRAM) ||
 379:Drivers/STM32L4xx_HAL_Driver/Src/stm32l4xx_hal_flash.c ****             (procedure == FLASH_PROC_PROGRAM_LAST))
 380:Drivers/STM32L4xx_HAL_Driver/Src/stm32l4xx_hal_flash.c ****     {
 381:Drivers/STM32L4xx_HAL_Driver/Src/stm32l4xx_hal_flash.c ****        HAL_FLASH_OperationErrorCallback(pFlash.Address);
 382:Drivers/STM32L4xx_HAL_Driver/Src/stm32l4xx_hal_flash.c ****     }
 383:Drivers/STM32L4xx_HAL_Driver/Src/stm32l4xx_hal_flash.c ****     else
 384:Drivers/STM32L4xx_HAL_Driver/Src/stm32l4xx_hal_flash.c ****     {
 385:Drivers/STM32L4xx_HAL_Driver/Src/stm32l4xx_hal_flash.c ****        HAL_FLASH_OperationErrorCallback(0U);
 386:Drivers/STM32L4xx_HAL_Driver/Src/stm32l4xx_hal_flash.c ****     }
 387:Drivers/STM32L4xx_HAL_Driver/Src/stm32l4xx_hal_flash.c **** 
 388:Drivers/STM32L4xx_HAL_Driver/Src/stm32l4xx_hal_flash.c ****     /*Stop the procedure ongoing*/
 389:Drivers/STM32L4xx_HAL_Driver/Src/stm32l4xx_hal_flash.c ****     pFlash.ProcedureOnGoing = FLASH_PROC_NONE;
 390:Drivers/STM32L4xx_HAL_Driver/Src/stm32l4xx_hal_flash.c ****   }
 391:Drivers/STM32L4xx_HAL_Driver/Src/stm32l4xx_hal_flash.c **** 
 392:Drivers/STM32L4xx_HAL_Driver/Src/stm32l4xx_hal_flash.c ****   /* Check FLASH End of Operation flag  */
 393:Drivers/STM32L4xx_HAL_Driver/Src/stm32l4xx_hal_flash.c ****   if(__HAL_FLASH_GET_FLAG(FLASH_FLAG_EOP) != 0U)
 394:Drivers/STM32L4xx_HAL_Driver/Src/stm32l4xx_hal_flash.c ****   {
 395:Drivers/STM32L4xx_HAL_Driver/Src/stm32l4xx_hal_flash.c ****     /* Clear FLASH End of Operation pending bit */
 396:Drivers/STM32L4xx_HAL_Driver/Src/stm32l4xx_hal_flash.c ****     __HAL_FLASH_CLEAR_FLAG(FLASH_FLAG_EOP);
 397:Drivers/STM32L4xx_HAL_Driver/Src/stm32l4xx_hal_flash.c **** 
 398:Drivers/STM32L4xx_HAL_Driver/Src/stm32l4xx_hal_flash.c ****     if(pFlash.ProcedureOnGoing == FLASH_PROC_PAGE_ERASE)
 399:Drivers/STM32L4xx_HAL_Driver/Src/stm32l4xx_hal_flash.c ****     {
 400:Drivers/STM32L4xx_HAL_Driver/Src/stm32l4xx_hal_flash.c ****       /* Nb of pages to erased can be decreased */
 401:Drivers/STM32L4xx_HAL_Driver/Src/stm32l4xx_hal_flash.c ****       pFlash.NbPagesToErase--;
 402:Drivers/STM32L4xx_HAL_Driver/Src/stm32l4xx_hal_flash.c **** 
 403:Drivers/STM32L4xx_HAL_Driver/Src/stm32l4xx_hal_flash.c ****       /* Check if there are still pages to erase*/
 404:Drivers/STM32L4xx_HAL_Driver/Src/stm32l4xx_hal_flash.c ****       if(pFlash.NbPagesToErase != 0U)
 405:Drivers/STM32L4xx_HAL_Driver/Src/stm32l4xx_hal_flash.c ****       {
 406:Drivers/STM32L4xx_HAL_Driver/Src/stm32l4xx_hal_flash.c ****         /* Indicate user which page has been erased*/
 407:Drivers/STM32L4xx_HAL_Driver/Src/stm32l4xx_hal_flash.c ****         HAL_FLASH_EndOfOperationCallback(pFlash.Page);
 408:Drivers/STM32L4xx_HAL_Driver/Src/stm32l4xx_hal_flash.c **** 
 409:Drivers/STM32L4xx_HAL_Driver/Src/stm32l4xx_hal_flash.c ****         /* Increment page number */
 410:Drivers/STM32L4xx_HAL_Driver/Src/stm32l4xx_hal_flash.c ****         pFlash.Page++;
 411:Drivers/STM32L4xx_HAL_Driver/Src/stm32l4xx_hal_flash.c ****         tmp_page = pFlash.Page;
 412:Drivers/STM32L4xx_HAL_Driver/Src/stm32l4xx_hal_flash.c ****         FLASH_PageErase(tmp_page, pFlash.Bank);
 413:Drivers/STM32L4xx_HAL_Driver/Src/stm32l4xx_hal_flash.c ****       }
 414:Drivers/STM32L4xx_HAL_Driver/Src/stm32l4xx_hal_flash.c ****       else
 415:Drivers/STM32L4xx_HAL_Driver/Src/stm32l4xx_hal_flash.c ****       {
 416:Drivers/STM32L4xx_HAL_Driver/Src/stm32l4xx_hal_flash.c ****         /* No more pages to Erase */
 417:Drivers/STM32L4xx_HAL_Driver/Src/stm32l4xx_hal_flash.c ****         /* Reset Address and stop Erase pages procedure */
 418:Drivers/STM32L4xx_HAL_Driver/Src/stm32l4xx_hal_flash.c ****         pFlash.Page = 0xFFFFFFFFU;
 419:Drivers/STM32L4xx_HAL_Driver/Src/stm32l4xx_hal_flash.c ****         pFlash.ProcedureOnGoing = FLASH_PROC_NONE;
 420:Drivers/STM32L4xx_HAL_Driver/Src/stm32l4xx_hal_flash.c **** 
 421:Drivers/STM32L4xx_HAL_Driver/Src/stm32l4xx_hal_flash.c ****         /* Flush the caches to be sure of the data consistency */
 422:Drivers/STM32L4xx_HAL_Driver/Src/stm32l4xx_hal_flash.c ****         FLASH_FlushCaches() ;
 423:Drivers/STM32L4xx_HAL_Driver/Src/stm32l4xx_hal_flash.c **** 
 424:Drivers/STM32L4xx_HAL_Driver/Src/stm32l4xx_hal_flash.c ****         /* FLASH EOP interrupt user callback */
 425:Drivers/STM32L4xx_HAL_Driver/Src/stm32l4xx_hal_flash.c ****         HAL_FLASH_EndOfOperationCallback(pFlash.Page);
 426:Drivers/STM32L4xx_HAL_Driver/Src/stm32l4xx_hal_flash.c ****       }
 427:Drivers/STM32L4xx_HAL_Driver/Src/stm32l4xx_hal_flash.c ****     }
 428:Drivers/STM32L4xx_HAL_Driver/Src/stm32l4xx_hal_flash.c ****     else
 429:Drivers/STM32L4xx_HAL_Driver/Src/stm32l4xx_hal_flash.c ****     {
ARM GAS  /tmp/cctJgZ6D.s 			page 9


 430:Drivers/STM32L4xx_HAL_Driver/Src/stm32l4xx_hal_flash.c ****       /* Flush the caches to be sure of the data consistency */
 431:Drivers/STM32L4xx_HAL_Driver/Src/stm32l4xx_hal_flash.c ****       FLASH_FlushCaches() ;
 432:Drivers/STM32L4xx_HAL_Driver/Src/stm32l4xx_hal_flash.c **** 
 433:Drivers/STM32L4xx_HAL_Driver/Src/stm32l4xx_hal_flash.c ****       procedure = pFlash.ProcedureOnGoing;
 434:Drivers/STM32L4xx_HAL_Driver/Src/stm32l4xx_hal_flash.c ****       if(procedure == FLASH_PROC_MASS_ERASE)
 435:Drivers/STM32L4xx_HAL_Driver/Src/stm32l4xx_hal_flash.c ****       {
 436:Drivers/STM32L4xx_HAL_Driver/Src/stm32l4xx_hal_flash.c ****         /* MassErase ended. Return the selected bank */
 437:Drivers/STM32L4xx_HAL_Driver/Src/stm32l4xx_hal_flash.c ****         /* FLASH EOP interrupt user callback */
 438:Drivers/STM32L4xx_HAL_Driver/Src/stm32l4xx_hal_flash.c ****         HAL_FLASH_EndOfOperationCallback(pFlash.Bank);
 439:Drivers/STM32L4xx_HAL_Driver/Src/stm32l4xx_hal_flash.c ****       }
 440:Drivers/STM32L4xx_HAL_Driver/Src/stm32l4xx_hal_flash.c ****       else if((procedure == FLASH_PROC_PROGRAM) ||
 441:Drivers/STM32L4xx_HAL_Driver/Src/stm32l4xx_hal_flash.c ****               (procedure == FLASH_PROC_PROGRAM_LAST))
 442:Drivers/STM32L4xx_HAL_Driver/Src/stm32l4xx_hal_flash.c ****       {
 443:Drivers/STM32L4xx_HAL_Driver/Src/stm32l4xx_hal_flash.c ****         /* Program ended. Return the selected address */
 444:Drivers/STM32L4xx_HAL_Driver/Src/stm32l4xx_hal_flash.c ****         /* FLASH EOP interrupt user callback */
 445:Drivers/STM32L4xx_HAL_Driver/Src/stm32l4xx_hal_flash.c ****         HAL_FLASH_EndOfOperationCallback(pFlash.Address);
 446:Drivers/STM32L4xx_HAL_Driver/Src/stm32l4xx_hal_flash.c ****       }
 447:Drivers/STM32L4xx_HAL_Driver/Src/stm32l4xx_hal_flash.c ****       else
 448:Drivers/STM32L4xx_HAL_Driver/Src/stm32l4xx_hal_flash.c ****       {
 449:Drivers/STM32L4xx_HAL_Driver/Src/stm32l4xx_hal_flash.c ****         /* Nothing to do */
 450:Drivers/STM32L4xx_HAL_Driver/Src/stm32l4xx_hal_flash.c ****       }
 451:Drivers/STM32L4xx_HAL_Driver/Src/stm32l4xx_hal_flash.c **** 
 452:Drivers/STM32L4xx_HAL_Driver/Src/stm32l4xx_hal_flash.c ****       /*Clear the procedure ongoing*/
 453:Drivers/STM32L4xx_HAL_Driver/Src/stm32l4xx_hal_flash.c ****       pFlash.ProcedureOnGoing = FLASH_PROC_NONE;
 454:Drivers/STM32L4xx_HAL_Driver/Src/stm32l4xx_hal_flash.c ****     }
 455:Drivers/STM32L4xx_HAL_Driver/Src/stm32l4xx_hal_flash.c ****   }
 456:Drivers/STM32L4xx_HAL_Driver/Src/stm32l4xx_hal_flash.c **** 
 457:Drivers/STM32L4xx_HAL_Driver/Src/stm32l4xx_hal_flash.c ****   if(pFlash.ProcedureOnGoing == FLASH_PROC_NONE)
 458:Drivers/STM32L4xx_HAL_Driver/Src/stm32l4xx_hal_flash.c ****   {
 459:Drivers/STM32L4xx_HAL_Driver/Src/stm32l4xx_hal_flash.c ****     /* Disable End of Operation and Error interrupts */
 460:Drivers/STM32L4xx_HAL_Driver/Src/stm32l4xx_hal_flash.c ****     __HAL_FLASH_DISABLE_IT(FLASH_IT_EOP | FLASH_IT_OPERR);
 461:Drivers/STM32L4xx_HAL_Driver/Src/stm32l4xx_hal_flash.c **** 
 462:Drivers/STM32L4xx_HAL_Driver/Src/stm32l4xx_hal_flash.c ****     /* Process Unlocked */
 463:Drivers/STM32L4xx_HAL_Driver/Src/stm32l4xx_hal_flash.c ****     __HAL_UNLOCK(&pFlash);
 464:Drivers/STM32L4xx_HAL_Driver/Src/stm32l4xx_hal_flash.c ****   }
 465:Drivers/STM32L4xx_HAL_Driver/Src/stm32l4xx_hal_flash.c **** }
 466:Drivers/STM32L4xx_HAL_Driver/Src/stm32l4xx_hal_flash.c **** 
 467:Drivers/STM32L4xx_HAL_Driver/Src/stm32l4xx_hal_flash.c **** /**
 468:Drivers/STM32L4xx_HAL_Driver/Src/stm32l4xx_hal_flash.c ****   * @brief  FLASH end of operation interrupt callback.
 469:Drivers/STM32L4xx_HAL_Driver/Src/stm32l4xx_hal_flash.c ****   * @param  ReturnValue: The value saved in this parameter depends on the ongoing procedure
 470:Drivers/STM32L4xx_HAL_Driver/Src/stm32l4xx_hal_flash.c ****   *                  Mass Erase: Bank number which has been requested to erase
 471:Drivers/STM32L4xx_HAL_Driver/Src/stm32l4xx_hal_flash.c ****   *                  Page Erase: Page which has been erased
 472:Drivers/STM32L4xx_HAL_Driver/Src/stm32l4xx_hal_flash.c ****   *                    (if 0xFFFFFFFF, it means that all the selected pages have been erased)
 473:Drivers/STM32L4xx_HAL_Driver/Src/stm32l4xx_hal_flash.c ****   *                  Program: Address which was selected for data program
 474:Drivers/STM32L4xx_HAL_Driver/Src/stm32l4xx_hal_flash.c ****   * @retval None
 475:Drivers/STM32L4xx_HAL_Driver/Src/stm32l4xx_hal_flash.c ****   */
 476:Drivers/STM32L4xx_HAL_Driver/Src/stm32l4xx_hal_flash.c **** __weak void HAL_FLASH_EndOfOperationCallback(uint32_t ReturnValue)
 477:Drivers/STM32L4xx_HAL_Driver/Src/stm32l4xx_hal_flash.c **** {
 478:Drivers/STM32L4xx_HAL_Driver/Src/stm32l4xx_hal_flash.c ****   /* Prevent unused argument(s) compilation warning */
 479:Drivers/STM32L4xx_HAL_Driver/Src/stm32l4xx_hal_flash.c ****   UNUSED(ReturnValue);
 480:Drivers/STM32L4xx_HAL_Driver/Src/stm32l4xx_hal_flash.c **** 
 481:Drivers/STM32L4xx_HAL_Driver/Src/stm32l4xx_hal_flash.c ****   /* NOTE : This function should not be modified, when the callback is needed,
 482:Drivers/STM32L4xx_HAL_Driver/Src/stm32l4xx_hal_flash.c ****             the HAL_FLASH_EndOfOperationCallback could be implemented in the user file
 483:Drivers/STM32L4xx_HAL_Driver/Src/stm32l4xx_hal_flash.c ****    */
 484:Drivers/STM32L4xx_HAL_Driver/Src/stm32l4xx_hal_flash.c **** }
 485:Drivers/STM32L4xx_HAL_Driver/Src/stm32l4xx_hal_flash.c **** 
 486:Drivers/STM32L4xx_HAL_Driver/Src/stm32l4xx_hal_flash.c **** /**
ARM GAS  /tmp/cctJgZ6D.s 			page 10


 487:Drivers/STM32L4xx_HAL_Driver/Src/stm32l4xx_hal_flash.c ****   * @brief  FLASH operation error interrupt callback.
 488:Drivers/STM32L4xx_HAL_Driver/Src/stm32l4xx_hal_flash.c ****   * @param  ReturnValue: The value saved in this parameter depends on the ongoing procedure
 489:Drivers/STM32L4xx_HAL_Driver/Src/stm32l4xx_hal_flash.c ****   *                 Mass Erase: Bank number which has been requested to erase
 490:Drivers/STM32L4xx_HAL_Driver/Src/stm32l4xx_hal_flash.c ****   *                 Page Erase: Page number which returned an error
 491:Drivers/STM32L4xx_HAL_Driver/Src/stm32l4xx_hal_flash.c ****   *                 Program: Address which was selected for data program
 492:Drivers/STM32L4xx_HAL_Driver/Src/stm32l4xx_hal_flash.c ****   * @retval None
 493:Drivers/STM32L4xx_HAL_Driver/Src/stm32l4xx_hal_flash.c ****   */
 494:Drivers/STM32L4xx_HAL_Driver/Src/stm32l4xx_hal_flash.c **** __weak void HAL_FLASH_OperationErrorCallback(uint32_t ReturnValue)
 495:Drivers/STM32L4xx_HAL_Driver/Src/stm32l4xx_hal_flash.c **** {
 496:Drivers/STM32L4xx_HAL_Driver/Src/stm32l4xx_hal_flash.c ****   /* Prevent unused argument(s) compilation warning */
 497:Drivers/STM32L4xx_HAL_Driver/Src/stm32l4xx_hal_flash.c ****   UNUSED(ReturnValue);
 498:Drivers/STM32L4xx_HAL_Driver/Src/stm32l4xx_hal_flash.c **** 
 499:Drivers/STM32L4xx_HAL_Driver/Src/stm32l4xx_hal_flash.c ****   /* NOTE : This function should not be modified, when the callback is needed,
 500:Drivers/STM32L4xx_HAL_Driver/Src/stm32l4xx_hal_flash.c ****             the HAL_FLASH_OperationErrorCallback could be implemented in the user file
 501:Drivers/STM32L4xx_HAL_Driver/Src/stm32l4xx_hal_flash.c ****    */
 502:Drivers/STM32L4xx_HAL_Driver/Src/stm32l4xx_hal_flash.c **** }
 503:Drivers/STM32L4xx_HAL_Driver/Src/stm32l4xx_hal_flash.c **** 
 504:Drivers/STM32L4xx_HAL_Driver/Src/stm32l4xx_hal_flash.c **** /**
 505:Drivers/STM32L4xx_HAL_Driver/Src/stm32l4xx_hal_flash.c ****   * @}
 506:Drivers/STM32L4xx_HAL_Driver/Src/stm32l4xx_hal_flash.c ****   */
 507:Drivers/STM32L4xx_HAL_Driver/Src/stm32l4xx_hal_flash.c **** 
 508:Drivers/STM32L4xx_HAL_Driver/Src/stm32l4xx_hal_flash.c **** /** @defgroup FLASH_Exported_Functions_Group2 Peripheral Control functions
 509:Drivers/STM32L4xx_HAL_Driver/Src/stm32l4xx_hal_flash.c ****  *  @brief   Management functions
 510:Drivers/STM32L4xx_HAL_Driver/Src/stm32l4xx_hal_flash.c ****  *
 511:Drivers/STM32L4xx_HAL_Driver/Src/stm32l4xx_hal_flash.c **** @verbatim
 512:Drivers/STM32L4xx_HAL_Driver/Src/stm32l4xx_hal_flash.c ****  ===============================================================================
 513:Drivers/STM32L4xx_HAL_Driver/Src/stm32l4xx_hal_flash.c ****                       ##### Peripheral Control functions #####
 514:Drivers/STM32L4xx_HAL_Driver/Src/stm32l4xx_hal_flash.c ****  ===============================================================================
 515:Drivers/STM32L4xx_HAL_Driver/Src/stm32l4xx_hal_flash.c ****     [..]
 516:Drivers/STM32L4xx_HAL_Driver/Src/stm32l4xx_hal_flash.c ****     This subsection provides a set of functions allowing to control the FLASH
 517:Drivers/STM32L4xx_HAL_Driver/Src/stm32l4xx_hal_flash.c ****     memory operations.
 518:Drivers/STM32L4xx_HAL_Driver/Src/stm32l4xx_hal_flash.c **** 
 519:Drivers/STM32L4xx_HAL_Driver/Src/stm32l4xx_hal_flash.c **** @endverbatim
 520:Drivers/STM32L4xx_HAL_Driver/Src/stm32l4xx_hal_flash.c ****   * @{
 521:Drivers/STM32L4xx_HAL_Driver/Src/stm32l4xx_hal_flash.c ****   */
 522:Drivers/STM32L4xx_HAL_Driver/Src/stm32l4xx_hal_flash.c **** 
 523:Drivers/STM32L4xx_HAL_Driver/Src/stm32l4xx_hal_flash.c **** /**
 524:Drivers/STM32L4xx_HAL_Driver/Src/stm32l4xx_hal_flash.c ****   * @brief  Unlock the FLASH control register access.
 525:Drivers/STM32L4xx_HAL_Driver/Src/stm32l4xx_hal_flash.c ****   * @retval HAL Status
 526:Drivers/STM32L4xx_HAL_Driver/Src/stm32l4xx_hal_flash.c ****   */
 527:Drivers/STM32L4xx_HAL_Driver/Src/stm32l4xx_hal_flash.c **** HAL_StatusTypeDef HAL_FLASH_Unlock(void)
 528:Drivers/STM32L4xx_HAL_Driver/Src/stm32l4xx_hal_flash.c **** {
 529:Drivers/STM32L4xx_HAL_Driver/Src/stm32l4xx_hal_flash.c ****   HAL_StatusTypeDef status = HAL_OK;
 530:Drivers/STM32L4xx_HAL_Driver/Src/stm32l4xx_hal_flash.c **** 
 531:Drivers/STM32L4xx_HAL_Driver/Src/stm32l4xx_hal_flash.c ****   if(READ_BIT(FLASH->CR, FLASH_CR_LOCK) != 0U)
 532:Drivers/STM32L4xx_HAL_Driver/Src/stm32l4xx_hal_flash.c ****   {
 533:Drivers/STM32L4xx_HAL_Driver/Src/stm32l4xx_hal_flash.c ****     /* Authorize the FLASH Registers access */
 534:Drivers/STM32L4xx_HAL_Driver/Src/stm32l4xx_hal_flash.c ****     WRITE_REG(FLASH->KEYR, FLASH_KEY1);
 535:Drivers/STM32L4xx_HAL_Driver/Src/stm32l4xx_hal_flash.c ****     WRITE_REG(FLASH->KEYR, FLASH_KEY2);
 536:Drivers/STM32L4xx_HAL_Driver/Src/stm32l4xx_hal_flash.c **** 
 537:Drivers/STM32L4xx_HAL_Driver/Src/stm32l4xx_hal_flash.c ****     /* Verify Flash is unlocked */
 538:Drivers/STM32L4xx_HAL_Driver/Src/stm32l4xx_hal_flash.c ****     if(READ_BIT(FLASH->CR, FLASH_CR_LOCK) != 0U)
 539:Drivers/STM32L4xx_HAL_Driver/Src/stm32l4xx_hal_flash.c ****     {
 540:Drivers/STM32L4xx_HAL_Driver/Src/stm32l4xx_hal_flash.c ****       status = HAL_ERROR;
 541:Drivers/STM32L4xx_HAL_Driver/Src/stm32l4xx_hal_flash.c ****     }
 542:Drivers/STM32L4xx_HAL_Driver/Src/stm32l4xx_hal_flash.c ****   }
 543:Drivers/STM32L4xx_HAL_Driver/Src/stm32l4xx_hal_flash.c **** 
ARM GAS  /tmp/cctJgZ6D.s 			page 11


 544:Drivers/STM32L4xx_HAL_Driver/Src/stm32l4xx_hal_flash.c ****   return status;
 545:Drivers/STM32L4xx_HAL_Driver/Src/stm32l4xx_hal_flash.c **** }
 546:Drivers/STM32L4xx_HAL_Driver/Src/stm32l4xx_hal_flash.c **** 
 547:Drivers/STM32L4xx_HAL_Driver/Src/stm32l4xx_hal_flash.c **** /**
 548:Drivers/STM32L4xx_HAL_Driver/Src/stm32l4xx_hal_flash.c ****   * @brief  Lock the FLASH control register access.
 549:Drivers/STM32L4xx_HAL_Driver/Src/stm32l4xx_hal_flash.c ****   * @retval HAL Status
 550:Drivers/STM32L4xx_HAL_Driver/Src/stm32l4xx_hal_flash.c ****   */
 551:Drivers/STM32L4xx_HAL_Driver/Src/stm32l4xx_hal_flash.c **** HAL_StatusTypeDef HAL_FLASH_Lock(void)
 552:Drivers/STM32L4xx_HAL_Driver/Src/stm32l4xx_hal_flash.c **** {
 553:Drivers/STM32L4xx_HAL_Driver/Src/stm32l4xx_hal_flash.c ****   /* Set the LOCK Bit to lock the FLASH Registers access */
 554:Drivers/STM32L4xx_HAL_Driver/Src/stm32l4xx_hal_flash.c ****   SET_BIT(FLASH->CR, FLASH_CR_LOCK);
 555:Drivers/STM32L4xx_HAL_Driver/Src/stm32l4xx_hal_flash.c **** 
 556:Drivers/STM32L4xx_HAL_Driver/Src/stm32l4xx_hal_flash.c ****   return HAL_OK;
 557:Drivers/STM32L4xx_HAL_Driver/Src/stm32l4xx_hal_flash.c **** }
 558:Drivers/STM32L4xx_HAL_Driver/Src/stm32l4xx_hal_flash.c **** 
 559:Drivers/STM32L4xx_HAL_Driver/Src/stm32l4xx_hal_flash.c **** /**
 560:Drivers/STM32L4xx_HAL_Driver/Src/stm32l4xx_hal_flash.c ****   * @brief  Unlock the FLASH Option Bytes Registers access.
 561:Drivers/STM32L4xx_HAL_Driver/Src/stm32l4xx_hal_flash.c ****   * @retval HAL Status
 562:Drivers/STM32L4xx_HAL_Driver/Src/stm32l4xx_hal_flash.c ****   */
 563:Drivers/STM32L4xx_HAL_Driver/Src/stm32l4xx_hal_flash.c **** HAL_StatusTypeDef HAL_FLASH_OB_Unlock(void)
 564:Drivers/STM32L4xx_HAL_Driver/Src/stm32l4xx_hal_flash.c **** {
 565:Drivers/STM32L4xx_HAL_Driver/Src/stm32l4xx_hal_flash.c ****   if(READ_BIT(FLASH->CR, FLASH_CR_OPTLOCK) != 0U)
 566:Drivers/STM32L4xx_HAL_Driver/Src/stm32l4xx_hal_flash.c ****   {
 567:Drivers/STM32L4xx_HAL_Driver/Src/stm32l4xx_hal_flash.c ****     /* Authorizes the Option Byte register programming */
 568:Drivers/STM32L4xx_HAL_Driver/Src/stm32l4xx_hal_flash.c ****     WRITE_REG(FLASH->OPTKEYR, FLASH_OPTKEY1);
 569:Drivers/STM32L4xx_HAL_Driver/Src/stm32l4xx_hal_flash.c ****     WRITE_REG(FLASH->OPTKEYR, FLASH_OPTKEY2);
 570:Drivers/STM32L4xx_HAL_Driver/Src/stm32l4xx_hal_flash.c ****   }
 571:Drivers/STM32L4xx_HAL_Driver/Src/stm32l4xx_hal_flash.c ****   else
 572:Drivers/STM32L4xx_HAL_Driver/Src/stm32l4xx_hal_flash.c ****   {
 573:Drivers/STM32L4xx_HAL_Driver/Src/stm32l4xx_hal_flash.c ****     return HAL_ERROR;
 574:Drivers/STM32L4xx_HAL_Driver/Src/stm32l4xx_hal_flash.c ****   }
 575:Drivers/STM32L4xx_HAL_Driver/Src/stm32l4xx_hal_flash.c **** 
 576:Drivers/STM32L4xx_HAL_Driver/Src/stm32l4xx_hal_flash.c ****   return HAL_OK;
 577:Drivers/STM32L4xx_HAL_Driver/Src/stm32l4xx_hal_flash.c **** }
 578:Drivers/STM32L4xx_HAL_Driver/Src/stm32l4xx_hal_flash.c **** 
 579:Drivers/STM32L4xx_HAL_Driver/Src/stm32l4xx_hal_flash.c **** /**
 580:Drivers/STM32L4xx_HAL_Driver/Src/stm32l4xx_hal_flash.c ****   * @brief  Lock the FLASH Option Bytes Registers access.
 581:Drivers/STM32L4xx_HAL_Driver/Src/stm32l4xx_hal_flash.c ****   * @retval HAL Status
 582:Drivers/STM32L4xx_HAL_Driver/Src/stm32l4xx_hal_flash.c ****   */
 583:Drivers/STM32L4xx_HAL_Driver/Src/stm32l4xx_hal_flash.c **** HAL_StatusTypeDef HAL_FLASH_OB_Lock(void)
 584:Drivers/STM32L4xx_HAL_Driver/Src/stm32l4xx_hal_flash.c **** {
 585:Drivers/STM32L4xx_HAL_Driver/Src/stm32l4xx_hal_flash.c ****   /* Set the OPTLOCK Bit to lock the FLASH Option Byte Registers access */
 586:Drivers/STM32L4xx_HAL_Driver/Src/stm32l4xx_hal_flash.c ****   SET_BIT(FLASH->CR, FLASH_CR_OPTLOCK);
 587:Drivers/STM32L4xx_HAL_Driver/Src/stm32l4xx_hal_flash.c **** 
 588:Drivers/STM32L4xx_HAL_Driver/Src/stm32l4xx_hal_flash.c ****   return HAL_OK;
 589:Drivers/STM32L4xx_HAL_Driver/Src/stm32l4xx_hal_flash.c **** }
 590:Drivers/STM32L4xx_HAL_Driver/Src/stm32l4xx_hal_flash.c **** 
 591:Drivers/STM32L4xx_HAL_Driver/Src/stm32l4xx_hal_flash.c **** /**
 592:Drivers/STM32L4xx_HAL_Driver/Src/stm32l4xx_hal_flash.c ****   * @brief  Launch the option byte loading.
 593:Drivers/STM32L4xx_HAL_Driver/Src/stm32l4xx_hal_flash.c ****   * @retval HAL Status
 594:Drivers/STM32L4xx_HAL_Driver/Src/stm32l4xx_hal_flash.c ****   */
 595:Drivers/STM32L4xx_HAL_Driver/Src/stm32l4xx_hal_flash.c **** HAL_StatusTypeDef HAL_FLASH_OB_Launch(void)
 596:Drivers/STM32L4xx_HAL_Driver/Src/stm32l4xx_hal_flash.c **** {
 597:Drivers/STM32L4xx_HAL_Driver/Src/stm32l4xx_hal_flash.c ****   /* Set the bit to force the option byte reloading */
 598:Drivers/STM32L4xx_HAL_Driver/Src/stm32l4xx_hal_flash.c ****   SET_BIT(FLASH->CR, FLASH_CR_OBL_LAUNCH);
 599:Drivers/STM32L4xx_HAL_Driver/Src/stm32l4xx_hal_flash.c **** 
 600:Drivers/STM32L4xx_HAL_Driver/Src/stm32l4xx_hal_flash.c ****   /* Wait for last operation to be completed */
ARM GAS  /tmp/cctJgZ6D.s 			page 12


 601:Drivers/STM32L4xx_HAL_Driver/Src/stm32l4xx_hal_flash.c ****   return(FLASH_WaitForLastOperation((uint32_t)FLASH_TIMEOUT_VALUE));
 602:Drivers/STM32L4xx_HAL_Driver/Src/stm32l4xx_hal_flash.c **** }
 603:Drivers/STM32L4xx_HAL_Driver/Src/stm32l4xx_hal_flash.c **** 
 604:Drivers/STM32L4xx_HAL_Driver/Src/stm32l4xx_hal_flash.c **** /**
 605:Drivers/STM32L4xx_HAL_Driver/Src/stm32l4xx_hal_flash.c ****   * @}
 606:Drivers/STM32L4xx_HAL_Driver/Src/stm32l4xx_hal_flash.c ****   */
 607:Drivers/STM32L4xx_HAL_Driver/Src/stm32l4xx_hal_flash.c **** 
 608:Drivers/STM32L4xx_HAL_Driver/Src/stm32l4xx_hal_flash.c **** /** @defgroup FLASH_Exported_Functions_Group3 Peripheral State and Errors functions
 609:Drivers/STM32L4xx_HAL_Driver/Src/stm32l4xx_hal_flash.c ****  *  @brief   Peripheral Errors functions
 610:Drivers/STM32L4xx_HAL_Driver/Src/stm32l4xx_hal_flash.c ****  *
 611:Drivers/STM32L4xx_HAL_Driver/Src/stm32l4xx_hal_flash.c **** @verbatim
 612:Drivers/STM32L4xx_HAL_Driver/Src/stm32l4xx_hal_flash.c ****  ===============================================================================
 613:Drivers/STM32L4xx_HAL_Driver/Src/stm32l4xx_hal_flash.c ****                 ##### Peripheral Errors functions #####
 614:Drivers/STM32L4xx_HAL_Driver/Src/stm32l4xx_hal_flash.c ****  ===============================================================================
 615:Drivers/STM32L4xx_HAL_Driver/Src/stm32l4xx_hal_flash.c ****     [..]
 616:Drivers/STM32L4xx_HAL_Driver/Src/stm32l4xx_hal_flash.c ****     This subsection permits to get in run-time Errors of the FLASH peripheral.
 617:Drivers/STM32L4xx_HAL_Driver/Src/stm32l4xx_hal_flash.c **** 
 618:Drivers/STM32L4xx_HAL_Driver/Src/stm32l4xx_hal_flash.c **** @endverbatim
 619:Drivers/STM32L4xx_HAL_Driver/Src/stm32l4xx_hal_flash.c ****   * @{
 620:Drivers/STM32L4xx_HAL_Driver/Src/stm32l4xx_hal_flash.c ****   */
 621:Drivers/STM32L4xx_HAL_Driver/Src/stm32l4xx_hal_flash.c **** 
 622:Drivers/STM32L4xx_HAL_Driver/Src/stm32l4xx_hal_flash.c **** /**
 623:Drivers/STM32L4xx_HAL_Driver/Src/stm32l4xx_hal_flash.c ****   * @brief  Get the specific FLASH error flag.
 624:Drivers/STM32L4xx_HAL_Driver/Src/stm32l4xx_hal_flash.c ****   * @retval FLASH_ErrorCode: The returned value can be:
 625:Drivers/STM32L4xx_HAL_Driver/Src/stm32l4xx_hal_flash.c ****   *            @arg HAL_FLASH_ERROR_RD: FLASH Read Protection error flag (PCROP)
 626:Drivers/STM32L4xx_HAL_Driver/Src/stm32l4xx_hal_flash.c ****   *            @arg HAL_FLASH_ERROR_PGS: FLASH Programming Sequence error flag
 627:Drivers/STM32L4xx_HAL_Driver/Src/stm32l4xx_hal_flash.c ****   *            @arg HAL_FLASH_ERROR_PGP: FLASH Programming Parallelism error flag
 628:Drivers/STM32L4xx_HAL_Driver/Src/stm32l4xx_hal_flash.c ****   *            @arg HAL_FLASH_ERROR_PGA: FLASH Programming Alignment error flag
 629:Drivers/STM32L4xx_HAL_Driver/Src/stm32l4xx_hal_flash.c ****   *            @arg HAL_FLASH_ERROR_WRP: FLASH Write protected error flag
 630:Drivers/STM32L4xx_HAL_Driver/Src/stm32l4xx_hal_flash.c ****   *            @arg HAL_FLASH_ERROR_OPERATION: FLASH operation Error flag
 631:Drivers/STM32L4xx_HAL_Driver/Src/stm32l4xx_hal_flash.c ****   *            @arg HAL_FLASH_ERROR_NONE: No error set
 632:Drivers/STM32L4xx_HAL_Driver/Src/stm32l4xx_hal_flash.c ****   *            @arg HAL_FLASH_ERROR_OP: FLASH Operation error
 633:Drivers/STM32L4xx_HAL_Driver/Src/stm32l4xx_hal_flash.c ****   *            @arg HAL_FLASH_ERROR_PROG: FLASH Programming error
 634:Drivers/STM32L4xx_HAL_Driver/Src/stm32l4xx_hal_flash.c ****   *            @arg HAL_FLASH_ERROR_WRP: FLASH Write protection error
 635:Drivers/STM32L4xx_HAL_Driver/Src/stm32l4xx_hal_flash.c ****   *            @arg HAL_FLASH_ERROR_PGA: FLASH Programming alignment error
 636:Drivers/STM32L4xx_HAL_Driver/Src/stm32l4xx_hal_flash.c ****   *            @arg HAL_FLASH_ERROR_SIZ: FLASH Size error
 637:Drivers/STM32L4xx_HAL_Driver/Src/stm32l4xx_hal_flash.c ****   *            @arg HAL_FLASH_ERROR_PGS: FLASH Programming sequence error
 638:Drivers/STM32L4xx_HAL_Driver/Src/stm32l4xx_hal_flash.c ****   *            @arg HAL_FLASH_ERROR_MIS: FLASH Fast programming data miss error
 639:Drivers/STM32L4xx_HAL_Driver/Src/stm32l4xx_hal_flash.c ****   *            @arg HAL_FLASH_ERROR_FAST: FLASH Fast programming error
 640:Drivers/STM32L4xx_HAL_Driver/Src/stm32l4xx_hal_flash.c ****   *            @arg HAL_FLASH_ERROR_RD: FLASH PCROP read error
 641:Drivers/STM32L4xx_HAL_Driver/Src/stm32l4xx_hal_flash.c ****   *            @arg HAL_FLASH_ERROR_OPTV: FLASH Option validity error
 642:Drivers/STM32L4xx_HAL_Driver/Src/stm32l4xx_hal_flash.c ****   *            @arg FLASH_FLAG_PEMPTY : FLASH Boot from not programmed flash (apply only for STM32L
 643:Drivers/STM32L4xx_HAL_Driver/Src/stm32l4xx_hal_flash.c ****   *            @arg HAL_FLASH_ERROR_ECCD: FLASH two ECC errors have been detected
 644:Drivers/STM32L4xx_HAL_Driver/Src/stm32l4xx_hal_flash.c ****   */
 645:Drivers/STM32L4xx_HAL_Driver/Src/stm32l4xx_hal_flash.c **** uint32_t HAL_FLASH_GetError(void)
 646:Drivers/STM32L4xx_HAL_Driver/Src/stm32l4xx_hal_flash.c **** {
 647:Drivers/STM32L4xx_HAL_Driver/Src/stm32l4xx_hal_flash.c ****    return pFlash.ErrorCode;
 648:Drivers/STM32L4xx_HAL_Driver/Src/stm32l4xx_hal_flash.c **** }
 649:Drivers/STM32L4xx_HAL_Driver/Src/stm32l4xx_hal_flash.c **** 
 650:Drivers/STM32L4xx_HAL_Driver/Src/stm32l4xx_hal_flash.c **** /**
 651:Drivers/STM32L4xx_HAL_Driver/Src/stm32l4xx_hal_flash.c ****   * @}
 652:Drivers/STM32L4xx_HAL_Driver/Src/stm32l4xx_hal_flash.c ****   */
 653:Drivers/STM32L4xx_HAL_Driver/Src/stm32l4xx_hal_flash.c **** 
 654:Drivers/STM32L4xx_HAL_Driver/Src/stm32l4xx_hal_flash.c **** /**
 655:Drivers/STM32L4xx_HAL_Driver/Src/stm32l4xx_hal_flash.c ****   * @}
 656:Drivers/STM32L4xx_HAL_Driver/Src/stm32l4xx_hal_flash.c ****   */
 657:Drivers/STM32L4xx_HAL_Driver/Src/stm32l4xx_hal_flash.c **** 
ARM GAS  /tmp/cctJgZ6D.s 			page 13


 658:Drivers/STM32L4xx_HAL_Driver/Src/stm32l4xx_hal_flash.c **** /* Private functions ---------------------------------------------------------*/
 659:Drivers/STM32L4xx_HAL_Driver/Src/stm32l4xx_hal_flash.c **** 
 660:Drivers/STM32L4xx_HAL_Driver/Src/stm32l4xx_hal_flash.c **** /** @addtogroup FLASH_Private_Functions
 661:Drivers/STM32L4xx_HAL_Driver/Src/stm32l4xx_hal_flash.c ****   * @{
 662:Drivers/STM32L4xx_HAL_Driver/Src/stm32l4xx_hal_flash.c ****   */
 663:Drivers/STM32L4xx_HAL_Driver/Src/stm32l4xx_hal_flash.c **** 
 664:Drivers/STM32L4xx_HAL_Driver/Src/stm32l4xx_hal_flash.c **** /**
 665:Drivers/STM32L4xx_HAL_Driver/Src/stm32l4xx_hal_flash.c ****   * @brief  Wait for a FLASH operation to complete.
 666:Drivers/STM32L4xx_HAL_Driver/Src/stm32l4xx_hal_flash.c ****   * @param  Timeout: maximum flash operation timeout
 667:Drivers/STM32L4xx_HAL_Driver/Src/stm32l4xx_hal_flash.c ****   * @retval HAL_StatusTypeDef HAL Status
 668:Drivers/STM32L4xx_HAL_Driver/Src/stm32l4xx_hal_flash.c ****   */
 669:Drivers/STM32L4xx_HAL_Driver/Src/stm32l4xx_hal_flash.c **** HAL_StatusTypeDef FLASH_WaitForLastOperation(uint32_t Timeout)
 670:Drivers/STM32L4xx_HAL_Driver/Src/stm32l4xx_hal_flash.c **** {
 671:Drivers/STM32L4xx_HAL_Driver/Src/stm32l4xx_hal_flash.c ****   /* Wait for the FLASH operation to complete by polling on BUSY flag to be reset.
 672:Drivers/STM32L4xx_HAL_Driver/Src/stm32l4xx_hal_flash.c ****      Even if the FLASH operation fails, the BUSY flag will be reset and an error
 673:Drivers/STM32L4xx_HAL_Driver/Src/stm32l4xx_hal_flash.c ****      flag will be set */
 674:Drivers/STM32L4xx_HAL_Driver/Src/stm32l4xx_hal_flash.c **** 
 675:Drivers/STM32L4xx_HAL_Driver/Src/stm32l4xx_hal_flash.c ****   uint32_t tickstart = HAL_GetTick();
 676:Drivers/STM32L4xx_HAL_Driver/Src/stm32l4xx_hal_flash.c ****   uint32_t error;
 677:Drivers/STM32L4xx_HAL_Driver/Src/stm32l4xx_hal_flash.c **** 
 678:Drivers/STM32L4xx_HAL_Driver/Src/stm32l4xx_hal_flash.c ****   while(__HAL_FLASH_GET_FLAG(FLASH_FLAG_BSY))
 679:Drivers/STM32L4xx_HAL_Driver/Src/stm32l4xx_hal_flash.c ****   {
 680:Drivers/STM32L4xx_HAL_Driver/Src/stm32l4xx_hal_flash.c ****     if(Timeout != HAL_MAX_DELAY)
 681:Drivers/STM32L4xx_HAL_Driver/Src/stm32l4xx_hal_flash.c ****     {
 682:Drivers/STM32L4xx_HAL_Driver/Src/stm32l4xx_hal_flash.c ****       if((HAL_GetTick() - tickstart) >= Timeout)
 683:Drivers/STM32L4xx_HAL_Driver/Src/stm32l4xx_hal_flash.c ****       {
 684:Drivers/STM32L4xx_HAL_Driver/Src/stm32l4xx_hal_flash.c ****         return HAL_TIMEOUT;
 685:Drivers/STM32L4xx_HAL_Driver/Src/stm32l4xx_hal_flash.c ****       }
 686:Drivers/STM32L4xx_HAL_Driver/Src/stm32l4xx_hal_flash.c ****     }
 687:Drivers/STM32L4xx_HAL_Driver/Src/stm32l4xx_hal_flash.c ****   }
 688:Drivers/STM32L4xx_HAL_Driver/Src/stm32l4xx_hal_flash.c **** 
 689:Drivers/STM32L4xx_HAL_Driver/Src/stm32l4xx_hal_flash.c ****   error = (FLASH->SR & FLASH_FLAG_SR_ERRORS);
 690:Drivers/STM32L4xx_HAL_Driver/Src/stm32l4xx_hal_flash.c ****   error |= (FLASH->ECCR & FLASH_FLAG_ECCD);
 691:Drivers/STM32L4xx_HAL_Driver/Src/stm32l4xx_hal_flash.c **** 
 692:Drivers/STM32L4xx_HAL_Driver/Src/stm32l4xx_hal_flash.c ****   if(error != 0u)
 693:Drivers/STM32L4xx_HAL_Driver/Src/stm32l4xx_hal_flash.c ****   {
 694:Drivers/STM32L4xx_HAL_Driver/Src/stm32l4xx_hal_flash.c ****     /*Save the error code*/
 695:Drivers/STM32L4xx_HAL_Driver/Src/stm32l4xx_hal_flash.c ****     pFlash.ErrorCode |= error;
 696:Drivers/STM32L4xx_HAL_Driver/Src/stm32l4xx_hal_flash.c **** 
 697:Drivers/STM32L4xx_HAL_Driver/Src/stm32l4xx_hal_flash.c ****     /* Clear error programming flags */
 698:Drivers/STM32L4xx_HAL_Driver/Src/stm32l4xx_hal_flash.c ****     __HAL_FLASH_CLEAR_FLAG(error);
 699:Drivers/STM32L4xx_HAL_Driver/Src/stm32l4xx_hal_flash.c **** 
 700:Drivers/STM32L4xx_HAL_Driver/Src/stm32l4xx_hal_flash.c ****     return HAL_ERROR;
 701:Drivers/STM32L4xx_HAL_Driver/Src/stm32l4xx_hal_flash.c ****   }
 702:Drivers/STM32L4xx_HAL_Driver/Src/stm32l4xx_hal_flash.c **** 
 703:Drivers/STM32L4xx_HAL_Driver/Src/stm32l4xx_hal_flash.c ****   /* Check FLASH End of Operation flag  */
 704:Drivers/STM32L4xx_HAL_Driver/Src/stm32l4xx_hal_flash.c ****   if (__HAL_FLASH_GET_FLAG(FLASH_FLAG_EOP))
 705:Drivers/STM32L4xx_HAL_Driver/Src/stm32l4xx_hal_flash.c ****   {
 706:Drivers/STM32L4xx_HAL_Driver/Src/stm32l4xx_hal_flash.c ****     /* Clear FLASH End of Operation pending bit */
 707:Drivers/STM32L4xx_HAL_Driver/Src/stm32l4xx_hal_flash.c ****     __HAL_FLASH_CLEAR_FLAG(FLASH_FLAG_EOP);
 708:Drivers/STM32L4xx_HAL_Driver/Src/stm32l4xx_hal_flash.c ****   }
 709:Drivers/STM32L4xx_HAL_Driver/Src/stm32l4xx_hal_flash.c **** 
 710:Drivers/STM32L4xx_HAL_Driver/Src/stm32l4xx_hal_flash.c ****   /* If there is an error flag set */
 711:Drivers/STM32L4xx_HAL_Driver/Src/stm32l4xx_hal_flash.c ****   return HAL_OK;
 712:Drivers/STM32L4xx_HAL_Driver/Src/stm32l4xx_hal_flash.c **** }
 713:Drivers/STM32L4xx_HAL_Driver/Src/stm32l4xx_hal_flash.c **** 
 714:Drivers/STM32L4xx_HAL_Driver/Src/stm32l4xx_hal_flash.c **** /**
ARM GAS  /tmp/cctJgZ6D.s 			page 14


 715:Drivers/STM32L4xx_HAL_Driver/Src/stm32l4xx_hal_flash.c ****   * @brief  Program double-word (64-bit) at a specified address.
 716:Drivers/STM32L4xx_HAL_Driver/Src/stm32l4xx_hal_flash.c ****   * @param  Address: specifies the address to be programmed.
 717:Drivers/STM32L4xx_HAL_Driver/Src/stm32l4xx_hal_flash.c ****   * @param  Data: specifies the data to be programmed.
 718:Drivers/STM32L4xx_HAL_Driver/Src/stm32l4xx_hal_flash.c ****   * @retval None
 719:Drivers/STM32L4xx_HAL_Driver/Src/stm32l4xx_hal_flash.c ****   */
 720:Drivers/STM32L4xx_HAL_Driver/Src/stm32l4xx_hal_flash.c **** static void FLASH_Program_DoubleWord(uint32_t Address, uint64_t Data)
 721:Drivers/STM32L4xx_HAL_Driver/Src/stm32l4xx_hal_flash.c **** {
  29              		.loc 1 721 1 view -0
  30              		.cfi_startproc
  31              		@ args = 0, pretend = 0, frame = 0
  32              		@ frame_needed = 0, uses_anonymous_args = 0
  33              		@ link register save eliminated.
  34              		.loc 1 721 1 is_stmt 0 view .LVU1
  35 0000 10B4     		push	{r4}
  36              	.LCFI0:
  37              		.cfi_def_cfa_offset 4
  38              		.cfi_offset 4, -4
 722:Drivers/STM32L4xx_HAL_Driver/Src/stm32l4xx_hal_flash.c ****   /* Check the parameters */
 723:Drivers/STM32L4xx_HAL_Driver/Src/stm32l4xx_hal_flash.c ****   assert_param(IS_FLASH_PROGRAM_ADDRESS(Address));
  39              		.loc 1 723 3 is_stmt 1 view .LVU2
 724:Drivers/STM32L4xx_HAL_Driver/Src/stm32l4xx_hal_flash.c **** 
 725:Drivers/STM32L4xx_HAL_Driver/Src/stm32l4xx_hal_flash.c ****   /* Set PG bit */
 726:Drivers/STM32L4xx_HAL_Driver/Src/stm32l4xx_hal_flash.c ****   SET_BIT(FLASH->CR, FLASH_CR_PG);
  40              		.loc 1 726 3 view .LVU3
  41 0002 054C     		ldr	r4, .L3
  42 0004 6169     		ldr	r1, [r4, #20]
  43 0006 41F00101 		orr	r1, r1, #1
  44 000a 6161     		str	r1, [r4, #20]
 727:Drivers/STM32L4xx_HAL_Driver/Src/stm32l4xx_hal_flash.c **** 
 728:Drivers/STM32L4xx_HAL_Driver/Src/stm32l4xx_hal_flash.c ****   /* Program the double word */
 729:Drivers/STM32L4xx_HAL_Driver/Src/stm32l4xx_hal_flash.c ****   *(__IO uint32_t*)Address = (uint32_t)Data;
  45              		.loc 1 729 3 view .LVU4
  46              		.loc 1 729 28 is_stmt 0 view .LVU5
  47 000c 0260     		str	r2, [r0]
 730:Drivers/STM32L4xx_HAL_Driver/Src/stm32l4xx_hal_flash.c ****   *(__IO uint32_t*)(Address+4U) = (uint32_t)(Data >> 32);
  48              		.loc 1 730 3 is_stmt 1 view .LVU6
  49              		.loc 1 730 33 is_stmt 0 view .LVU7
  50 000e 4360     		str	r3, [r0, #4]
 731:Drivers/STM32L4xx_HAL_Driver/Src/stm32l4xx_hal_flash.c **** }
  51              		.loc 1 731 1 view .LVU8
  52 0010 5DF8044B 		ldr	r4, [sp], #4
  53              	.LCFI1:
  54              		.cfi_restore 4
  55              		.cfi_def_cfa_offset 0
  56 0014 7047     		bx	lr
  57              	.L4:
  58 0016 00BF     		.align	2
  59              	.L3:
  60 0018 00200240 		.word	1073881088
  61              		.cfi_endproc
  62              	.LFE135:
  64              		.section	.text.FLASH_Program_Fast,"ax",%progbits
  65              		.align	1
  66              		.syntax unified
  67              		.thumb
  68              		.thumb_func
  69              		.fpu fpv4-sp-d16
ARM GAS  /tmp/cctJgZ6D.s 			page 15


  71              	FLASH_Program_Fast:
  72              	.LVL1:
  73              	.LFB136:
 732:Drivers/STM32L4xx_HAL_Driver/Src/stm32l4xx_hal_flash.c **** 
 733:Drivers/STM32L4xx_HAL_Driver/Src/stm32l4xx_hal_flash.c **** /**
 734:Drivers/STM32L4xx_HAL_Driver/Src/stm32l4xx_hal_flash.c ****   * @brief  Fast program a row double-word (64-bit) at a specified address.
 735:Drivers/STM32L4xx_HAL_Driver/Src/stm32l4xx_hal_flash.c ****   * @param  Address: specifies the address to be programmed.
 736:Drivers/STM32L4xx_HAL_Driver/Src/stm32l4xx_hal_flash.c ****   * @param  DataAddress: specifies the address where the data are stored.
 737:Drivers/STM32L4xx_HAL_Driver/Src/stm32l4xx_hal_flash.c ****   * @retval None
 738:Drivers/STM32L4xx_HAL_Driver/Src/stm32l4xx_hal_flash.c ****   */
 739:Drivers/STM32L4xx_HAL_Driver/Src/stm32l4xx_hal_flash.c **** static void FLASH_Program_Fast(uint32_t Address, uint32_t DataAddress)
 740:Drivers/STM32L4xx_HAL_Driver/Src/stm32l4xx_hal_flash.c **** {
  74              		.loc 1 740 1 is_stmt 1 view -0
  75              		.cfi_startproc
  76              		@ args = 0, pretend = 0, frame = 0
  77              		@ frame_needed = 0, uses_anonymous_args = 0
  78              		@ link register save eliminated.
 741:Drivers/STM32L4xx_HAL_Driver/Src/stm32l4xx_hal_flash.c ****   uint8_t row_index = (2*FLASH_NB_DOUBLE_WORDS_IN_ROW);
  79              		.loc 1 741 3 view .LVU10
 742:Drivers/STM32L4xx_HAL_Driver/Src/stm32l4xx_hal_flash.c ****   __IO uint32_t *dest_addr = (__IO uint32_t*)Address;
  80              		.loc 1 742 3 view .LVU11
 743:Drivers/STM32L4xx_HAL_Driver/Src/stm32l4xx_hal_flash.c ****   __IO uint32_t *src_addr = (__IO uint32_t*)DataAddress;
  81              		.loc 1 743 3 view .LVU12
 744:Drivers/STM32L4xx_HAL_Driver/Src/stm32l4xx_hal_flash.c **** 
 745:Drivers/STM32L4xx_HAL_Driver/Src/stm32l4xx_hal_flash.c ****   /* Check the parameters */
 746:Drivers/STM32L4xx_HAL_Driver/Src/stm32l4xx_hal_flash.c ****   assert_param(IS_FLASH_MAIN_MEM_ADDRESS(Address));
  82              		.loc 1 746 3 view .LVU13
 747:Drivers/STM32L4xx_HAL_Driver/Src/stm32l4xx_hal_flash.c **** 
 748:Drivers/STM32L4xx_HAL_Driver/Src/stm32l4xx_hal_flash.c ****   /* Set FSTPG bit */
 749:Drivers/STM32L4xx_HAL_Driver/Src/stm32l4xx_hal_flash.c ****   SET_BIT(FLASH->CR, FLASH_CR_FSTPG);
  83              		.loc 1 749 3 view .LVU14
  84 0000 084A     		ldr	r2, .L7
  85 0002 5369     		ldr	r3, [r2, #20]
  86 0004 43F48023 		orr	r3, r3, #262144
  87 0008 5361     		str	r3, [r2, #20]
 750:Drivers/STM32L4xx_HAL_Driver/Src/stm32l4xx_hal_flash.c **** 
 751:Drivers/STM32L4xx_HAL_Driver/Src/stm32l4xx_hal_flash.c ****   /* Disable interrupts to avoid any interruption during the loop */
 752:Drivers/STM32L4xx_HAL_Driver/Src/stm32l4xx_hal_flash.c ****   __disable_irq();
  88              		.loc 1 752 3 view .LVU15
  89              	.LBB6:
  90              	.LBI6:
  91              		.file 2 "Drivers/CMSIS/Include/cmsis_gcc.h"
   1:Drivers/CMSIS/Include/cmsis_gcc.h **** /**************************************************************************//**
   2:Drivers/CMSIS/Include/cmsis_gcc.h ****  * @file     cmsis_gcc.h
   3:Drivers/CMSIS/Include/cmsis_gcc.h ****  * @brief    CMSIS Cortex-M Core Function/Instruction Header File
   4:Drivers/CMSIS/Include/cmsis_gcc.h ****  * @version  V4.30
   5:Drivers/CMSIS/Include/cmsis_gcc.h ****  * @date     20. October 2015
   6:Drivers/CMSIS/Include/cmsis_gcc.h ****  ******************************************************************************/
   7:Drivers/CMSIS/Include/cmsis_gcc.h **** /* Copyright (c) 2009 - 2015 ARM LIMITED
   8:Drivers/CMSIS/Include/cmsis_gcc.h **** 
   9:Drivers/CMSIS/Include/cmsis_gcc.h ****    All rights reserved.
  10:Drivers/CMSIS/Include/cmsis_gcc.h ****    Redistribution and use in source and binary forms, with or without
  11:Drivers/CMSIS/Include/cmsis_gcc.h ****    modification, are permitted provided that the following conditions are met:
  12:Drivers/CMSIS/Include/cmsis_gcc.h ****    - Redistributions of source code must retain the above copyright
  13:Drivers/CMSIS/Include/cmsis_gcc.h ****      notice, this list of conditions and the following disclaimer.
  14:Drivers/CMSIS/Include/cmsis_gcc.h ****    - Redistributions in binary form must reproduce the above copyright
  15:Drivers/CMSIS/Include/cmsis_gcc.h ****      notice, this list of conditions and the following disclaimer in the
ARM GAS  /tmp/cctJgZ6D.s 			page 16


  16:Drivers/CMSIS/Include/cmsis_gcc.h ****      documentation and/or other materials provided with the distribution.
  17:Drivers/CMSIS/Include/cmsis_gcc.h ****    - Neither the name of ARM nor the names of its contributors may be used
  18:Drivers/CMSIS/Include/cmsis_gcc.h ****      to endorse or promote products derived from this software without
  19:Drivers/CMSIS/Include/cmsis_gcc.h ****      specific prior written permission.
  20:Drivers/CMSIS/Include/cmsis_gcc.h ****    *
  21:Drivers/CMSIS/Include/cmsis_gcc.h ****    THIS SOFTWARE IS PROVIDED BY THE COPYRIGHT HOLDERS AND CONTRIBUTORS "AS IS"
  22:Drivers/CMSIS/Include/cmsis_gcc.h ****    AND ANY EXPRESS OR IMPLIED WARRANTIES, INCLUDING, BUT NOT LIMITED TO, THE
  23:Drivers/CMSIS/Include/cmsis_gcc.h ****    IMPLIED WARRANTIES OF MERCHANTABILITY AND FITNESS FOR A PARTICULAR PURPOSE
  24:Drivers/CMSIS/Include/cmsis_gcc.h ****    ARE DISCLAIMED. IN NO EVENT SHALL COPYRIGHT HOLDERS AND CONTRIBUTORS BE
  25:Drivers/CMSIS/Include/cmsis_gcc.h ****    LIABLE FOR ANY DIRECT, INDIRECT, INCIDENTAL, SPECIAL, EXEMPLARY, OR
  26:Drivers/CMSIS/Include/cmsis_gcc.h ****    CONSEQUENTIAL DAMAGES (INCLUDING, BUT NOT LIMITED TO, PROCUREMENT OF
  27:Drivers/CMSIS/Include/cmsis_gcc.h ****    SUBSTITUTE GOODS OR SERVICES; LOSS OF USE, DATA, OR PROFITS; OR BUSINESS
  28:Drivers/CMSIS/Include/cmsis_gcc.h ****    INTERRUPTION) HOWEVER CAUSED AND ON ANY THEORY OF LIABILITY, WHETHER IN
  29:Drivers/CMSIS/Include/cmsis_gcc.h ****    CONTRACT, STRICT LIABILITY, OR TORT (INCLUDING NEGLIGENCE OR OTHERWISE)
  30:Drivers/CMSIS/Include/cmsis_gcc.h ****    ARISING IN ANY WAY OUT OF THE USE OF THIS SOFTWARE, EVEN IF ADVISED OF THE
  31:Drivers/CMSIS/Include/cmsis_gcc.h ****    POSSIBILITY OF SUCH DAMAGE.
  32:Drivers/CMSIS/Include/cmsis_gcc.h ****    ---------------------------------------------------------------------------*/
  33:Drivers/CMSIS/Include/cmsis_gcc.h **** 
  34:Drivers/CMSIS/Include/cmsis_gcc.h **** 
  35:Drivers/CMSIS/Include/cmsis_gcc.h **** #ifndef __CMSIS_GCC_H
  36:Drivers/CMSIS/Include/cmsis_gcc.h **** #define __CMSIS_GCC_H
  37:Drivers/CMSIS/Include/cmsis_gcc.h **** 
  38:Drivers/CMSIS/Include/cmsis_gcc.h **** /* ignore some GCC warnings */
  39:Drivers/CMSIS/Include/cmsis_gcc.h **** #if defined ( __GNUC__ )
  40:Drivers/CMSIS/Include/cmsis_gcc.h **** #pragma GCC diagnostic push
  41:Drivers/CMSIS/Include/cmsis_gcc.h **** #pragma GCC diagnostic ignored "-Wsign-conversion"
  42:Drivers/CMSIS/Include/cmsis_gcc.h **** #pragma GCC diagnostic ignored "-Wconversion"
  43:Drivers/CMSIS/Include/cmsis_gcc.h **** #pragma GCC diagnostic ignored "-Wunused-parameter"
  44:Drivers/CMSIS/Include/cmsis_gcc.h **** #endif
  45:Drivers/CMSIS/Include/cmsis_gcc.h **** 
  46:Drivers/CMSIS/Include/cmsis_gcc.h **** 
  47:Drivers/CMSIS/Include/cmsis_gcc.h **** /* ###########################  Core Function Access  ########################### */
  48:Drivers/CMSIS/Include/cmsis_gcc.h **** /** \ingroup  CMSIS_Core_FunctionInterface
  49:Drivers/CMSIS/Include/cmsis_gcc.h ****     \defgroup CMSIS_Core_RegAccFunctions CMSIS Core Register Access Functions
  50:Drivers/CMSIS/Include/cmsis_gcc.h ****   @{
  51:Drivers/CMSIS/Include/cmsis_gcc.h ****  */
  52:Drivers/CMSIS/Include/cmsis_gcc.h **** 
  53:Drivers/CMSIS/Include/cmsis_gcc.h **** /**
  54:Drivers/CMSIS/Include/cmsis_gcc.h ****   \brief   Enable IRQ Interrupts
  55:Drivers/CMSIS/Include/cmsis_gcc.h ****   \details Enables IRQ interrupts by clearing the I-bit in the CPSR.
  56:Drivers/CMSIS/Include/cmsis_gcc.h ****            Can only be executed in Privileged modes.
  57:Drivers/CMSIS/Include/cmsis_gcc.h ****  */
  58:Drivers/CMSIS/Include/cmsis_gcc.h **** __attribute__( ( always_inline ) ) __STATIC_INLINE void __enable_irq(void)
  59:Drivers/CMSIS/Include/cmsis_gcc.h **** {
  60:Drivers/CMSIS/Include/cmsis_gcc.h ****   __ASM volatile ("cpsie i" : : : "memory");
  61:Drivers/CMSIS/Include/cmsis_gcc.h **** }
  62:Drivers/CMSIS/Include/cmsis_gcc.h **** 
  63:Drivers/CMSIS/Include/cmsis_gcc.h **** 
  64:Drivers/CMSIS/Include/cmsis_gcc.h **** /**
  65:Drivers/CMSIS/Include/cmsis_gcc.h ****   \brief   Disable IRQ Interrupts
  66:Drivers/CMSIS/Include/cmsis_gcc.h ****   \details Disables IRQ interrupts by setting the I-bit in the CPSR.
  67:Drivers/CMSIS/Include/cmsis_gcc.h ****   Can only be executed in Privileged modes.
  68:Drivers/CMSIS/Include/cmsis_gcc.h ****  */
  69:Drivers/CMSIS/Include/cmsis_gcc.h **** __attribute__( ( always_inline ) ) __STATIC_INLINE void __disable_irq(void)
  92              		.loc 2 69 57 view .LVU16
  93              	.LBB7:
  70:Drivers/CMSIS/Include/cmsis_gcc.h **** {
ARM GAS  /tmp/cctJgZ6D.s 			page 17


  71:Drivers/CMSIS/Include/cmsis_gcc.h ****   __ASM volatile ("cpsid i" : : : "memory");
  94              		.loc 2 71 3 view .LVU17
  95              		.syntax unified
  96              	@ 71 "Drivers/CMSIS/Include/cmsis_gcc.h" 1
  97 000a 72B6     		cpsid i
  98              	@ 0 "" 2
  99              		.thumb
 100              		.syntax unified
 101              	.LBE7:
 102              	.LBE6:
 741:Drivers/STM32L4xx_HAL_Driver/Src/stm32l4xx_hal_flash.c ****   __IO uint32_t *dest_addr = (__IO uint32_t*)Address;
 103              		.loc 1 741 11 is_stmt 0 view .LVU18
 104 000c 4023     		movs	r3, #64
 105              	.LVL2:
 106              	.L6:
 753:Drivers/STM32L4xx_HAL_Driver/Src/stm32l4xx_hal_flash.c **** 
 754:Drivers/STM32L4xx_HAL_Driver/Src/stm32l4xx_hal_flash.c ****   /* Program the double word of the row */
 755:Drivers/STM32L4xx_HAL_Driver/Src/stm32l4xx_hal_flash.c ****   do
 107              		.loc 1 755 3 is_stmt 1 discriminator 1 view .LVU19
 756:Drivers/STM32L4xx_HAL_Driver/Src/stm32l4xx_hal_flash.c ****   {
 757:Drivers/STM32L4xx_HAL_Driver/Src/stm32l4xx_hal_flash.c ****     *dest_addr = *src_addr;
 108              		.loc 1 757 5 discriminator 1 view .LVU20
 109              		.loc 1 757 18 is_stmt 0 discriminator 1 view .LVU21
 110 000e 51F8042B 		ldr	r2, [r1], #4
 111              	.LVL3:
 112              		.loc 1 757 16 discriminator 1 view .LVU22
 113 0012 40F8042B 		str	r2, [r0], #4
 114              	.LVL4:
 758:Drivers/STM32L4xx_HAL_Driver/Src/stm32l4xx_hal_flash.c ****     dest_addr++;
 115              		.loc 1 758 5 is_stmt 1 discriminator 1 view .LVU23
 759:Drivers/STM32L4xx_HAL_Driver/Src/stm32l4xx_hal_flash.c ****     src_addr++;
 116              		.loc 1 759 5 discriminator 1 view .LVU24
 760:Drivers/STM32L4xx_HAL_Driver/Src/stm32l4xx_hal_flash.c ****     row_index--;
 117              		.loc 1 760 5 discriminator 1 view .LVU25
 118              		.loc 1 760 14 is_stmt 0 discriminator 1 view .LVU26
 119 0016 013B     		subs	r3, r3, #1
 120              	.LVL5:
 761:Drivers/STM32L4xx_HAL_Driver/Src/stm32l4xx_hal_flash.c ****   } while (row_index != 0U);
 121              		.loc 1 761 11 is_stmt 1 discriminator 1 view .LVU27
 122              		.loc 1 761 3 is_stmt 0 discriminator 1 view .LVU28
 123 0018 13F0FF03 		ands	r3, r3, #255
 124              	.LVL6:
 125              		.loc 1 761 3 discriminator 1 view .LVU29
 126 001c F7D1     		bne	.L6
 762:Drivers/STM32L4xx_HAL_Driver/Src/stm32l4xx_hal_flash.c **** 
 763:Drivers/STM32L4xx_HAL_Driver/Src/stm32l4xx_hal_flash.c ****   /* Re-enable the interrupts */
 764:Drivers/STM32L4xx_HAL_Driver/Src/stm32l4xx_hal_flash.c ****   __enable_irq();
 127              		.loc 1 764 3 is_stmt 1 view .LVU30
 128              	.LBB8:
 129              	.LBI8:
  58:Drivers/CMSIS/Include/cmsis_gcc.h **** {
 130              		.loc 2 58 57 view .LVU31
 131              	.LBB9:
  60:Drivers/CMSIS/Include/cmsis_gcc.h **** }
 132              		.loc 2 60 3 view .LVU32
 133              		.syntax unified
 134              	@ 60 "Drivers/CMSIS/Include/cmsis_gcc.h" 1
ARM GAS  /tmp/cctJgZ6D.s 			page 18


 135 001e 62B6     		cpsie i
 136              	@ 0 "" 2
 137              		.thumb
 138              		.syntax unified
 139              	.LBE9:
 140              	.LBE8:
 765:Drivers/STM32L4xx_HAL_Driver/Src/stm32l4xx_hal_flash.c **** }
 141              		.loc 1 765 1 is_stmt 0 view .LVU33
 142 0020 7047     		bx	lr
 143              	.L8:
 144 0022 00BF     		.align	2
 145              	.L7:
 146 0024 00200240 		.word	1073881088
 147              		.cfi_endproc
 148              	.LFE136:
 150              		.section	.text.HAL_FLASH_Program_IT,"ax",%progbits
 151              		.align	1
 152              		.global	HAL_FLASH_Program_IT
 153              		.syntax unified
 154              		.thumb
 155              		.thumb_func
 156              		.fpu fpv4-sp-d16
 158              	HAL_FLASH_Program_IT:
 159              	.LVL7:
 160              	.LFB124:
 274:Drivers/STM32L4xx_HAL_Driver/Src/stm32l4xx_hal_flash.c ****   HAL_StatusTypeDef status = HAL_OK;
 161              		.loc 1 274 1 is_stmt 1 view -0
 162              		.cfi_startproc
 163              		@ args = 0, pretend = 0, frame = 0
 164              		@ frame_needed = 0, uses_anonymous_args = 0
 274:Drivers/STM32L4xx_HAL_Driver/Src/stm32l4xx_hal_flash.c ****   HAL_StatusTypeDef status = HAL_OK;
 165              		.loc 1 274 1 is_stmt 0 view .LVU35
 166 0000 70B5     		push	{r4, r5, r6, lr}
 167              	.LCFI2:
 168              		.cfi_def_cfa_offset 16
 169              		.cfi_offset 4, -16
 170              		.cfi_offset 5, -12
 171              		.cfi_offset 6, -8
 172              		.cfi_offset 14, -4
 275:Drivers/STM32L4xx_HAL_Driver/Src/stm32l4xx_hal_flash.c **** 
 173              		.loc 1 275 3 is_stmt 1 view .LVU36
 174              	.LVL8:
 278:Drivers/STM32L4xx_HAL_Driver/Src/stm32l4xx_hal_flash.c **** 
 175              		.loc 1 278 3 view .LVU37
 281:Drivers/STM32L4xx_HAL_Driver/Src/stm32l4xx_hal_flash.c **** 
 176              		.loc 1 281 3 view .LVU38
 281:Drivers/STM32L4xx_HAL_Driver/Src/stm32l4xx_hal_flash.c **** 
 177              		.loc 1 281 3 view .LVU39
 178 0002 1E4D     		ldr	r5, .L22
 179 0004 2D78     		ldrb	r5, [r5]	@ zero_extendqisi2
 180 0006 012D     		cmp	r5, #1
 181 0008 36D0     		beq	.L16
 182 000a 0446     		mov	r4, r0
 183 000c 0846     		mov	r0, r1
 184              	.LVL9:
 281:Drivers/STM32L4xx_HAL_Driver/Src/stm32l4xx_hal_flash.c **** 
 185              		.loc 1 281 3 discriminator 2 view .LVU40
ARM GAS  /tmp/cctJgZ6D.s 			page 19


 186 000e 1B4D     		ldr	r5, .L22
 187 0010 0121     		movs	r1, #1
 188              	.LVL10:
 281:Drivers/STM32L4xx_HAL_Driver/Src/stm32l4xx_hal_flash.c **** 
 189              		.loc 1 281 3 is_stmt 0 discriminator 2 view .LVU41
 190 0012 2970     		strb	r1, [r5]
 281:Drivers/STM32L4xx_HAL_Driver/Src/stm32l4xx_hal_flash.c **** 
 191              		.loc 1 281 3 is_stmt 1 discriminator 2 view .LVU42
 283:Drivers/STM32L4xx_HAL_Driver/Src/stm32l4xx_hal_flash.c **** 
 192              		.loc 1 283 3 discriminator 2 view .LVU43
 283:Drivers/STM32L4xx_HAL_Driver/Src/stm32l4xx_hal_flash.c **** 
 193              		.loc 1 283 20 is_stmt 0 discriminator 2 view .LVU44
 194 0014 0021     		movs	r1, #0
 195 0016 6960     		str	r1, [r5, #4]
 286:Drivers/STM32L4xx_HAL_Driver/Src/stm32l4xx_hal_flash.c ****   {
 196              		.loc 1 286 3 is_stmt 1 discriminator 2 view .LVU45
 286:Drivers/STM32L4xx_HAL_Driver/Src/stm32l4xx_hal_flash.c ****   {
 197              		.loc 1 286 6 is_stmt 0 discriminator 2 view .LVU46
 198 0018 1949     		ldr	r1, .L22+4
 199 001a 0968     		ldr	r1, [r1]
 286:Drivers/STM32L4xx_HAL_Driver/Src/stm32l4xx_hal_flash.c ****   {
 200              		.loc 1 286 5 discriminator 2 view .LVU47
 201 001c 11F4806F 		tst	r1, #1024
 202 0020 19D0     		beq	.L11
 289:Drivers/STM32L4xx_HAL_Driver/Src/stm32l4xx_hal_flash.c ****     pFlash.CacheToReactivate = FLASH_CACHE_DCACHE_ENABLED;
 203              		.loc 1 289 5 is_stmt 1 view .LVU48
 204 0022 174D     		ldr	r5, .L22+4
 205 0024 2968     		ldr	r1, [r5]
 206 0026 21F48061 		bic	r1, r1, #1024
 207 002a 2960     		str	r1, [r5]
 290:Drivers/STM32L4xx_HAL_Driver/Src/stm32l4xx_hal_flash.c ****   }
 208              		.loc 1 290 5 view .LVU49
 290:Drivers/STM32L4xx_HAL_Driver/Src/stm32l4xx_hal_flash.c ****   }
 209              		.loc 1 290 30 is_stmt 0 view .LVU50
 210 002c 1349     		ldr	r1, .L22
 211 002e 0225     		movs	r5, #2
 212 0030 0D77     		strb	r5, [r1, #28]
 213              	.L12:
 298:Drivers/STM32L4xx_HAL_Driver/Src/stm32l4xx_hal_flash.c ****   {
 214              		.loc 1 298 3 is_stmt 1 view .LVU51
 298:Drivers/STM32L4xx_HAL_Driver/Src/stm32l4xx_hal_flash.c ****   {
 215              		.loc 1 298 5 is_stmt 0 view .LVU52
 216 0032 022C     		cmp	r4, #2
 217 0034 13D0     		beq	.L19
 304:Drivers/STM32L4xx_HAL_Driver/Src/stm32l4xx_hal_flash.c ****   }
 218              		.loc 1 304 5 is_stmt 1 view .LVU53
 304:Drivers/STM32L4xx_HAL_Driver/Src/stm32l4xx_hal_flash.c ****   }
 219              		.loc 1 304 29 is_stmt 0 view .LVU54
 220 0036 1149     		ldr	r1, .L22
 221 0038 0325     		movs	r5, #3
 222 003a 0D72     		strb	r5, [r1, #8]
 223              	.L14:
 306:Drivers/STM32L4xx_HAL_Driver/Src/stm32l4xx_hal_flash.c **** 
 224              		.loc 1 306 3 is_stmt 1 view .LVU55
 306:Drivers/STM32L4xx_HAL_Driver/Src/stm32l4xx_hal_flash.c **** 
 225              		.loc 1 306 18 is_stmt 0 view .LVU56
 226 003c 0F49     		ldr	r1, .L22
ARM GAS  /tmp/cctJgZ6D.s 			page 20


 227 003e C860     		str	r0, [r1, #12]
 309:Drivers/STM32L4xx_HAL_Driver/Src/stm32l4xx_hal_flash.c **** 
 228              		.loc 1 309 3 is_stmt 1 view .LVU57
 309:Drivers/STM32L4xx_HAL_Driver/Src/stm32l4xx_hal_flash.c **** 
 229              		.loc 1 309 3 view .LVU58
 309:Drivers/STM32L4xx_HAL_Driver/Src/stm32l4xx_hal_flash.c **** 
 230              		.loc 1 309 3 view .LVU59
 309:Drivers/STM32L4xx_HAL_Driver/Src/stm32l4xx_hal_flash.c **** 
 231              		.loc 1 309 3 view .LVU60
 232 0040 0F4E     		ldr	r6, .L22+4
 233 0042 7569     		ldr	r5, [r6, #20]
 234 0044 45F04075 		orr	r5, r5, #50331648
 235 0048 7561     		str	r5, [r6, #20]
 309:Drivers/STM32L4xx_HAL_Driver/Src/stm32l4xx_hal_flash.c **** 
 236              		.loc 1 309 3 view .LVU61
 311:Drivers/STM32L4xx_HAL_Driver/Src/stm32l4xx_hal_flash.c ****   {
 237              		.loc 1 311 3 view .LVU62
 311:Drivers/STM32L4xx_HAL_Driver/Src/stm32l4xx_hal_flash.c ****   {
 238              		.loc 1 311 5 is_stmt 0 view .LVU63
 239 004a 64B1     		cbz	r4, .L20
 316:Drivers/STM32L4xx_HAL_Driver/Src/stm32l4xx_hal_flash.c ****   {
 240              		.loc 1 316 8 is_stmt 1 view .LVU64
 316:Drivers/STM32L4xx_HAL_Driver/Src/stm32l4xx_hal_flash.c ****   {
 241              		.loc 1 316 51 is_stmt 0 view .LVU65
 242 004c 013C     		subs	r4, r4, #1
 243              	.LVL11:
 316:Drivers/STM32L4xx_HAL_Driver/Src/stm32l4xx_hal_flash.c ****   {
 244              		.loc 1 316 10 view .LVU66
 245 004e 012C     		cmp	r4, #1
 246 0050 0DD9     		bls	.L21
 326:Drivers/STM32L4xx_HAL_Driver/Src/stm32l4xx_hal_flash.c **** }
 247              		.loc 1 326 10 view .LVU67
 248 0052 0020     		movs	r0, #0
 249              	.LVL12:
 250              	.L10:
 327:Drivers/STM32L4xx_HAL_Driver/Src/stm32l4xx_hal_flash.c **** 
 251              		.loc 1 327 1 view .LVU68
 252 0054 70BD     		pop	{r4, r5, r6, pc}
 253              	.LVL13:
 254              	.L11:
 294:Drivers/STM32L4xx_HAL_Driver/Src/stm32l4xx_hal_flash.c ****   }
 255              		.loc 1 294 5 is_stmt 1 view .LVU69
 294:Drivers/STM32L4xx_HAL_Driver/Src/stm32l4xx_hal_flash.c ****   }
 256              		.loc 1 294 30 is_stmt 0 view .LVU70
 257 0056 0949     		ldr	r1, .L22
 258 0058 0025     		movs	r5, #0
 259 005a 0D77     		strb	r5, [r1, #28]
 260 005c E9E7     		b	.L12
 261              	.L19:
 300:Drivers/STM32L4xx_HAL_Driver/Src/stm32l4xx_hal_flash.c ****   }
 262              		.loc 1 300 5 is_stmt 1 view .LVU71
 300:Drivers/STM32L4xx_HAL_Driver/Src/stm32l4xx_hal_flash.c ****   }
 263              		.loc 1 300 29 is_stmt 0 view .LVU72
 264 005e 0749     		ldr	r1, .L22
 265 0060 0425     		movs	r5, #4
 266 0062 0D72     		strb	r5, [r1, #8]
 267 0064 EAE7     		b	.L14
ARM GAS  /tmp/cctJgZ6D.s 			page 21


 268              	.L20:
 314:Drivers/STM32L4xx_HAL_Driver/Src/stm32l4xx_hal_flash.c ****   }
 269              		.loc 1 314 5 is_stmt 1 view .LVU73
 270 0066 FFF7FEFF 		bl	FLASH_Program_DoubleWord
 271              	.LVL14:
 326:Drivers/STM32L4xx_HAL_Driver/Src/stm32l4xx_hal_flash.c **** }
 272              		.loc 1 326 10 is_stmt 0 view .LVU74
 273 006a 0020     		movs	r0, #0
 274 006c F2E7     		b	.L10
 275              	.LVL15:
 276              	.L21:
 319:Drivers/STM32L4xx_HAL_Driver/Src/stm32l4xx_hal_flash.c ****   }
 277              		.loc 1 319 5 is_stmt 1 view .LVU75
 278 006e 1146     		mov	r1, r2
 279 0070 FFF7FEFF 		bl	FLASH_Program_Fast
 280              	.LVL16:
 326:Drivers/STM32L4xx_HAL_Driver/Src/stm32l4xx_hal_flash.c **** }
 281              		.loc 1 326 10 is_stmt 0 view .LVU76
 282 0074 0020     		movs	r0, #0
 283 0076 EDE7     		b	.L10
 284              	.LVL17:
 285              	.L16:
 281:Drivers/STM32L4xx_HAL_Driver/Src/stm32l4xx_hal_flash.c **** 
 286              		.loc 1 281 3 view .LVU77
 287 0078 0220     		movs	r0, #2
 288              	.LVL18:
 281:Drivers/STM32L4xx_HAL_Driver/Src/stm32l4xx_hal_flash.c **** 
 289              		.loc 1 281 3 view .LVU78
 290 007a EBE7     		b	.L10
 291              	.L23:
 292              		.align	2
 293              	.L22:
 294 007c 00000000 		.word	.LANCHOR0
 295 0080 00200240 		.word	1073881088
 296              		.cfi_endproc
 297              	.LFE124:
 299              		.section	.text.HAL_FLASH_EndOfOperationCallback,"ax",%progbits
 300              		.align	1
 301              		.weak	HAL_FLASH_EndOfOperationCallback
 302              		.syntax unified
 303              		.thumb
 304              		.thumb_func
 305              		.fpu fpv4-sp-d16
 307              	HAL_FLASH_EndOfOperationCallback:
 308              	.LVL19:
 309              	.LFB126:
 477:Drivers/STM32L4xx_HAL_Driver/Src/stm32l4xx_hal_flash.c ****   /* Prevent unused argument(s) compilation warning */
 310              		.loc 1 477 1 is_stmt 1 view -0
 311              		.cfi_startproc
 312              		@ args = 0, pretend = 0, frame = 0
 313              		@ frame_needed = 0, uses_anonymous_args = 0
 314              		@ link register save eliminated.
 479:Drivers/STM32L4xx_HAL_Driver/Src/stm32l4xx_hal_flash.c **** 
 315              		.loc 1 479 3 view .LVU80
 484:Drivers/STM32L4xx_HAL_Driver/Src/stm32l4xx_hal_flash.c **** 
 316              		.loc 1 484 1 is_stmt 0 view .LVU81
 317 0000 7047     		bx	lr
ARM GAS  /tmp/cctJgZ6D.s 			page 22


 318              		.cfi_endproc
 319              	.LFE126:
 321              		.section	.text.HAL_FLASH_OperationErrorCallback,"ax",%progbits
 322              		.align	1
 323              		.weak	HAL_FLASH_OperationErrorCallback
 324              		.syntax unified
 325              		.thumb
 326              		.thumb_func
 327              		.fpu fpv4-sp-d16
 329              	HAL_FLASH_OperationErrorCallback:
 330              	.LVL20:
 331              	.LFB127:
 495:Drivers/STM32L4xx_HAL_Driver/Src/stm32l4xx_hal_flash.c ****   /* Prevent unused argument(s) compilation warning */
 332              		.loc 1 495 1 is_stmt 1 view -0
 333              		.cfi_startproc
 334              		@ args = 0, pretend = 0, frame = 0
 335              		@ frame_needed = 0, uses_anonymous_args = 0
 336              		@ link register save eliminated.
 497:Drivers/STM32L4xx_HAL_Driver/Src/stm32l4xx_hal_flash.c **** 
 337              		.loc 1 497 3 view .LVU83
 502:Drivers/STM32L4xx_HAL_Driver/Src/stm32l4xx_hal_flash.c **** 
 338              		.loc 1 502 1 is_stmt 0 view .LVU84
 339 0000 7047     		bx	lr
 340              		.cfi_endproc
 341              	.LFE127:
 343              		.section	.text.HAL_FLASH_IRQHandler,"ax",%progbits
 344              		.align	1
 345              		.global	HAL_FLASH_IRQHandler
 346              		.syntax unified
 347              		.thumb
 348              		.thumb_func
 349              		.fpu fpv4-sp-d16
 351              	HAL_FLASH_IRQHandler:
 352              	.LFB125:
 334:Drivers/STM32L4xx_HAL_Driver/Src/stm32l4xx_hal_flash.c ****   uint32_t tmp_page;
 353              		.loc 1 334 1 is_stmt 1 view -0
 354              		.cfi_startproc
 355              		@ args = 0, pretend = 0, frame = 0
 356              		@ frame_needed = 0, uses_anonymous_args = 0
 357 0000 10B5     		push	{r4, lr}
 358              	.LCFI3:
 359              		.cfi_def_cfa_offset 8
 360              		.cfi_offset 4, -8
 361              		.cfi_offset 14, -4
 335:Drivers/STM32L4xx_HAL_Driver/Src/stm32l4xx_hal_flash.c ****   uint32_t error;
 362              		.loc 1 335 3 view .LVU86
 336:Drivers/STM32L4xx_HAL_Driver/Src/stm32l4xx_hal_flash.c ****   FLASH_ProcedureTypeDef procedure;
 363              		.loc 1 336 3 view .LVU87
 337:Drivers/STM32L4xx_HAL_Driver/Src/stm32l4xx_hal_flash.c **** 
 364              		.loc 1 337 3 view .LVU88
 340:Drivers/STM32L4xx_HAL_Driver/Src/stm32l4xx_hal_flash.c **** #if defined (STM32L471xx) || defined (STM32L475xx) || defined (STM32L476xx) || defined (STM32L485xx
 365              		.loc 1 340 3 view .LVU89
 366 0002 504A     		ldr	r2, .L48
 367 0004 5369     		ldr	r3, [r2, #20]
 368 0006 23F4FF63 		bic	r3, r3, #2040
 369 000a 23F00703 		bic	r3, r3, #7
 370 000e 5361     		str	r3, [r2, #20]
ARM GAS  /tmp/cctJgZ6D.s 			page 23


 348:Drivers/STM32L4xx_HAL_Driver/Src/stm32l4xx_hal_flash.c ****   {
 371              		.loc 1 348 3 view .LVU90
 348:Drivers/STM32L4xx_HAL_Driver/Src/stm32l4xx_hal_flash.c ****   {
 372              		.loc 1 348 12 is_stmt 0 view .LVU91
 373 0010 4D4B     		ldr	r3, .L48+4
 374 0012 1B7A     		ldrb	r3, [r3, #8]	@ zero_extendqisi2
 375 0014 DBB2     		uxtb	r3, r3
 348:Drivers/STM32L4xx_HAL_Driver/Src/stm32l4xx_hal_flash.c ****   {
 376              		.loc 1 348 5 view .LVU92
 377 0016 042B     		cmp	r3, #4
 378 0018 50D0     		beq	.L42
 379              	.L27:
 354:Drivers/STM32L4xx_HAL_Driver/Src/stm32l4xx_hal_flash.c ****   error |= (FLASH->ECCR & FLASH_FLAG_ECCC);
 380              		.loc 1 354 3 is_stmt 1 view .LVU93
 354:Drivers/STM32L4xx_HAL_Driver/Src/stm32l4xx_hal_flash.c ****   error |= (FLASH->ECCR & FLASH_FLAG_ECCC);
 381              		.loc 1 354 17 is_stmt 0 view .LVU94
 382 001a 4A4A     		ldr	r2, .L48
 383 001c 1369     		ldr	r3, [r2, #16]
 354:Drivers/STM32L4xx_HAL_Driver/Src/stm32l4xx_hal_flash.c ****   error |= (FLASH->ECCR & FLASH_FLAG_ECCC);
 384              		.loc 1 354 9 view .LVU95
 385 001e 23F07F43 		bic	r3, r3, #-16777216
 386 0022 23F47D03 		bic	r3, r3, #16580608
 387 0026 23F47053 		bic	r3, r3, #15360
 388 002a 23F00503 		bic	r3, r3, #5
 389              	.LVL21:
 355:Drivers/STM32L4xx_HAL_Driver/Src/stm32l4xx_hal_flash.c **** 
 390              		.loc 1 355 3 is_stmt 1 view .LVU96
 355:Drivers/STM32L4xx_HAL_Driver/Src/stm32l4xx_hal_flash.c **** 
 391              		.loc 1 355 18 is_stmt 0 view .LVU97
 392 002e 9269     		ldr	r2, [r2, #24]
 355:Drivers/STM32L4xx_HAL_Driver/Src/stm32l4xx_hal_flash.c **** 
 393              		.loc 1 355 25 view .LVU98
 394 0030 02F08042 		and	r2, r2, #1073741824
 395              	.LVL22:
 357:Drivers/STM32L4xx_HAL_Driver/Src/stm32l4xx_hal_flash.c ****   {
 396              		.loc 1 357 3 is_stmt 1 view .LVU99
 357:Drivers/STM32L4xx_HAL_Driver/Src/stm32l4xx_hal_flash.c ****   {
 397              		.loc 1 357 6 is_stmt 0 view .LVU100
 398 0034 1343     		orrs	r3, r3, r2
 399              	.LVL23:
 357:Drivers/STM32L4xx_HAL_Driver/Src/stm32l4xx_hal_flash.c ****   {
 400              		.loc 1 357 6 view .LVU101
 401 0036 22D0     		beq	.L28
 360:Drivers/STM32L4xx_HAL_Driver/Src/stm32l4xx_hal_flash.c **** 
 402              		.loc 1 360 5 is_stmt 1 view .LVU102
 360:Drivers/STM32L4xx_HAL_Driver/Src/stm32l4xx_hal_flash.c **** 
 403              		.loc 1 360 22 is_stmt 0 view .LVU103
 404 0038 4349     		ldr	r1, .L48+4
 405 003a 4A68     		ldr	r2, [r1, #4]
 406 003c 1A43     		orrs	r2, r2, r3
 407 003e 4A60     		str	r2, [r1, #4]
 363:Drivers/STM32L4xx_HAL_Driver/Src/stm32l4xx_hal_flash.c **** 
 408              		.loc 1 363 5 is_stmt 1 view .LVU104
 363:Drivers/STM32L4xx_HAL_Driver/Src/stm32l4xx_hal_flash.c **** 
 409              		.loc 1 363 5 view .LVU105
 410 0040 13F04042 		ands	r2, r3, #-1073741824
 411 0044 03D0     		beq	.L29
ARM GAS  /tmp/cctJgZ6D.s 			page 24


 363:Drivers/STM32L4xx_HAL_Driver/Src/stm32l4xx_hal_flash.c **** 
 412              		.loc 1 363 5 discriminator 1 view .LVU106
 413 0046 3F49     		ldr	r1, .L48
 414 0048 8869     		ldr	r0, [r1, #24]
 415 004a 0243     		orrs	r2, r2, r0
 416 004c 8A61     		str	r2, [r1, #24]
 417              	.L29:
 363:Drivers/STM32L4xx_HAL_Driver/Src/stm32l4xx_hal_flash.c **** 
 418              		.loc 1 363 5 discriminator 3 view .LVU107
 419 004e 33F04043 		bics	r3, r3, #-1073741824
 420              	.LVL24:
 363:Drivers/STM32L4xx_HAL_Driver/Src/stm32l4xx_hal_flash.c **** 
 421              		.loc 1 363 5 is_stmt 0 discriminator 3 view .LVU108
 422 0052 01D0     		beq	.L30
 363:Drivers/STM32L4xx_HAL_Driver/Src/stm32l4xx_hal_flash.c **** 
 423              		.loc 1 363 5 is_stmt 1 discriminator 4 view .LVU109
 424 0054 3B4A     		ldr	r2, .L48
 425 0056 1361     		str	r3, [r2, #16]
 426              	.L30:
 363:Drivers/STM32L4xx_HAL_Driver/Src/stm32l4xx_hal_flash.c **** 
 427              		.loc 1 363 5 discriminator 6 view .LVU110
 366:Drivers/STM32L4xx_HAL_Driver/Src/stm32l4xx_hal_flash.c **** 
 428              		.loc 1 366 5 discriminator 6 view .LVU111
 429 0058 FFF7FEFF 		bl	FLASH_FlushCaches
 430              	.LVL25:
 369:Drivers/STM32L4xx_HAL_Driver/Src/stm32l4xx_hal_flash.c ****     if(procedure == FLASH_PROC_PAGE_ERASE)
 431              		.loc 1 369 5 discriminator 6 view .LVU112
 369:Drivers/STM32L4xx_HAL_Driver/Src/stm32l4xx_hal_flash.c ****     if(procedure == FLASH_PROC_PAGE_ERASE)
 432              		.loc 1 369 15 is_stmt 0 discriminator 6 view .LVU113
 433 005c 3A4B     		ldr	r3, .L48+4
 434 005e 1B7A     		ldrb	r3, [r3, #8]	@ zero_extendqisi2
 435 0060 DBB2     		uxtb	r3, r3
 436              	.LVL26:
 370:Drivers/STM32L4xx_HAL_Driver/Src/stm32l4xx_hal_flash.c ****     {
 437              		.loc 1 370 5 is_stmt 1 discriminator 6 view .LVU114
 370:Drivers/STM32L4xx_HAL_Driver/Src/stm32l4xx_hal_flash.c ****     {
 438              		.loc 1 370 7 is_stmt 0 discriminator 6 view .LVU115
 439 0062 012B     		cmp	r3, #1
 440 0064 2FD0     		beq	.L43
 374:Drivers/STM32L4xx_HAL_Driver/Src/stm32l4xx_hal_flash.c ****     {
 441              		.loc 1 374 10 is_stmt 1 view .LVU116
 374:Drivers/STM32L4xx_HAL_Driver/Src/stm32l4xx_hal_flash.c ****     {
 442              		.loc 1 374 12 is_stmt 0 view .LVU117
 443 0066 022B     		cmp	r3, #2
 444 0068 32D0     		beq	.L44
 378:Drivers/STM32L4xx_HAL_Driver/Src/stm32l4xx_hal_flash.c ****             (procedure == FLASH_PROC_PROGRAM_LAST))
 445              		.loc 1 378 10 is_stmt 1 view .LVU118
 378:Drivers/STM32L4xx_HAL_Driver/Src/stm32l4xx_hal_flash.c ****             (procedure == FLASH_PROC_PROGRAM_LAST))
 446              		.loc 1 378 47 is_stmt 0 view .LVU119
 447 006a 033B     		subs	r3, r3, #3
 448              	.LVL27:
 378:Drivers/STM32L4xx_HAL_Driver/Src/stm32l4xx_hal_flash.c ****             (procedure == FLASH_PROC_PROGRAM_LAST))
 449              		.loc 1 378 47 view .LVU120
 450 006c DBB2     		uxtb	r3, r3
 451              	.LVL28:
 378:Drivers/STM32L4xx_HAL_Driver/Src/stm32l4xx_hal_flash.c ****             (procedure == FLASH_PROC_PROGRAM_LAST))
 452              		.loc 1 378 12 view .LVU121
ARM GAS  /tmp/cctJgZ6D.s 			page 25


 453 006e 012B     		cmp	r3, #1
 454 0070 33D9     		bls	.L45
 385:Drivers/STM32L4xx_HAL_Driver/Src/stm32l4xx_hal_flash.c ****     }
 455              		.loc 1 385 8 is_stmt 1 view .LVU122
 456 0072 0020     		movs	r0, #0
 457 0074 FFF7FEFF 		bl	HAL_FLASH_OperationErrorCallback
 458              	.LVL29:
 459              	.L32:
 389:Drivers/STM32L4xx_HAL_Driver/Src/stm32l4xx_hal_flash.c ****   }
 460              		.loc 1 389 5 view .LVU123
 389:Drivers/STM32L4xx_HAL_Driver/Src/stm32l4xx_hal_flash.c ****   }
 461              		.loc 1 389 29 is_stmt 0 view .LVU124
 462 0078 334B     		ldr	r3, .L48+4
 463 007a 0022     		movs	r2, #0
 464 007c 1A72     		strb	r2, [r3, #8]
 465              	.L28:
 393:Drivers/STM32L4xx_HAL_Driver/Src/stm32l4xx_hal_flash.c ****   {
 466              		.loc 1 393 3 is_stmt 1 view .LVU125
 393:Drivers/STM32L4xx_HAL_Driver/Src/stm32l4xx_hal_flash.c ****   {
 467              		.loc 1 393 6 is_stmt 0 view .LVU126
 468 007e 314B     		ldr	r3, .L48
 469 0080 1B69     		ldr	r3, [r3, #16]
 393:Drivers/STM32L4xx_HAL_Driver/Src/stm32l4xx_hal_flash.c ****   {
 470              		.loc 1 393 5 view .LVU127
 471 0082 13F0010F 		tst	r3, #1
 472 0086 47D0     		beq	.L35
 396:Drivers/STM32L4xx_HAL_Driver/Src/stm32l4xx_hal_flash.c **** 
 473              		.loc 1 396 5 is_stmt 1 discriminator 4 view .LVU128
 396:Drivers/STM32L4xx_HAL_Driver/Src/stm32l4xx_hal_flash.c **** 
 474              		.loc 1 396 5 discriminator 4 view .LVU129
 396:Drivers/STM32L4xx_HAL_Driver/Src/stm32l4xx_hal_flash.c **** 
 475              		.loc 1 396 5 discriminator 4 view .LVU130
 396:Drivers/STM32L4xx_HAL_Driver/Src/stm32l4xx_hal_flash.c **** 
 476              		.loc 1 396 5 discriminator 4 view .LVU131
 477 0088 2E4B     		ldr	r3, .L48
 478 008a 0122     		movs	r2, #1
 479 008c 1A61     		str	r2, [r3, #16]
 396:Drivers/STM32L4xx_HAL_Driver/Src/stm32l4xx_hal_flash.c **** 
 480              		.loc 1 396 5 discriminator 4 view .LVU132
 398:Drivers/STM32L4xx_HAL_Driver/Src/stm32l4xx_hal_flash.c ****     {
 481              		.loc 1 398 5 discriminator 4 view .LVU133
 398:Drivers/STM32L4xx_HAL_Driver/Src/stm32l4xx_hal_flash.c ****     {
 482              		.loc 1 398 14 is_stmt 0 discriminator 4 view .LVU134
 483 008e 2E4B     		ldr	r3, .L48+4
 484 0090 1B7A     		ldrb	r3, [r3, #8]	@ zero_extendqisi2
 485 0092 DBB2     		uxtb	r3, r3
 398:Drivers/STM32L4xx_HAL_Driver/Src/stm32l4xx_hal_flash.c ****     {
 486              		.loc 1 398 7 discriminator 4 view .LVU135
 487 0094 9342     		cmp	r3, r2
 488 0096 31D1     		bne	.L36
 401:Drivers/STM32L4xx_HAL_Driver/Src/stm32l4xx_hal_flash.c **** 
 489              		.loc 1 401 7 is_stmt 1 view .LVU136
 401:Drivers/STM32L4xx_HAL_Driver/Src/stm32l4xx_hal_flash.c **** 
 490              		.loc 1 401 13 is_stmt 0 view .LVU137
 491 0098 2B4B     		ldr	r3, .L48+4
 492 009a 9A69     		ldr	r2, [r3, #24]
 401:Drivers/STM32L4xx_HAL_Driver/Src/stm32l4xx_hal_flash.c **** 
ARM GAS  /tmp/cctJgZ6D.s 			page 26


 493              		.loc 1 401 28 view .LVU138
 494 009c 013A     		subs	r2, r2, #1
 495 009e 9A61     		str	r2, [r3, #24]
 404:Drivers/STM32L4xx_HAL_Driver/Src/stm32l4xx_hal_flash.c ****       {
 496              		.loc 1 404 7 is_stmt 1 view .LVU139
 404:Drivers/STM32L4xx_HAL_Driver/Src/stm32l4xx_hal_flash.c ****       {
 497              		.loc 1 404 16 is_stmt 0 view .LVU140
 498 00a0 9B69     		ldr	r3, [r3, #24]
 404:Drivers/STM32L4xx_HAL_Driver/Src/stm32l4xx_hal_flash.c ****       {
 499              		.loc 1 404 9 view .LVU141
 500 00a2 FBB1     		cbz	r3, .L37
 407:Drivers/STM32L4xx_HAL_Driver/Src/stm32l4xx_hal_flash.c **** 
 501              		.loc 1 407 9 is_stmt 1 view .LVU142
 502 00a4 284C     		ldr	r4, .L48+4
 503 00a6 6069     		ldr	r0, [r4, #20]
 504 00a8 FFF7FEFF 		bl	HAL_FLASH_EndOfOperationCallback
 505              	.LVL30:
 410:Drivers/STM32L4xx_HAL_Driver/Src/stm32l4xx_hal_flash.c ****         tmp_page = pFlash.Page;
 506              		.loc 1 410 9 view .LVU143
 410:Drivers/STM32L4xx_HAL_Driver/Src/stm32l4xx_hal_flash.c ****         tmp_page = pFlash.Page;
 507              		.loc 1 410 15 is_stmt 0 view .LVU144
 508 00ac 6369     		ldr	r3, [r4, #20]
 410:Drivers/STM32L4xx_HAL_Driver/Src/stm32l4xx_hal_flash.c ****         tmp_page = pFlash.Page;
 509              		.loc 1 410 20 view .LVU145
 510 00ae 0133     		adds	r3, r3, #1
 511 00b0 6361     		str	r3, [r4, #20]
 411:Drivers/STM32L4xx_HAL_Driver/Src/stm32l4xx_hal_flash.c ****         FLASH_PageErase(tmp_page, pFlash.Bank);
 512              		.loc 1 411 9 is_stmt 1 view .LVU146
 411:Drivers/STM32L4xx_HAL_Driver/Src/stm32l4xx_hal_flash.c ****         FLASH_PageErase(tmp_page, pFlash.Bank);
 513              		.loc 1 411 18 is_stmt 0 view .LVU147
 514 00b2 6069     		ldr	r0, [r4, #20]
 515              	.LVL31:
 412:Drivers/STM32L4xx_HAL_Driver/Src/stm32l4xx_hal_flash.c ****       }
 516              		.loc 1 412 9 is_stmt 1 view .LVU148
 517 00b4 2169     		ldr	r1, [r4, #16]
 518 00b6 FFF7FEFF 		bl	FLASH_PageErase
 519              	.LVL32:
 412:Drivers/STM32L4xx_HAL_Driver/Src/stm32l4xx_hal_flash.c ****       }
 520              		.loc 1 412 9 is_stmt 0 view .LVU149
 521 00ba 2DE0     		b	.L35
 522              	.L42:
 350:Drivers/STM32L4xx_HAL_Driver/Src/stm32l4xx_hal_flash.c ****   }
 523              		.loc 1 350 5 is_stmt 1 view .LVU150
 524 00bc 5369     		ldr	r3, [r2, #20]
 525 00be 23F48023 		bic	r3, r3, #262144
 526 00c2 5361     		str	r3, [r2, #20]
 527 00c4 A9E7     		b	.L27
 528              	.LVL33:
 529              	.L43:
 372:Drivers/STM32L4xx_HAL_Driver/Src/stm32l4xx_hal_flash.c ****     }
 530              		.loc 1 372 8 view .LVU151
 531 00c6 204B     		ldr	r3, .L48+4
 532              	.LVL34:
 372:Drivers/STM32L4xx_HAL_Driver/Src/stm32l4xx_hal_flash.c ****     }
 533              		.loc 1 372 8 is_stmt 0 view .LVU152
 534 00c8 5869     		ldr	r0, [r3, #20]
 535 00ca FFF7FEFF 		bl	HAL_FLASH_OperationErrorCallback
ARM GAS  /tmp/cctJgZ6D.s 			page 27


 536              	.LVL35:
 372:Drivers/STM32L4xx_HAL_Driver/Src/stm32l4xx_hal_flash.c ****     }
 537              		.loc 1 372 8 view .LVU153
 538 00ce D3E7     		b	.L32
 539              	.LVL36:
 540              	.L44:
 376:Drivers/STM32L4xx_HAL_Driver/Src/stm32l4xx_hal_flash.c ****     }
 541              		.loc 1 376 9 is_stmt 1 view .LVU154
 542 00d0 1D4B     		ldr	r3, .L48+4
 543              	.LVL37:
 376:Drivers/STM32L4xx_HAL_Driver/Src/stm32l4xx_hal_flash.c ****     }
 544              		.loc 1 376 9 is_stmt 0 view .LVU155
 545 00d2 1869     		ldr	r0, [r3, #16]
 546 00d4 FFF7FEFF 		bl	HAL_FLASH_OperationErrorCallback
 547              	.LVL38:
 376:Drivers/STM32L4xx_HAL_Driver/Src/stm32l4xx_hal_flash.c ****     }
 548              		.loc 1 376 9 view .LVU156
 549 00d8 CEE7     		b	.L32
 550              	.LVL39:
 551              	.L45:
 381:Drivers/STM32L4xx_HAL_Driver/Src/stm32l4xx_hal_flash.c ****     }
 552              		.loc 1 381 8 is_stmt 1 view .LVU157
 553 00da 1B4B     		ldr	r3, .L48+4
 554 00dc D868     		ldr	r0, [r3, #12]
 555 00de FFF7FEFF 		bl	HAL_FLASH_OperationErrorCallback
 556              	.LVL40:
 381:Drivers/STM32L4xx_HAL_Driver/Src/stm32l4xx_hal_flash.c ****     }
 557              		.loc 1 381 8 is_stmt 0 view .LVU158
 558 00e2 C9E7     		b	.L32
 559              	.L37:
 418:Drivers/STM32L4xx_HAL_Driver/Src/stm32l4xx_hal_flash.c ****         pFlash.ProcedureOnGoing = FLASH_PROC_NONE;
 560              		.loc 1 418 9 is_stmt 1 view .LVU159
 418:Drivers/STM32L4xx_HAL_Driver/Src/stm32l4xx_hal_flash.c ****         pFlash.ProcedureOnGoing = FLASH_PROC_NONE;
 561              		.loc 1 418 21 is_stmt 0 view .LVU160
 562 00e4 184C     		ldr	r4, .L48+4
 563 00e6 4FF0FF33 		mov	r3, #-1
 564 00ea 6361     		str	r3, [r4, #20]
 419:Drivers/STM32L4xx_HAL_Driver/Src/stm32l4xx_hal_flash.c **** 
 565              		.loc 1 419 9 is_stmt 1 view .LVU161
 419:Drivers/STM32L4xx_HAL_Driver/Src/stm32l4xx_hal_flash.c **** 
 566              		.loc 1 419 33 is_stmt 0 view .LVU162
 567 00ec 0023     		movs	r3, #0
 568 00ee 2372     		strb	r3, [r4, #8]
 422:Drivers/STM32L4xx_HAL_Driver/Src/stm32l4xx_hal_flash.c **** 
 569              		.loc 1 422 9 is_stmt 1 view .LVU163
 570 00f0 FFF7FEFF 		bl	FLASH_FlushCaches
 571              	.LVL41:
 425:Drivers/STM32L4xx_HAL_Driver/Src/stm32l4xx_hal_flash.c ****       }
 572              		.loc 1 425 9 view .LVU164
 573 00f4 6069     		ldr	r0, [r4, #20]
 574 00f6 FFF7FEFF 		bl	HAL_FLASH_EndOfOperationCallback
 575              	.LVL42:
 576 00fa 0DE0     		b	.L35
 577              	.L36:
 431:Drivers/STM32L4xx_HAL_Driver/Src/stm32l4xx_hal_flash.c **** 
 578              		.loc 1 431 7 view .LVU165
 579 00fc FFF7FEFF 		bl	FLASH_FlushCaches
ARM GAS  /tmp/cctJgZ6D.s 			page 28


 580              	.LVL43:
 433:Drivers/STM32L4xx_HAL_Driver/Src/stm32l4xx_hal_flash.c ****       if(procedure == FLASH_PROC_MASS_ERASE)
 581              		.loc 1 433 7 view .LVU166
 433:Drivers/STM32L4xx_HAL_Driver/Src/stm32l4xx_hal_flash.c ****       if(procedure == FLASH_PROC_MASS_ERASE)
 582              		.loc 1 433 17 is_stmt 0 view .LVU167
 583 0100 114B     		ldr	r3, .L48+4
 584 0102 1B7A     		ldrb	r3, [r3, #8]	@ zero_extendqisi2
 585 0104 DBB2     		uxtb	r3, r3
 586              	.LVL44:
 434:Drivers/STM32L4xx_HAL_Driver/Src/stm32l4xx_hal_flash.c ****       {
 587              		.loc 1 434 7 is_stmt 1 view .LVU168
 434:Drivers/STM32L4xx_HAL_Driver/Src/stm32l4xx_hal_flash.c ****       {
 588              		.loc 1 434 9 is_stmt 0 view .LVU169
 589 0106 022B     		cmp	r3, #2
 590 0108 12D0     		beq	.L46
 440:Drivers/STM32L4xx_HAL_Driver/Src/stm32l4xx_hal_flash.c ****               (procedure == FLASH_PROC_PROGRAM_LAST))
 591              		.loc 1 440 12 is_stmt 1 view .LVU170
 440:Drivers/STM32L4xx_HAL_Driver/Src/stm32l4xx_hal_flash.c ****               (procedure == FLASH_PROC_PROGRAM_LAST))
 592              		.loc 1 440 49 is_stmt 0 view .LVU171
 593 010a 033B     		subs	r3, r3, #3
 594              	.LVL45:
 440:Drivers/STM32L4xx_HAL_Driver/Src/stm32l4xx_hal_flash.c ****               (procedure == FLASH_PROC_PROGRAM_LAST))
 595              		.loc 1 440 49 view .LVU172
 596 010c DBB2     		uxtb	r3, r3
 597              	.LVL46:
 440:Drivers/STM32L4xx_HAL_Driver/Src/stm32l4xx_hal_flash.c ****               (procedure == FLASH_PROC_PROGRAM_LAST))
 598              		.loc 1 440 14 view .LVU173
 599 010e 012B     		cmp	r3, #1
 600 0110 13D9     		bls	.L47
 601              	.LVL47:
 602              	.L39:
 450:Drivers/STM32L4xx_HAL_Driver/Src/stm32l4xx_hal_flash.c **** 
 603              		.loc 1 450 7 is_stmt 1 view .LVU174
 453:Drivers/STM32L4xx_HAL_Driver/Src/stm32l4xx_hal_flash.c ****     }
 604              		.loc 1 453 7 view .LVU175
 453:Drivers/STM32L4xx_HAL_Driver/Src/stm32l4xx_hal_flash.c ****     }
 605              		.loc 1 453 31 is_stmt 0 view .LVU176
 606 0112 0D4B     		ldr	r3, .L48+4
 607 0114 0022     		movs	r2, #0
 608 0116 1A72     		strb	r2, [r3, #8]
 609              	.L35:
 457:Drivers/STM32L4xx_HAL_Driver/Src/stm32l4xx_hal_flash.c ****   {
 610              		.loc 1 457 3 is_stmt 1 view .LVU177
 457:Drivers/STM32L4xx_HAL_Driver/Src/stm32l4xx_hal_flash.c ****   {
 611              		.loc 1 457 12 is_stmt 0 view .LVU178
 612 0118 0B4B     		ldr	r3, .L48+4
 613 011a 1B7A     		ldrb	r3, [r3, #8]	@ zero_extendqisi2
 457:Drivers/STM32L4xx_HAL_Driver/Src/stm32l4xx_hal_flash.c ****   {
 614              		.loc 1 457 5 view .LVU179
 615 011c 3BB9     		cbnz	r3, .L26
 460:Drivers/STM32L4xx_HAL_Driver/Src/stm32l4xx_hal_flash.c **** 
 616              		.loc 1 460 5 is_stmt 1 discriminator 4 view .LVU180
 460:Drivers/STM32L4xx_HAL_Driver/Src/stm32l4xx_hal_flash.c **** 
 617              		.loc 1 460 5 discriminator 4 view .LVU181
 460:Drivers/STM32L4xx_HAL_Driver/Src/stm32l4xx_hal_flash.c **** 
 618              		.loc 1 460 5 discriminator 4 view .LVU182
 460:Drivers/STM32L4xx_HAL_Driver/Src/stm32l4xx_hal_flash.c **** 
ARM GAS  /tmp/cctJgZ6D.s 			page 29


 619              		.loc 1 460 5 discriminator 4 view .LVU183
 620 011e 094A     		ldr	r2, .L48
 621 0120 5369     		ldr	r3, [r2, #20]
 622 0122 23F04073 		bic	r3, r3, #50331648
 623 0126 5361     		str	r3, [r2, #20]
 460:Drivers/STM32L4xx_HAL_Driver/Src/stm32l4xx_hal_flash.c **** 
 624              		.loc 1 460 5 discriminator 4 view .LVU184
 463:Drivers/STM32L4xx_HAL_Driver/Src/stm32l4xx_hal_flash.c ****   }
 625              		.loc 1 463 5 discriminator 4 view .LVU185
 463:Drivers/STM32L4xx_HAL_Driver/Src/stm32l4xx_hal_flash.c ****   }
 626              		.loc 1 463 5 discriminator 4 view .LVU186
 627 0128 074B     		ldr	r3, .L48+4
 628 012a 0022     		movs	r2, #0
 629 012c 1A70     		strb	r2, [r3]
 463:Drivers/STM32L4xx_HAL_Driver/Src/stm32l4xx_hal_flash.c ****   }
 630              		.loc 1 463 5 discriminator 4 view .LVU187
 631              	.L26:
 465:Drivers/STM32L4xx_HAL_Driver/Src/stm32l4xx_hal_flash.c **** 
 632              		.loc 1 465 1 is_stmt 0 view .LVU188
 633 012e 10BD     		pop	{r4, pc}
 634              	.LVL48:
 635              	.L46:
 438:Drivers/STM32L4xx_HAL_Driver/Src/stm32l4xx_hal_flash.c ****       }
 636              		.loc 1 438 9 is_stmt 1 view .LVU189
 637 0130 054B     		ldr	r3, .L48+4
 638              	.LVL49:
 438:Drivers/STM32L4xx_HAL_Driver/Src/stm32l4xx_hal_flash.c ****       }
 639              		.loc 1 438 9 is_stmt 0 view .LVU190
 640 0132 1869     		ldr	r0, [r3, #16]
 641 0134 FFF7FEFF 		bl	HAL_FLASH_EndOfOperationCallback
 642              	.LVL50:
 438:Drivers/STM32L4xx_HAL_Driver/Src/stm32l4xx_hal_flash.c ****       }
 643              		.loc 1 438 9 view .LVU191
 644 0138 EBE7     		b	.L39
 645              	.LVL51:
 646              	.L47:
 445:Drivers/STM32L4xx_HAL_Driver/Src/stm32l4xx_hal_flash.c ****       }
 647              		.loc 1 445 9 is_stmt 1 view .LVU192
 648 013a 034B     		ldr	r3, .L48+4
 649 013c D868     		ldr	r0, [r3, #12]
 650 013e FFF7FEFF 		bl	HAL_FLASH_EndOfOperationCallback
 651              	.LVL52:
 445:Drivers/STM32L4xx_HAL_Driver/Src/stm32l4xx_hal_flash.c ****       }
 652              		.loc 1 445 9 is_stmt 0 view .LVU193
 653 0142 E6E7     		b	.L39
 654              	.L49:
 655              		.align	2
 656              	.L48:
 657 0144 00200240 		.word	1073881088
 658 0148 00000000 		.word	.LANCHOR0
 659              		.cfi_endproc
 660              	.LFE125:
 662              		.section	.text.HAL_FLASH_Unlock,"ax",%progbits
 663              		.align	1
 664              		.global	HAL_FLASH_Unlock
 665              		.syntax unified
 666              		.thumb
ARM GAS  /tmp/cctJgZ6D.s 			page 30


 667              		.thumb_func
 668              		.fpu fpv4-sp-d16
 670              	HAL_FLASH_Unlock:
 671              	.LFB128:
 528:Drivers/STM32L4xx_HAL_Driver/Src/stm32l4xx_hal_flash.c ****   HAL_StatusTypeDef status = HAL_OK;
 672              		.loc 1 528 1 is_stmt 1 view -0
 673              		.cfi_startproc
 674              		@ args = 0, pretend = 0, frame = 0
 675              		@ frame_needed = 0, uses_anonymous_args = 0
 676              		@ link register save eliminated.
 529:Drivers/STM32L4xx_HAL_Driver/Src/stm32l4xx_hal_flash.c **** 
 677              		.loc 1 529 3 view .LVU195
 678              	.LVL53:
 531:Drivers/STM32L4xx_HAL_Driver/Src/stm32l4xx_hal_flash.c ****   {
 679              		.loc 1 531 3 view .LVU196
 531:Drivers/STM32L4xx_HAL_Driver/Src/stm32l4xx_hal_flash.c ****   {
 680              		.loc 1 531 6 is_stmt 0 view .LVU197
 681 0000 094B     		ldr	r3, .L55
 682 0002 5B69     		ldr	r3, [r3, #20]
 531:Drivers/STM32L4xx_HAL_Driver/Src/stm32l4xx_hal_flash.c ****   {
 683              		.loc 1 531 5 view .LVU198
 684 0004 002B     		cmp	r3, #0
 685 0006 01DB     		blt	.L54
 529:Drivers/STM32L4xx_HAL_Driver/Src/stm32l4xx_hal_flash.c **** 
 686              		.loc 1 529 21 view .LVU199
 687 0008 0020     		movs	r0, #0
 688 000a 7047     		bx	lr
 689              	.L54:
 534:Drivers/STM32L4xx_HAL_Driver/Src/stm32l4xx_hal_flash.c ****     WRITE_REG(FLASH->KEYR, FLASH_KEY2);
 690              		.loc 1 534 5 is_stmt 1 view .LVU200
 691 000c 064B     		ldr	r3, .L55
 692 000e 074A     		ldr	r2, .L55+4
 693 0010 9A60     		str	r2, [r3, #8]
 535:Drivers/STM32L4xx_HAL_Driver/Src/stm32l4xx_hal_flash.c **** 
 694              		.loc 1 535 5 view .LVU201
 695 0012 02F18832 		add	r2, r2, #-2004318072
 696 0016 9A60     		str	r2, [r3, #8]
 538:Drivers/STM32L4xx_HAL_Driver/Src/stm32l4xx_hal_flash.c ****     {
 697              		.loc 1 538 5 view .LVU202
 538:Drivers/STM32L4xx_HAL_Driver/Src/stm32l4xx_hal_flash.c ****     {
 698              		.loc 1 538 8 is_stmt 0 view .LVU203
 699 0018 5B69     		ldr	r3, [r3, #20]
 538:Drivers/STM32L4xx_HAL_Driver/Src/stm32l4xx_hal_flash.c ****     {
 700              		.loc 1 538 7 view .LVU204
 701 001a 002B     		cmp	r3, #0
 702 001c 01DB     		blt	.L53
 529:Drivers/STM32L4xx_HAL_Driver/Src/stm32l4xx_hal_flash.c **** 
 703              		.loc 1 529 21 view .LVU205
 704 001e 0020     		movs	r0, #0
 705 0020 7047     		bx	lr
 706              	.L53:
 540:Drivers/STM32L4xx_HAL_Driver/Src/stm32l4xx_hal_flash.c ****     }
 707              		.loc 1 540 14 view .LVU206
 708 0022 0120     		movs	r0, #1
 709              	.LVL54:
 544:Drivers/STM32L4xx_HAL_Driver/Src/stm32l4xx_hal_flash.c **** }
 710              		.loc 1 544 3 is_stmt 1 view .LVU207
ARM GAS  /tmp/cctJgZ6D.s 			page 31


 545:Drivers/STM32L4xx_HAL_Driver/Src/stm32l4xx_hal_flash.c **** 
 711              		.loc 1 545 1 is_stmt 0 view .LVU208
 712 0024 7047     		bx	lr
 713              	.L56:
 714 0026 00BF     		.align	2
 715              	.L55:
 716 0028 00200240 		.word	1073881088
 717 002c 23016745 		.word	1164378403
 718              		.cfi_endproc
 719              	.LFE128:
 721              		.section	.text.HAL_FLASH_Lock,"ax",%progbits
 722              		.align	1
 723              		.global	HAL_FLASH_Lock
 724              		.syntax unified
 725              		.thumb
 726              		.thumb_func
 727              		.fpu fpv4-sp-d16
 729              	HAL_FLASH_Lock:
 730              	.LFB129:
 552:Drivers/STM32L4xx_HAL_Driver/Src/stm32l4xx_hal_flash.c ****   /* Set the LOCK Bit to lock the FLASH Registers access */
 731              		.loc 1 552 1 is_stmt 1 view -0
 732              		.cfi_startproc
 733              		@ args = 0, pretend = 0, frame = 0
 734              		@ frame_needed = 0, uses_anonymous_args = 0
 735              		@ link register save eliminated.
 554:Drivers/STM32L4xx_HAL_Driver/Src/stm32l4xx_hal_flash.c **** 
 736              		.loc 1 554 3 view .LVU210
 737 0000 034A     		ldr	r2, .L58
 738 0002 5369     		ldr	r3, [r2, #20]
 739 0004 43F00043 		orr	r3, r3, #-2147483648
 740 0008 5361     		str	r3, [r2, #20]
 556:Drivers/STM32L4xx_HAL_Driver/Src/stm32l4xx_hal_flash.c **** }
 741              		.loc 1 556 3 view .LVU211
 557:Drivers/STM32L4xx_HAL_Driver/Src/stm32l4xx_hal_flash.c **** 
 742              		.loc 1 557 1 is_stmt 0 view .LVU212
 743 000a 0020     		movs	r0, #0
 744 000c 7047     		bx	lr
 745              	.L59:
 746 000e 00BF     		.align	2
 747              	.L58:
 748 0010 00200240 		.word	1073881088
 749              		.cfi_endproc
 750              	.LFE129:
 752              		.section	.text.HAL_FLASH_OB_Unlock,"ax",%progbits
 753              		.align	1
 754              		.global	HAL_FLASH_OB_Unlock
 755              		.syntax unified
 756              		.thumb
 757              		.thumb_func
 758              		.fpu fpv4-sp-d16
 760              	HAL_FLASH_OB_Unlock:
 761              	.LFB130:
 564:Drivers/STM32L4xx_HAL_Driver/Src/stm32l4xx_hal_flash.c ****   if(READ_BIT(FLASH->CR, FLASH_CR_OPTLOCK) != 0U)
 762              		.loc 1 564 1 is_stmt 1 view -0
 763              		.cfi_startproc
 764              		@ args = 0, pretend = 0, frame = 0
 765              		@ frame_needed = 0, uses_anonymous_args = 0
ARM GAS  /tmp/cctJgZ6D.s 			page 32


 766              		@ link register save eliminated.
 565:Drivers/STM32L4xx_HAL_Driver/Src/stm32l4xx_hal_flash.c ****   {
 767              		.loc 1 565 3 view .LVU214
 565:Drivers/STM32L4xx_HAL_Driver/Src/stm32l4xx_hal_flash.c ****   {
 768              		.loc 1 565 6 is_stmt 0 view .LVU215
 769 0000 074B     		ldr	r3, .L63
 770 0002 5B69     		ldr	r3, [r3, #20]
 565:Drivers/STM32L4xx_HAL_Driver/Src/stm32l4xx_hal_flash.c ****   {
 771              		.loc 1 565 5 view .LVU216
 772 0004 13F0804F 		tst	r3, #1073741824
 773 0008 07D0     		beq	.L62
 568:Drivers/STM32L4xx_HAL_Driver/Src/stm32l4xx_hal_flash.c ****     WRITE_REG(FLASH->OPTKEYR, FLASH_OPTKEY2);
 774              		.loc 1 568 5 is_stmt 1 view .LVU217
 775 000a 054B     		ldr	r3, .L63
 776 000c 054A     		ldr	r2, .L63+4
 777 000e DA60     		str	r2, [r3, #12]
 569:Drivers/STM32L4xx_HAL_Driver/Src/stm32l4xx_hal_flash.c ****   }
 778              		.loc 1 569 5 view .LVU218
 779 0010 02F14432 		add	r2, r2, #1145324612
 780 0014 DA60     		str	r2, [r3, #12]
 576:Drivers/STM32L4xx_HAL_Driver/Src/stm32l4xx_hal_flash.c **** }
 781              		.loc 1 576 3 view .LVU219
 576:Drivers/STM32L4xx_HAL_Driver/Src/stm32l4xx_hal_flash.c **** }
 782              		.loc 1 576 10 is_stmt 0 view .LVU220
 783 0016 0020     		movs	r0, #0
 784 0018 7047     		bx	lr
 785              	.L62:
 573:Drivers/STM32L4xx_HAL_Driver/Src/stm32l4xx_hal_flash.c ****   }
 786              		.loc 1 573 12 view .LVU221
 787 001a 0120     		movs	r0, #1
 577:Drivers/STM32L4xx_HAL_Driver/Src/stm32l4xx_hal_flash.c **** 
 788              		.loc 1 577 1 view .LVU222
 789 001c 7047     		bx	lr
 790              	.L64:
 791 001e 00BF     		.align	2
 792              	.L63:
 793 0020 00200240 		.word	1073881088
 794 0024 3B2A1908 		.word	135866939
 795              		.cfi_endproc
 796              	.LFE130:
 798              		.section	.text.HAL_FLASH_OB_Lock,"ax",%progbits
 799              		.align	1
 800              		.global	HAL_FLASH_OB_Lock
 801              		.syntax unified
 802              		.thumb
 803              		.thumb_func
 804              		.fpu fpv4-sp-d16
 806              	HAL_FLASH_OB_Lock:
 807              	.LFB131:
 584:Drivers/STM32L4xx_HAL_Driver/Src/stm32l4xx_hal_flash.c ****   /* Set the OPTLOCK Bit to lock the FLASH Option Byte Registers access */
 808              		.loc 1 584 1 is_stmt 1 view -0
 809              		.cfi_startproc
 810              		@ args = 0, pretend = 0, frame = 0
 811              		@ frame_needed = 0, uses_anonymous_args = 0
 812              		@ link register save eliminated.
 586:Drivers/STM32L4xx_HAL_Driver/Src/stm32l4xx_hal_flash.c **** 
 813              		.loc 1 586 3 view .LVU224
ARM GAS  /tmp/cctJgZ6D.s 			page 33


 814 0000 034A     		ldr	r2, .L66
 815 0002 5369     		ldr	r3, [r2, #20]
 816 0004 43F08043 		orr	r3, r3, #1073741824
 817 0008 5361     		str	r3, [r2, #20]
 588:Drivers/STM32L4xx_HAL_Driver/Src/stm32l4xx_hal_flash.c **** }
 818              		.loc 1 588 3 view .LVU225
 589:Drivers/STM32L4xx_HAL_Driver/Src/stm32l4xx_hal_flash.c **** 
 819              		.loc 1 589 1 is_stmt 0 view .LVU226
 820 000a 0020     		movs	r0, #0
 821 000c 7047     		bx	lr
 822              	.L67:
 823 000e 00BF     		.align	2
 824              	.L66:
 825 0010 00200240 		.word	1073881088
 826              		.cfi_endproc
 827              	.LFE131:
 829              		.section	.text.HAL_FLASH_GetError,"ax",%progbits
 830              		.align	1
 831              		.global	HAL_FLASH_GetError
 832              		.syntax unified
 833              		.thumb
 834              		.thumb_func
 835              		.fpu fpv4-sp-d16
 837              	HAL_FLASH_GetError:
 838              	.LFB133:
 646:Drivers/STM32L4xx_HAL_Driver/Src/stm32l4xx_hal_flash.c ****    return pFlash.ErrorCode;
 839              		.loc 1 646 1 is_stmt 1 view -0
 840              		.cfi_startproc
 841              		@ args = 0, pretend = 0, frame = 0
 842              		@ frame_needed = 0, uses_anonymous_args = 0
 843              		@ link register save eliminated.
 647:Drivers/STM32L4xx_HAL_Driver/Src/stm32l4xx_hal_flash.c **** }
 844              		.loc 1 647 4 view .LVU228
 647:Drivers/STM32L4xx_HAL_Driver/Src/stm32l4xx_hal_flash.c **** }
 845              		.loc 1 647 17 is_stmt 0 view .LVU229
 846 0000 014B     		ldr	r3, .L69
 847 0002 5868     		ldr	r0, [r3, #4]
 648:Drivers/STM32L4xx_HAL_Driver/Src/stm32l4xx_hal_flash.c **** 
 848              		.loc 1 648 1 view .LVU230
 849 0004 7047     		bx	lr
 850              	.L70:
 851 0006 00BF     		.align	2
 852              	.L69:
 853 0008 00000000 		.word	.LANCHOR0
 854              		.cfi_endproc
 855              	.LFE133:
 857              		.section	.text.FLASH_WaitForLastOperation,"ax",%progbits
 858              		.align	1
 859              		.global	FLASH_WaitForLastOperation
 860              		.syntax unified
 861              		.thumb
 862              		.thumb_func
 863              		.fpu fpv4-sp-d16
 865              	FLASH_WaitForLastOperation:
 866              	.LVL55:
 867              	.LFB134:
 670:Drivers/STM32L4xx_HAL_Driver/Src/stm32l4xx_hal_flash.c ****   /* Wait for the FLASH operation to complete by polling on BUSY flag to be reset.
ARM GAS  /tmp/cctJgZ6D.s 			page 34


 868              		.loc 1 670 1 is_stmt 1 view -0
 869              		.cfi_startproc
 870              		@ args = 0, pretend = 0, frame = 0
 871              		@ frame_needed = 0, uses_anonymous_args = 0
 670:Drivers/STM32L4xx_HAL_Driver/Src/stm32l4xx_hal_flash.c ****   /* Wait for the FLASH operation to complete by polling on BUSY flag to be reset.
 872              		.loc 1 670 1 is_stmt 0 view .LVU232
 873 0000 38B5     		push	{r3, r4, r5, lr}
 874              	.LCFI4:
 875              		.cfi_def_cfa_offset 16
 876              		.cfi_offset 3, -16
 877              		.cfi_offset 4, -12
 878              		.cfi_offset 5, -8
 879              		.cfi_offset 14, -4
 880 0002 0446     		mov	r4, r0
 675:Drivers/STM32L4xx_HAL_Driver/Src/stm32l4xx_hal_flash.c ****   uint32_t error;
 881              		.loc 1 675 3 is_stmt 1 view .LVU233
 675:Drivers/STM32L4xx_HAL_Driver/Src/stm32l4xx_hal_flash.c ****   uint32_t error;
 882              		.loc 1 675 24 is_stmt 0 view .LVU234
 883 0004 FFF7FEFF 		bl	HAL_GetTick
 884              	.LVL56:
 675:Drivers/STM32L4xx_HAL_Driver/Src/stm32l4xx_hal_flash.c ****   uint32_t error;
 885              		.loc 1 675 24 view .LVU235
 886 0008 0546     		mov	r5, r0
 887              	.LVL57:
 676:Drivers/STM32L4xx_HAL_Driver/Src/stm32l4xx_hal_flash.c **** 
 888              		.loc 1 676 3 is_stmt 1 view .LVU236
 678:Drivers/STM32L4xx_HAL_Driver/Src/stm32l4xx_hal_flash.c ****   {
 889              		.loc 1 678 3 view .LVU237
 890              	.L73:
 678:Drivers/STM32L4xx_HAL_Driver/Src/stm32l4xx_hal_flash.c ****   {
 891              		.loc 1 678 8 view .LVU238
 678:Drivers/STM32L4xx_HAL_Driver/Src/stm32l4xx_hal_flash.c ****   {
 892              		.loc 1 678 9 is_stmt 0 view .LVU239
 893 000a 1E4B     		ldr	r3, .L84
 894 000c 1B69     		ldr	r3, [r3, #16]
 678:Drivers/STM32L4xx_HAL_Driver/Src/stm32l4xx_hal_flash.c ****   {
 895              		.loc 1 678 8 view .LVU240
 896 000e 13F4803F 		tst	r3, #65536
 897 0012 09D0     		beq	.L82
 680:Drivers/STM32L4xx_HAL_Driver/Src/stm32l4xx_hal_flash.c ****     {
 898              		.loc 1 680 5 is_stmt 1 view .LVU241
 680:Drivers/STM32L4xx_HAL_Driver/Src/stm32l4xx_hal_flash.c ****     {
 899              		.loc 1 680 7 is_stmt 0 view .LVU242
 900 0014 B4F1FF3F 		cmp	r4, #-1
 901 0018 F7D0     		beq	.L73
 682:Drivers/STM32L4xx_HAL_Driver/Src/stm32l4xx_hal_flash.c ****       {
 902              		.loc 1 682 7 is_stmt 1 view .LVU243
 682:Drivers/STM32L4xx_HAL_Driver/Src/stm32l4xx_hal_flash.c ****       {
 903              		.loc 1 682 11 is_stmt 0 view .LVU244
 904 001a FFF7FEFF 		bl	HAL_GetTick
 905              	.LVL58:
 682:Drivers/STM32L4xx_HAL_Driver/Src/stm32l4xx_hal_flash.c ****       {
 906              		.loc 1 682 25 view .LVU245
 907 001e 401B     		subs	r0, r0, r5
 682:Drivers/STM32L4xx_HAL_Driver/Src/stm32l4xx_hal_flash.c ****       {
 908              		.loc 1 682 9 view .LVU246
 909 0020 A042     		cmp	r0, r4
ARM GAS  /tmp/cctJgZ6D.s 			page 35


 910 0022 F2D3     		bcc	.L73
 684:Drivers/STM32L4xx_HAL_Driver/Src/stm32l4xx_hal_flash.c ****       }
 911              		.loc 1 684 16 view .LVU247
 912 0024 0320     		movs	r0, #3
 913 0026 29E0     		b	.L74
 914              	.L82:
 689:Drivers/STM32L4xx_HAL_Driver/Src/stm32l4xx_hal_flash.c ****   error |= (FLASH->ECCR & FLASH_FLAG_ECCD);
 915              		.loc 1 689 3 is_stmt 1 view .LVU248
 689:Drivers/STM32L4xx_HAL_Driver/Src/stm32l4xx_hal_flash.c ****   error |= (FLASH->ECCR & FLASH_FLAG_ECCD);
 916              		.loc 1 689 17 is_stmt 0 view .LVU249
 917 0028 164A     		ldr	r2, .L84
 918 002a 1369     		ldr	r3, [r2, #16]
 689:Drivers/STM32L4xx_HAL_Driver/Src/stm32l4xx_hal_flash.c ****   error |= (FLASH->ECCR & FLASH_FLAG_ECCD);
 919              		.loc 1 689 9 view .LVU250
 920 002c 23F07F43 		bic	r3, r3, #-16777216
 921 0030 23F47D03 		bic	r3, r3, #16580608
 922 0034 23F47053 		bic	r3, r3, #15360
 923 0038 23F00503 		bic	r3, r3, #5
 924              	.LVL59:
 690:Drivers/STM32L4xx_HAL_Driver/Src/stm32l4xx_hal_flash.c **** 
 925              		.loc 1 690 3 is_stmt 1 view .LVU251
 690:Drivers/STM32L4xx_HAL_Driver/Src/stm32l4xx_hal_flash.c **** 
 926              		.loc 1 690 18 is_stmt 0 view .LVU252
 927 003c 9269     		ldr	r2, [r2, #24]
 690:Drivers/STM32L4xx_HAL_Driver/Src/stm32l4xx_hal_flash.c **** 
 928              		.loc 1 690 25 view .LVU253
 929 003e 02F00042 		and	r2, r2, #-2147483648
 930              	.LVL60:
 692:Drivers/STM32L4xx_HAL_Driver/Src/stm32l4xx_hal_flash.c ****   {
 931              		.loc 1 692 3 is_stmt 1 view .LVU254
 692:Drivers/STM32L4xx_HAL_Driver/Src/stm32l4xx_hal_flash.c ****   {
 932              		.loc 1 692 5 is_stmt 0 view .LVU255
 933 0042 1343     		orrs	r3, r3, r2
 934              	.LVL61:
 692:Drivers/STM32L4xx_HAL_Driver/Src/stm32l4xx_hal_flash.c ****   {
 935              		.loc 1 692 5 view .LVU256
 936 0044 09D1     		bne	.L83
 704:Drivers/STM32L4xx_HAL_Driver/Src/stm32l4xx_hal_flash.c ****   {
 937              		.loc 1 704 3 is_stmt 1 view .LVU257
 704:Drivers/STM32L4xx_HAL_Driver/Src/stm32l4xx_hal_flash.c ****   {
 938              		.loc 1 704 7 is_stmt 0 view .LVU258
 939 0046 0F4B     		ldr	r3, .L84
 940              	.LVL62:
 704:Drivers/STM32L4xx_HAL_Driver/Src/stm32l4xx_hal_flash.c ****   {
 941              		.loc 1 704 7 view .LVU259
 942 0048 1B69     		ldr	r3, [r3, #16]
 704:Drivers/STM32L4xx_HAL_Driver/Src/stm32l4xx_hal_flash.c ****   {
 943              		.loc 1 704 6 view .LVU260
 944 004a 13F0010F 		tst	r3, #1
 945 004e 16D0     		beq	.L80
 707:Drivers/STM32L4xx_HAL_Driver/Src/stm32l4xx_hal_flash.c ****   }
 946              		.loc 1 707 5 is_stmt 1 discriminator 4 view .LVU261
 707:Drivers/STM32L4xx_HAL_Driver/Src/stm32l4xx_hal_flash.c ****   }
 947              		.loc 1 707 5 discriminator 4 view .LVU262
 707:Drivers/STM32L4xx_HAL_Driver/Src/stm32l4xx_hal_flash.c ****   }
 948              		.loc 1 707 5 discriminator 4 view .LVU263
 707:Drivers/STM32L4xx_HAL_Driver/Src/stm32l4xx_hal_flash.c ****   }
ARM GAS  /tmp/cctJgZ6D.s 			page 36


 949              		.loc 1 707 5 discriminator 4 view .LVU264
 950 0050 0C4B     		ldr	r3, .L84
 951 0052 0122     		movs	r2, #1
 952 0054 1A61     		str	r2, [r3, #16]
 711:Drivers/STM32L4xx_HAL_Driver/Src/stm32l4xx_hal_flash.c **** }
 953              		.loc 1 711 10 is_stmt 0 discriminator 4 view .LVU265
 954 0056 0020     		movs	r0, #0
 955 0058 10E0     		b	.L74
 956              	.LVL63:
 957              	.L83:
 695:Drivers/STM32L4xx_HAL_Driver/Src/stm32l4xx_hal_flash.c **** 
 958              		.loc 1 695 5 is_stmt 1 view .LVU266
 695:Drivers/STM32L4xx_HAL_Driver/Src/stm32l4xx_hal_flash.c **** 
 959              		.loc 1 695 22 is_stmt 0 view .LVU267
 960 005a 0B49     		ldr	r1, .L84+4
 961 005c 4A68     		ldr	r2, [r1, #4]
 962 005e 1A43     		orrs	r2, r2, r3
 963 0060 4A60     		str	r2, [r1, #4]
 698:Drivers/STM32L4xx_HAL_Driver/Src/stm32l4xx_hal_flash.c **** 
 964              		.loc 1 698 5 is_stmt 1 view .LVU268
 698:Drivers/STM32L4xx_HAL_Driver/Src/stm32l4xx_hal_flash.c **** 
 965              		.loc 1 698 5 view .LVU269
 966 0062 13F04042 		ands	r2, r3, #-1073741824
 967 0066 03D0     		beq	.L77
 698:Drivers/STM32L4xx_HAL_Driver/Src/stm32l4xx_hal_flash.c **** 
 968              		.loc 1 698 5 discriminator 1 view .LVU270
 969 0068 0649     		ldr	r1, .L84
 970 006a 8869     		ldr	r0, [r1, #24]
 971 006c 0243     		orrs	r2, r2, r0
 972 006e 8A61     		str	r2, [r1, #24]
 973              	.L77:
 698:Drivers/STM32L4xx_HAL_Driver/Src/stm32l4xx_hal_flash.c **** 
 974              		.loc 1 698 5 discriminator 3 view .LVU271
 975 0070 33F04043 		bics	r3, r3, #-1073741824
 976              	.LVL64:
 698:Drivers/STM32L4xx_HAL_Driver/Src/stm32l4xx_hal_flash.c **** 
 977              		.loc 1 698 5 is_stmt 0 discriminator 3 view .LVU272
 978 0074 01D0     		beq	.L78
 698:Drivers/STM32L4xx_HAL_Driver/Src/stm32l4xx_hal_flash.c **** 
 979              		.loc 1 698 5 is_stmt 1 discriminator 4 view .LVU273
 980 0076 034A     		ldr	r2, .L84
 981 0078 1361     		str	r3, [r2, #16]
 982              	.L78:
 698:Drivers/STM32L4xx_HAL_Driver/Src/stm32l4xx_hal_flash.c **** 
 983              		.loc 1 698 5 discriminator 6 view .LVU274
 700:Drivers/STM32L4xx_HAL_Driver/Src/stm32l4xx_hal_flash.c ****   }
 984              		.loc 1 700 5 discriminator 6 view .LVU275
 700:Drivers/STM32L4xx_HAL_Driver/Src/stm32l4xx_hal_flash.c ****   }
 985              		.loc 1 700 12 is_stmt 0 discriminator 6 view .LVU276
 986 007a 0120     		movs	r0, #1
 987              	.L74:
 712:Drivers/STM32L4xx_HAL_Driver/Src/stm32l4xx_hal_flash.c **** 
 988              		.loc 1 712 1 view .LVU277
 989 007c 38BD     		pop	{r3, r4, r5, pc}
 990              	.LVL65:
 991              	.L80:
 711:Drivers/STM32L4xx_HAL_Driver/Src/stm32l4xx_hal_flash.c **** }
ARM GAS  /tmp/cctJgZ6D.s 			page 37


 992              		.loc 1 711 10 view .LVU278
 993 007e 0020     		movs	r0, #0
 994 0080 FCE7     		b	.L74
 995              	.L85:
 996 0082 00BF     		.align	2
 997              	.L84:
 998 0084 00200240 		.word	1073881088
 999 0088 00000000 		.word	.LANCHOR0
 1000              		.cfi_endproc
 1001              	.LFE134:
 1003              		.section	.text.HAL_FLASH_Program,"ax",%progbits
 1004              		.align	1
 1005              		.global	HAL_FLASH_Program
 1006              		.syntax unified
 1007              		.thumb
 1008              		.thumb_func
 1009              		.fpu fpv4-sp-d16
 1011              	HAL_FLASH_Program:
 1012              	.LVL66:
 1013              	.LFB123:
 192:Drivers/STM32L4xx_HAL_Driver/Src/stm32l4xx_hal_flash.c ****   HAL_StatusTypeDef status;
 1014              		.loc 1 192 1 is_stmt 1 view -0
 1015              		.cfi_startproc
 1016              		@ args = 0, pretend = 0, frame = 0
 1017              		@ frame_needed = 0, uses_anonymous_args = 0
 192:Drivers/STM32L4xx_HAL_Driver/Src/stm32l4xx_hal_flash.c ****   HAL_StatusTypeDef status;
 1018              		.loc 1 192 1 is_stmt 0 view .LVU280
 1019 0000 2DE9F041 		push	{r4, r5, r6, r7, r8, lr}
 1020              	.LCFI5:
 1021              		.cfi_def_cfa_offset 24
 1022              		.cfi_offset 4, -24
 1023              		.cfi_offset 5, -20
 1024              		.cfi_offset 6, -16
 1025              		.cfi_offset 7, -12
 1026              		.cfi_offset 8, -8
 1027              		.cfi_offset 14, -4
 1028 0004 1646     		mov	r6, r2
 193:Drivers/STM32L4xx_HAL_Driver/Src/stm32l4xx_hal_flash.c ****   uint32_t prog_bit = 0;
 1029              		.loc 1 193 3 is_stmt 1 view .LVU281
 194:Drivers/STM32L4xx_HAL_Driver/Src/stm32l4xx_hal_flash.c **** 
 1030              		.loc 1 194 3 view .LVU282
 1031              	.LVL67:
 197:Drivers/STM32L4xx_HAL_Driver/Src/stm32l4xx_hal_flash.c **** 
 1032              		.loc 1 197 3 view .LVU283
 197:Drivers/STM32L4xx_HAL_Driver/Src/stm32l4xx_hal_flash.c **** 
 1033              		.loc 1 197 3 view .LVU284
 1034 0006 284A     		ldr	r2, .L100
 1035              	.LVL68:
 197:Drivers/STM32L4xx_HAL_Driver/Src/stm32l4xx_hal_flash.c **** 
 1036              		.loc 1 197 3 is_stmt 0 view .LVU285
 1037 0008 1278     		ldrb	r2, [r2]	@ zero_extendqisi2
 1038 000a 012A     		cmp	r2, #1
 1039 000c 49D0     		beq	.L94
 1040 000e 0446     		mov	r4, r0
 1041 0010 0D46     		mov	r5, r1
 1042 0012 9846     		mov	r8, r3
 197:Drivers/STM32L4xx_HAL_Driver/Src/stm32l4xx_hal_flash.c **** 
ARM GAS  /tmp/cctJgZ6D.s 			page 38


 1043              		.loc 1 197 3 is_stmt 1 discriminator 2 view .LVU286
 1044 0014 244B     		ldr	r3, .L100
 1045 0016 0122     		movs	r2, #1
 1046 0018 1A70     		strb	r2, [r3]
 197:Drivers/STM32L4xx_HAL_Driver/Src/stm32l4xx_hal_flash.c **** 
 1047              		.loc 1 197 3 discriminator 2 view .LVU287
 200:Drivers/STM32L4xx_HAL_Driver/Src/stm32l4xx_hal_flash.c **** 
 1048              		.loc 1 200 3 discriminator 2 view .LVU288
 203:Drivers/STM32L4xx_HAL_Driver/Src/stm32l4xx_hal_flash.c **** 
 1049              		.loc 1 203 3 discriminator 2 view .LVU289
 203:Drivers/STM32L4xx_HAL_Driver/Src/stm32l4xx_hal_flash.c **** 
 1050              		.loc 1 203 12 is_stmt 0 discriminator 2 view .LVU290
 1051 001a 4CF25030 		movw	r0, #50000
 1052              	.LVL69:
 203:Drivers/STM32L4xx_HAL_Driver/Src/stm32l4xx_hal_flash.c **** 
 1053              		.loc 1 203 12 discriminator 2 view .LVU291
 1054 001e FFF7FEFF 		bl	FLASH_WaitForLastOperation
 1055              	.LVL70:
 205:Drivers/STM32L4xx_HAL_Driver/Src/stm32l4xx_hal_flash.c ****   {
 1056              		.loc 1 205 3 is_stmt 1 discriminator 2 view .LVU292
 205:Drivers/STM32L4xx_HAL_Driver/Src/stm32l4xx_hal_flash.c ****   {
 1057              		.loc 1 205 5 is_stmt 0 discriminator 2 view .LVU293
 1058 0022 0746     		mov	r7, r0
 1059 0024 08BB     		cbnz	r0, .L88
 207:Drivers/STM32L4xx_HAL_Driver/Src/stm32l4xx_hal_flash.c **** 
 1060              		.loc 1 207 5 is_stmt 1 view .LVU294
 207:Drivers/STM32L4xx_HAL_Driver/Src/stm32l4xx_hal_flash.c **** 
 1061              		.loc 1 207 22 is_stmt 0 view .LVU295
 1062 0026 204B     		ldr	r3, .L100
 1063 0028 0022     		movs	r2, #0
 1064 002a 5A60     		str	r2, [r3, #4]
 210:Drivers/STM32L4xx_HAL_Driver/Src/stm32l4xx_hal_flash.c ****     {
 1065              		.loc 1 210 5 is_stmt 1 view .LVU296
 210:Drivers/STM32L4xx_HAL_Driver/Src/stm32l4xx_hal_flash.c ****     {
 1066              		.loc 1 210 8 is_stmt 0 view .LVU297
 1067 002c 1F4B     		ldr	r3, .L100+4
 1068 002e 1B68     		ldr	r3, [r3]
 210:Drivers/STM32L4xx_HAL_Driver/Src/stm32l4xx_hal_flash.c ****     {
 1069              		.loc 1 210 7 view .LVU298
 1070 0030 13F4806F 		tst	r3, #1024
 1071 0034 1FD0     		beq	.L89
 213:Drivers/STM32L4xx_HAL_Driver/Src/stm32l4xx_hal_flash.c ****       pFlash.CacheToReactivate = FLASH_CACHE_DCACHE_ENABLED;
 1072              		.loc 1 213 7 is_stmt 1 view .LVU299
 1073 0036 1D4A     		ldr	r2, .L100+4
 1074 0038 1368     		ldr	r3, [r2]
 1075 003a 23F48063 		bic	r3, r3, #1024
 1076 003e 1360     		str	r3, [r2]
 214:Drivers/STM32L4xx_HAL_Driver/Src/stm32l4xx_hal_flash.c ****     }
 1077              		.loc 1 214 7 view .LVU300
 214:Drivers/STM32L4xx_HAL_Driver/Src/stm32l4xx_hal_flash.c ****     }
 1078              		.loc 1 214 32 is_stmt 0 view .LVU301
 1079 0040 194B     		ldr	r3, .L100
 1080 0042 0222     		movs	r2, #2
 1081 0044 1A77     		strb	r2, [r3, #28]
 1082              	.L90:
 221:Drivers/STM32L4xx_HAL_Driver/Src/stm32l4xx_hal_flash.c ****     {
 1083              		.loc 1 221 5 is_stmt 1 view .LVU302
ARM GAS  /tmp/cctJgZ6D.s 			page 39


 221:Drivers/STM32L4xx_HAL_Driver/Src/stm32l4xx_hal_flash.c ****     {
 1084              		.loc 1 221 7 is_stmt 0 view .LVU303
 1085 0046 D4B1     		cbz	r4, .L98
 227:Drivers/STM32L4xx_HAL_Driver/Src/stm32l4xx_hal_flash.c ****     {
 1086              		.loc 1 227 10 is_stmt 1 view .LVU304
 227:Drivers/STM32L4xx_HAL_Driver/Src/stm32l4xx_hal_flash.c ****     {
 1087              		.loc 1 227 53 is_stmt 0 view .LVU305
 1088 0048 631E     		subs	r3, r4, #1
 227:Drivers/STM32L4xx_HAL_Driver/Src/stm32l4xx_hal_flash.c ****     {
 1089              		.loc 1 227 12 view .LVU306
 1090 004a 012B     		cmp	r3, #1
 1091 004c 1ED9     		bls	.L99
 194:Drivers/STM32L4xx_HAL_Driver/Src/stm32l4xx_hal_flash.c **** 
 1092              		.loc 1 194 12 view .LVU307
 1093 004e 0024     		movs	r4, #0
 1094              	.LVL71:
 1095              	.L92:
 241:Drivers/STM32L4xx_HAL_Driver/Src/stm32l4xx_hal_flash.c **** 
 1096              		.loc 1 241 5 is_stmt 1 view .LVU308
 244:Drivers/STM32L4xx_HAL_Driver/Src/stm32l4xx_hal_flash.c **** 
 1097              		.loc 1 244 5 view .LVU309
 244:Drivers/STM32L4xx_HAL_Driver/Src/stm32l4xx_hal_flash.c **** 
 1098              		.loc 1 244 14 is_stmt 0 view .LVU310
 1099 0050 4CF25030 		movw	r0, #50000
 1100 0054 FFF7FEFF 		bl	FLASH_WaitForLastOperation
 1101              	.LVL72:
 1102 0058 0746     		mov	r7, r0
 1103              	.LVL73:
 247:Drivers/STM32L4xx_HAL_Driver/Src/stm32l4xx_hal_flash.c ****     {
 1104              		.loc 1 247 5 is_stmt 1 view .LVU311
 247:Drivers/STM32L4xx_HAL_Driver/Src/stm32l4xx_hal_flash.c ****     {
 1105              		.loc 1 247 8 is_stmt 0 view .LVU312
 1106 005a 24B1     		cbz	r4, .L93
 249:Drivers/STM32L4xx_HAL_Driver/Src/stm32l4xx_hal_flash.c ****     }
 1107              		.loc 1 249 7 is_stmt 1 view .LVU313
 1108 005c 134A     		ldr	r2, .L100+4
 1109 005e 5369     		ldr	r3, [r2, #20]
 1110 0060 23EA0404 		bic	r4, r3, r4
 1111              	.LVL74:
 249:Drivers/STM32L4xx_HAL_Driver/Src/stm32l4xx_hal_flash.c ****     }
 1112              		.loc 1 249 7 is_stmt 0 view .LVU314
 1113 0064 5461     		str	r4, [r2, #20]
 1114              	.L93:
 253:Drivers/STM32L4xx_HAL_Driver/Src/stm32l4xx_hal_flash.c ****   }
 1115              		.loc 1 253 5 is_stmt 1 view .LVU315
 1116 0066 FFF7FEFF 		bl	FLASH_FlushCaches
 1117              	.LVL75:
 1118              	.L88:
 257:Drivers/STM32L4xx_HAL_Driver/Src/stm32l4xx_hal_flash.c **** 
 1119              		.loc 1 257 3 view .LVU316
 257:Drivers/STM32L4xx_HAL_Driver/Src/stm32l4xx_hal_flash.c **** 
 1120              		.loc 1 257 3 view .LVU317
 1121 006a 0F4B     		ldr	r3, .L100
 1122 006c 0022     		movs	r2, #0
 1123 006e 1A70     		strb	r2, [r3]
 257:Drivers/STM32L4xx_HAL_Driver/Src/stm32l4xx_hal_flash.c **** 
 1124              		.loc 1 257 3 view .LVU318
ARM GAS  /tmp/cctJgZ6D.s 			page 40


 259:Drivers/STM32L4xx_HAL_Driver/Src/stm32l4xx_hal_flash.c **** }
 1125              		.loc 1 259 3 view .LVU319
 1126              	.LVL76:
 1127              	.L87:
 260:Drivers/STM32L4xx_HAL_Driver/Src/stm32l4xx_hal_flash.c **** 
 1128              		.loc 1 260 1 is_stmt 0 view .LVU320
 1129 0070 3846     		mov	r0, r7
 1130 0072 BDE8F081 		pop	{r4, r5, r6, r7, r8, pc}
 1131              	.LVL77:
 1132              	.L89:
 218:Drivers/STM32L4xx_HAL_Driver/Src/stm32l4xx_hal_flash.c ****     }
 1133              		.loc 1 218 7 is_stmt 1 view .LVU321
 218:Drivers/STM32L4xx_HAL_Driver/Src/stm32l4xx_hal_flash.c ****     }
 1134              		.loc 1 218 32 is_stmt 0 view .LVU322
 1135 0076 0C4B     		ldr	r3, .L100
 1136 0078 0022     		movs	r2, #0
 1137 007a 1A77     		strb	r2, [r3, #28]
 1138 007c E3E7     		b	.L90
 1139              	.L98:
 224:Drivers/STM32L4xx_HAL_Driver/Src/stm32l4xx_hal_flash.c ****       prog_bit = FLASH_CR_PG;
 1140              		.loc 1 224 7 is_stmt 1 view .LVU323
 1141 007e 3246     		mov	r2, r6
 1142 0080 4346     		mov	r3, r8
 1143 0082 2846     		mov	r0, r5
 1144              	.LVL78:
 224:Drivers/STM32L4xx_HAL_Driver/Src/stm32l4xx_hal_flash.c ****       prog_bit = FLASH_CR_PG;
 1145              		.loc 1 224 7 is_stmt 0 view .LVU324
 1146 0084 FFF7FEFF 		bl	FLASH_Program_DoubleWord
 1147              	.LVL79:
 225:Drivers/STM32L4xx_HAL_Driver/Src/stm32l4xx_hal_flash.c ****     }
 1148              		.loc 1 225 7 is_stmt 1 view .LVU325
 225:Drivers/STM32L4xx_HAL_Driver/Src/stm32l4xx_hal_flash.c ****     }
 1149              		.loc 1 225 16 is_stmt 0 view .LVU326
 1150 0088 0124     		movs	r4, #1
 1151              	.LVL80:
 225:Drivers/STM32L4xx_HAL_Driver/Src/stm32l4xx_hal_flash.c ****     }
 1152              		.loc 1 225 16 view .LVU327
 1153 008a E1E7     		b	.L92
 1154              	.LVL81:
 1155              	.L99:
 230:Drivers/STM32L4xx_HAL_Driver/Src/stm32l4xx_hal_flash.c **** 
 1156              		.loc 1 230 7 is_stmt 1 view .LVU328
 1157 008c 3146     		mov	r1, r6
 1158 008e 2846     		mov	r0, r5
 1159              	.LVL82:
 230:Drivers/STM32L4xx_HAL_Driver/Src/stm32l4xx_hal_flash.c **** 
 1160              		.loc 1 230 7 is_stmt 0 view .LVU329
 1161 0090 FFF7FEFF 		bl	FLASH_Program_Fast
 1162              	.LVL83:
 233:Drivers/STM32L4xx_HAL_Driver/Src/stm32l4xx_hal_flash.c ****       {
 1163              		.loc 1 233 7 is_stmt 1 view .LVU330
 233:Drivers/STM32L4xx_HAL_Driver/Src/stm32l4xx_hal_flash.c ****       {
 1164              		.loc 1 233 9 is_stmt 0 view .LVU331
 1165 0094 022C     		cmp	r4, #2
 1166 0096 01D0     		beq	.L96
 194:Drivers/STM32L4xx_HAL_Driver/Src/stm32l4xx_hal_flash.c **** 
 1167              		.loc 1 194 12 view .LVU332
ARM GAS  /tmp/cctJgZ6D.s 			page 41


 1168 0098 0024     		movs	r4, #0
 1169              	.LVL84:
 194:Drivers/STM32L4xx_HAL_Driver/Src/stm32l4xx_hal_flash.c **** 
 1170              		.loc 1 194 12 view .LVU333
 1171 009a D9E7     		b	.L92
 1172              	.LVL85:
 1173              	.L96:
 235:Drivers/STM32L4xx_HAL_Driver/Src/stm32l4xx_hal_flash.c ****       }
 1174              		.loc 1 235 18 view .LVU334
 1175 009c 4FF48024 		mov	r4, #262144
 1176              	.LVL86:
 235:Drivers/STM32L4xx_HAL_Driver/Src/stm32l4xx_hal_flash.c ****       }
 1177              		.loc 1 235 18 view .LVU335
 1178 00a0 D6E7     		b	.L92
 1179              	.LVL87:
 1180              	.L94:
 197:Drivers/STM32L4xx_HAL_Driver/Src/stm32l4xx_hal_flash.c **** 
 1181              		.loc 1 197 3 view .LVU336
 1182 00a2 0227     		movs	r7, #2
 1183 00a4 E4E7     		b	.L87
 1184              	.L101:
 1185 00a6 00BF     		.align	2
 1186              	.L100:
 1187 00a8 00000000 		.word	.LANCHOR0
 1188 00ac 00200240 		.word	1073881088
 1189              		.cfi_endproc
 1190              	.LFE123:
 1192              		.section	.text.HAL_FLASH_OB_Launch,"ax",%progbits
 1193              		.align	1
 1194              		.global	HAL_FLASH_OB_Launch
 1195              		.syntax unified
 1196              		.thumb
 1197              		.thumb_func
 1198              		.fpu fpv4-sp-d16
 1200              	HAL_FLASH_OB_Launch:
 1201              	.LFB132:
 596:Drivers/STM32L4xx_HAL_Driver/Src/stm32l4xx_hal_flash.c ****   /* Set the bit to force the option byte reloading */
 1202              		.loc 1 596 1 is_stmt 1 view -0
 1203              		.cfi_startproc
 1204              		@ args = 0, pretend = 0, frame = 0
 1205              		@ frame_needed = 0, uses_anonymous_args = 0
 1206 0000 08B5     		push	{r3, lr}
 1207              	.LCFI6:
 1208              		.cfi_def_cfa_offset 8
 1209              		.cfi_offset 3, -8
 1210              		.cfi_offset 14, -4
 598:Drivers/STM32L4xx_HAL_Driver/Src/stm32l4xx_hal_flash.c **** 
 1211              		.loc 1 598 3 view .LVU338
 1212 0002 054A     		ldr	r2, .L104
 1213 0004 5369     		ldr	r3, [r2, #20]
 1214 0006 43F00063 		orr	r3, r3, #134217728
 1215 000a 5361     		str	r3, [r2, #20]
 601:Drivers/STM32L4xx_HAL_Driver/Src/stm32l4xx_hal_flash.c **** }
 1216              		.loc 1 601 3 view .LVU339
 601:Drivers/STM32L4xx_HAL_Driver/Src/stm32l4xx_hal_flash.c **** }
 1217              		.loc 1 601 10 is_stmt 0 view .LVU340
 1218 000c 4CF25030 		movw	r0, #50000
ARM GAS  /tmp/cctJgZ6D.s 			page 42


 1219 0010 FFF7FEFF 		bl	FLASH_WaitForLastOperation
 1220              	.LVL88:
 602:Drivers/STM32L4xx_HAL_Driver/Src/stm32l4xx_hal_flash.c **** 
 1221              		.loc 1 602 1 view .LVU341
 1222 0014 08BD     		pop	{r3, pc}
 1223              	.L105:
 1224 0016 00BF     		.align	2
 1225              	.L104:
 1226 0018 00200240 		.word	1073881088
 1227              		.cfi_endproc
 1228              	.LFE132:
 1230              		.global	pFlash
 1231              		.section	.data.pFlash,"aw"
 1232              		.align	2
 1233              		.set	.LANCHOR0,. + 0
 1236              	pFlash:
 1237 0000 00       		.byte	0
 1238 0001 000000   		.space	3
 1239 0004 00000000 		.word	0
 1240 0008 00       		.byte	0
 1241 0009 000000   		.space	3
 1242 000c 00000000 		.word	0
 1243 0010 01000000 		.word	1
 1244 0014 00000000 		.word	0
 1245 0018 00000000 		.word	0
 1246 001c 00       		.byte	0
 1247 001d 000000   		.space	3
 1248              		.text
 1249              	.Letext0:
 1250              		.file 3 "/opt/gcc-arm-none-eabi/gcc-arm-none-eabi-10-2020-q4-major/arm-none-eabi/include/machine/_
 1251              		.file 4 "/opt/gcc-arm-none-eabi/gcc-arm-none-eabi-10-2020-q4-major/arm-none-eabi/include/sys/_stdi
 1252              		.file 5 "Drivers/CMSIS/Device/ST/STM32L4xx/Include/stm32l432xx.h"
 1253              		.file 6 "Drivers/STM32L4xx_HAL_Driver/Inc/stm32l4xx_hal_def.h"
 1254              		.file 7 "Drivers/STM32L4xx_HAL_Driver/Inc/stm32l4xx_hal_flash.h"
 1255              		.file 8 "Drivers/STM32L4xx_HAL_Driver/Inc/stm32l4xx_hal.h"
ARM GAS  /tmp/cctJgZ6D.s 			page 43

