ARM GAS  /tmp/ccq2SduW.s 			page 1


   1              		.cpu cortex-m4
   2              		.eabi_attribute 27, 1
   3              		.eabi_attribute 28, 1
   4              		.eabi_attribute 20, 1
   5              		.eabi_attribute 21, 1
   6              		.eabi_attribute 23, 3
   7              		.eabi_attribute 24, 1
   8              		.eabi_attribute 25, 1
   9              		.eabi_attribute 26, 1
  10              		.eabi_attribute 30, 1
  11              		.eabi_attribute 34, 1
  12              		.eabi_attribute 18, 4
  13              		.file	"tsl237.c"
  14              		.text
  15              	.Ltext0:
  16              		.cfi_sections	.debug_frame
  17              		.section	.rodata.tsl237_command.str1.4,"aMS",%progbits,1
  18              		.align	2
  19              	.LC0:
  20 0000 4E4F4B0A 		.ascii	"NOK\012\015\000"
  20      0D00
  21              		.global	__aeabi_f2d
  22 0006 0000     		.align	2
  23              	.LC1:
  24 0008 25302E33 		.ascii	"%0.3f hz\012\015\000"
  24      6620687A 
  24      0A0D00
  25 0013 00       		.align	2
  26              	.LC2:
  27 0014 4F4B0A0D 		.ascii	"OK\012\015\000"
  27      00
  28              		.section	.text.tsl237_command,"ax",%progbits
  29              		.align	1
  30              		.global	tsl237_command
  31              		.arch armv7e-m
  32              		.syntax unified
  33              		.thumb
  34              		.thumb_func
  35              		.fpu fpv4-sp-d16
  37              	tsl237_command:
  38              	.LVL0:
  39              	.LFB291:
  40              		.file 1 "Core/Src/tsl237.c"
   1:Core/Src/tsl237.c **** /* tsl237.c
   2:Core/Src/tsl237.c ****  * Description: 
   3:Core/Src/tsl237.c ****  *
   4:Core/Src/tsl237.c ****  * Author: Bryce Himebaugh 
   5:Core/Src/tsl237.c ****  * Contact: bhimebau@indiana.edu
   6:Core/Src/tsl237.c ****  * Date: 03. 5.2021
   7:Core/Src/tsl237.c ****  * Copyright (C) 2021
   8:Core/Src/tsl237.c ****  *
   9:Core/Src/tsl237.c ****  */
  10:Core/Src/tsl237.c **** 
  11:Core/Src/tsl237.c **** #include "main.h"
  12:Core/Src/tsl237.c **** #include <string.h>
  13:Core/Src/tsl237.c **** #include <stdio.h>
  14:Core/Src/tsl237.c **** #include "tsl237.h"
ARM GAS  /tmp/ccq2SduW.s 			page 2


  15:Core/Src/tsl237.c **** 
  16:Core/Src/tsl237.c **** extern uint32_t period;
  17:Core/Src/tsl237.c **** 
  18:Core/Src/tsl237.c **** void tsl237_command(char *arguments) {
  41              		.loc 1 18 38 view -0
  42              		.cfi_startproc
  43              		@ args = 0, pretend = 0, frame = 0
  44              		@ frame_needed = 0, uses_anonymous_args = 0
  45              		.loc 1 18 38 is_stmt 0 view .LVU1
  46 0000 08B5     		push	{r3, lr}
  47              	.LCFI0:
  48              		.cfi_def_cfa_offset 8
  49              		.cfi_offset 3, -8
  50              		.cfi_offset 14, -4
  19:Core/Src/tsl237.c ****   float clock_period;
  51              		.loc 1 19 3 is_stmt 1 view .LVU2
  20:Core/Src/tsl237.c ****   float sensor_period;
  52              		.loc 1 20 3 view .LVU3
  21:Core/Src/tsl237.c ****   float sensor_frequency;
  53              		.loc 1 21 3 view .LVU4
  22:Core/Src/tsl237.c ****   
  23:Core/Src/tsl237.c ****   if (arguments) {
  54              		.loc 1 23 3 view .LVU5
  55              		.loc 1 23 6 is_stmt 0 view .LVU6
  56 0002 18B1     		cbz	r0, .L2
  24:Core/Src/tsl237.c ****     printf("NOK\n\r");
  57              		.loc 1 24 5 is_stmt 1 view .LVU7
  58 0004 1148     		ldr	r0, .L5
  59              	.LVL1:
  60              		.loc 1 24 5 is_stmt 0 view .LVU8
  61 0006 FFF7FEFF 		bl	printf
  62              	.LVL2:
  63              	.L1:
  25:Core/Src/tsl237.c ****   }
  26:Core/Src/tsl237.c ****   else {
  27:Core/Src/tsl237.c ****     clock_period = SystemCoreClock;
  28:Core/Src/tsl237.c ****     clock_period = 1/clock_period;
  29:Core/Src/tsl237.c ****     sensor_period = clock_period * (float) period;
  30:Core/Src/tsl237.c ****     sensor_frequency = 1/sensor_period;
  31:Core/Src/tsl237.c ****     printf("%0.3f hz\n\r", sensor_frequency);
  32:Core/Src/tsl237.c ****     printf("OK\n\r");
  33:Core/Src/tsl237.c ****   }
  34:Core/Src/tsl237.c **** }
  64              		.loc 1 34 1 view .LVU9
  65 000a 08BD     		pop	{r3, pc}
  66              	.LVL3:
  67              	.L2:
  27:Core/Src/tsl237.c ****     clock_period = 1/clock_period;
  68              		.loc 1 27 5 is_stmt 1 view .LVU10
  27:Core/Src/tsl237.c ****     clock_period = 1/clock_period;
  69              		.loc 1 27 18 is_stmt 0 view .LVU11
  70 000c 104B     		ldr	r3, .L5+4
  71 000e 93ED007A 		vldr.32	s14, [r3]	@ int
  72 0012 B8EE477A 		vcvt.f32.u32	s14, s14
  73              	.LVL4:
  28:Core/Src/tsl237.c ****     sensor_period = clock_period * (float) period;
  74              		.loc 1 28 5 is_stmt 1 view .LVU12
ARM GAS  /tmp/ccq2SduW.s 			page 3


  28:Core/Src/tsl237.c ****     sensor_period = clock_period * (float) period;
  75              		.loc 1 28 18 is_stmt 0 view .LVU13
  76 0016 F7EE006A 		vmov.f32	s13, #1.0e+0
  77 001a 86EE876A 		vdiv.f32	s12, s13, s14
  78              	.LVL5:
  29:Core/Src/tsl237.c ****     sensor_frequency = 1/sensor_period;
  79              		.loc 1 29 5 is_stmt 1 view .LVU14
  29:Core/Src/tsl237.c ****     sensor_frequency = 1/sensor_period;
  80              		.loc 1 29 36 is_stmt 0 view .LVU15
  81 001e 0D4B     		ldr	r3, .L5+8
  82 0020 D3ED007A 		vldr.32	s15, [r3]	@ int
  83 0024 F8EE677A 		vcvt.f32.u32	s15, s15
  29:Core/Src/tsl237.c ****     sensor_frequency = 1/sensor_period;
  84              		.loc 1 29 19 view .LVU16
  85 0028 67EE867A 		vmul.f32	s15, s15, s12
  86              	.LVL6:
  30:Core/Src/tsl237.c ****     printf("%0.3f hz\n\r", sensor_frequency);
  87              		.loc 1 30 5 is_stmt 1 view .LVU17
  31:Core/Src/tsl237.c ****     printf("OK\n\r");
  88              		.loc 1 31 5 view .LVU18
  89 002c C6EEA77A 		vdiv.f32	s15, s13, s15
  90              	.LVL7:
  31:Core/Src/tsl237.c ****     printf("OK\n\r");
  91              		.loc 1 31 5 is_stmt 0 view .LVU19
  92 0030 17EE900A 		vmov	r0, s15
  93              	.LVL8:
  31:Core/Src/tsl237.c ****     printf("OK\n\r");
  94              		.loc 1 31 5 view .LVU20
  95 0034 FFF7FEFF 		bl	__aeabi_f2d
  96              	.LVL9:
  31:Core/Src/tsl237.c ****     printf("OK\n\r");
  97              		.loc 1 31 5 view .LVU21
  98 0038 0246     		mov	r2, r0
  99 003a 0B46     		mov	r3, r1
 100 003c 0648     		ldr	r0, .L5+12
 101 003e FFF7FEFF 		bl	printf
 102              	.LVL10:
  32:Core/Src/tsl237.c ****   }
 103              		.loc 1 32 5 is_stmt 1 view .LVU22
 104 0042 0648     		ldr	r0, .L5+16
 105 0044 FFF7FEFF 		bl	printf
 106              	.LVL11:
 107              		.loc 1 34 1 is_stmt 0 view .LVU23
 108 0048 DFE7     		b	.L1
 109              	.L6:
 110 004a 00BF     		.align	2
 111              	.L5:
 112 004c 00000000 		.word	.LC0
 113 0050 00000000 		.word	SystemCoreClock
 114 0054 00000000 		.word	period
 115 0058 08000000 		.word	.LC1
 116 005c 14000000 		.word	.LC2
 117              		.cfi_endproc
 118              	.LFE291:
 120              		.text
 121              	.Letext0:
 122              		.file 2 "/opt/gcc-arm-none-eabi/gcc-arm-none-eabi-10.3-2021.07/arm-none-eabi/include/machine/_defa
ARM GAS  /tmp/ccq2SduW.s 			page 4


 123              		.file 3 "/opt/gcc-arm-none-eabi/gcc-arm-none-eabi-10.3-2021.07/arm-none-eabi/include/sys/_stdint.h
 124              		.file 4 "Drivers/CMSIS/Device/ST/STM32L4xx/Include/system_stm32l4xx.h"
 125              		.file 5 "/opt/gcc-arm-none-eabi/gcc-arm-none-eabi-10.3-2021.07/arm-none-eabi/include/stdio.h"
ARM GAS  /tmp/ccq2SduW.s 			page 5


DEFINED SYMBOLS
                            *ABS*:0000000000000000 tsl237.c
     /tmp/ccq2SduW.s:18     .rodata.tsl237_command.str1.4:0000000000000000 $d
     /tmp/ccq2SduW.s:29     .text.tsl237_command:0000000000000000 $t
     /tmp/ccq2SduW.s:37     .text.tsl237_command:0000000000000000 tsl237_command
     /tmp/ccq2SduW.s:112    .text.tsl237_command:000000000000004c $d

UNDEFINED SYMBOLS
__aeabi_f2d
printf
SystemCoreClock
period
