ARM GAS  /tmp/ccQj0Cbr.s 			page 1


   1              		.cpu cortex-m4
   2              		.eabi_attribute 27, 1
   3              		.eabi_attribute 28, 1
   4              		.eabi_attribute 20, 1
   5              		.eabi_attribute 21, 1
   6              		.eabi_attribute 23, 3
   7              		.eabi_attribute 24, 1
   8              		.eabi_attribute 25, 1
   9              		.eabi_attribute 26, 1
  10              		.eabi_attribute 30, 6
  11              		.eabi_attribute 34, 1
  12              		.eabi_attribute 18, 4
  13              		.file	"stm32l4xx_hal_gpio.c"
  14              		.text
  15              	.Ltext0:
  16              		.cfi_sections	.debug_frame
  17              		.section	.text.HAL_GPIO_Init,"ax",%progbits
  18              		.align	1
  19              		.global	HAL_GPIO_Init
  20              		.arch armv7e-m
  21              		.syntax unified
  22              		.thumb
  23              		.thumb_func
  24              		.fpu fpv4-sp-d16
  26              	HAL_GPIO_Init:
  27              	.LFB132:
  28              		.file 1 "Drivers/STM32L4xx_HAL_Driver/Src/stm32l4xx_hal_gpio.c"
   1:Drivers/STM32L4xx_HAL_Driver/Src/stm32l4xx_hal_gpio.c **** /**
   2:Drivers/STM32L4xx_HAL_Driver/Src/stm32l4xx_hal_gpio.c ****   ******************************************************************************
   3:Drivers/STM32L4xx_HAL_Driver/Src/stm32l4xx_hal_gpio.c ****   * @file    stm32l4xx_hal_gpio.c
   4:Drivers/STM32L4xx_HAL_Driver/Src/stm32l4xx_hal_gpio.c ****   * @author  MCD Application Team
   5:Drivers/STM32L4xx_HAL_Driver/Src/stm32l4xx_hal_gpio.c ****   * @brief   GPIO HAL module driver.
   6:Drivers/STM32L4xx_HAL_Driver/Src/stm32l4xx_hal_gpio.c ****   *          This file provides firmware functions to manage the following
   7:Drivers/STM32L4xx_HAL_Driver/Src/stm32l4xx_hal_gpio.c ****   *          functionalities of the General Purpose Input/Output (GPIO) peripheral:
   8:Drivers/STM32L4xx_HAL_Driver/Src/stm32l4xx_hal_gpio.c ****   *           + Initialization and de-initialization functions
   9:Drivers/STM32L4xx_HAL_Driver/Src/stm32l4xx_hal_gpio.c ****   *           + IO operation functions
  10:Drivers/STM32L4xx_HAL_Driver/Src/stm32l4xx_hal_gpio.c ****   *
  11:Drivers/STM32L4xx_HAL_Driver/Src/stm32l4xx_hal_gpio.c ****   @verbatim
  12:Drivers/STM32L4xx_HAL_Driver/Src/stm32l4xx_hal_gpio.c ****   ==============================================================================
  13:Drivers/STM32L4xx_HAL_Driver/Src/stm32l4xx_hal_gpio.c ****                     ##### GPIO Peripheral features #####
  14:Drivers/STM32L4xx_HAL_Driver/Src/stm32l4xx_hal_gpio.c ****   ==============================================================================
  15:Drivers/STM32L4xx_HAL_Driver/Src/stm32l4xx_hal_gpio.c ****   [..]
  16:Drivers/STM32L4xx_HAL_Driver/Src/stm32l4xx_hal_gpio.c ****     (+) Each port bit of the general-purpose I/O (GPIO) ports can be individually
  17:Drivers/STM32L4xx_HAL_Driver/Src/stm32l4xx_hal_gpio.c ****         configured by software in several modes:
  18:Drivers/STM32L4xx_HAL_Driver/Src/stm32l4xx_hal_gpio.c ****         (++) Input mode
  19:Drivers/STM32L4xx_HAL_Driver/Src/stm32l4xx_hal_gpio.c ****         (++) Analog mode
  20:Drivers/STM32L4xx_HAL_Driver/Src/stm32l4xx_hal_gpio.c ****         (++) Output mode
  21:Drivers/STM32L4xx_HAL_Driver/Src/stm32l4xx_hal_gpio.c ****         (++) Alternate function mode
  22:Drivers/STM32L4xx_HAL_Driver/Src/stm32l4xx_hal_gpio.c ****         (++) External interrupt/event lines
  23:Drivers/STM32L4xx_HAL_Driver/Src/stm32l4xx_hal_gpio.c **** 
  24:Drivers/STM32L4xx_HAL_Driver/Src/stm32l4xx_hal_gpio.c ****     (+) During and just after reset, the alternate functions and external interrupt
  25:Drivers/STM32L4xx_HAL_Driver/Src/stm32l4xx_hal_gpio.c ****         lines are not active and the I/O ports are configured in input floating mode.
  26:Drivers/STM32L4xx_HAL_Driver/Src/stm32l4xx_hal_gpio.c **** 
  27:Drivers/STM32L4xx_HAL_Driver/Src/stm32l4xx_hal_gpio.c ****     (+) All GPIO pins have weak internal pull-up and pull-down resistors, which can be
  28:Drivers/STM32L4xx_HAL_Driver/Src/stm32l4xx_hal_gpio.c ****         activated or not.
  29:Drivers/STM32L4xx_HAL_Driver/Src/stm32l4xx_hal_gpio.c **** 
  30:Drivers/STM32L4xx_HAL_Driver/Src/stm32l4xx_hal_gpio.c ****     (+) In Output or Alternate mode, each IO can be configured on open-drain or push-pull
ARM GAS  /tmp/ccQj0Cbr.s 			page 2


  31:Drivers/STM32L4xx_HAL_Driver/Src/stm32l4xx_hal_gpio.c ****         type and the IO speed can be selected depending on the VDD value.
  32:Drivers/STM32L4xx_HAL_Driver/Src/stm32l4xx_hal_gpio.c **** 
  33:Drivers/STM32L4xx_HAL_Driver/Src/stm32l4xx_hal_gpio.c ****     (+) The microcontroller IO pins are connected to onboard peripherals/modules through a
  34:Drivers/STM32L4xx_HAL_Driver/Src/stm32l4xx_hal_gpio.c ****         multiplexer that allows only one peripheral alternate function (AF) connected
  35:Drivers/STM32L4xx_HAL_Driver/Src/stm32l4xx_hal_gpio.c ****        to an IO pin at a time. In this way, there can be no conflict between peripherals
  36:Drivers/STM32L4xx_HAL_Driver/Src/stm32l4xx_hal_gpio.c ****        sharing the same IO pin.
  37:Drivers/STM32L4xx_HAL_Driver/Src/stm32l4xx_hal_gpio.c **** 
  38:Drivers/STM32L4xx_HAL_Driver/Src/stm32l4xx_hal_gpio.c ****     (+) All ports have external interrupt/event capability. To use external interrupt
  39:Drivers/STM32L4xx_HAL_Driver/Src/stm32l4xx_hal_gpio.c ****         lines, the port must be configured in input mode. All available GPIO pins are
  40:Drivers/STM32L4xx_HAL_Driver/Src/stm32l4xx_hal_gpio.c ****         connected to the 16 external interrupt/event lines from EXTI0 to EXTI15.
  41:Drivers/STM32L4xx_HAL_Driver/Src/stm32l4xx_hal_gpio.c **** 
  42:Drivers/STM32L4xx_HAL_Driver/Src/stm32l4xx_hal_gpio.c ****     (+) The external interrupt/event controller consists of up to 39 edge detectors
  43:Drivers/STM32L4xx_HAL_Driver/Src/stm32l4xx_hal_gpio.c ****         (16 lines are connected to GPIO) for generating event/interrupt requests (each
  44:Drivers/STM32L4xx_HAL_Driver/Src/stm32l4xx_hal_gpio.c ****         input line can be independently configured to select the type (interrupt or event)
  45:Drivers/STM32L4xx_HAL_Driver/Src/stm32l4xx_hal_gpio.c ****         and the corresponding trigger event (rising or falling or both). Each line can
  46:Drivers/STM32L4xx_HAL_Driver/Src/stm32l4xx_hal_gpio.c ****         also be masked independently.
  47:Drivers/STM32L4xx_HAL_Driver/Src/stm32l4xx_hal_gpio.c **** 
  48:Drivers/STM32L4xx_HAL_Driver/Src/stm32l4xx_hal_gpio.c ****                      ##### How to use this driver #####
  49:Drivers/STM32L4xx_HAL_Driver/Src/stm32l4xx_hal_gpio.c ****   ==============================================================================
  50:Drivers/STM32L4xx_HAL_Driver/Src/stm32l4xx_hal_gpio.c ****   [..]
  51:Drivers/STM32L4xx_HAL_Driver/Src/stm32l4xx_hal_gpio.c ****     (#) Enable the GPIO AHB clock using the following function: __HAL_RCC_GPIOx_CLK_ENABLE().
  52:Drivers/STM32L4xx_HAL_Driver/Src/stm32l4xx_hal_gpio.c **** 
  53:Drivers/STM32L4xx_HAL_Driver/Src/stm32l4xx_hal_gpio.c ****     (#) Configure the GPIO pin(s) using HAL_GPIO_Init().
  54:Drivers/STM32L4xx_HAL_Driver/Src/stm32l4xx_hal_gpio.c ****         (++) Configure the IO mode using "Mode" member from GPIO_InitTypeDef structure
  55:Drivers/STM32L4xx_HAL_Driver/Src/stm32l4xx_hal_gpio.c ****         (++) Activate Pull-up, Pull-down resistor using "Pull" member from GPIO_InitTypeDef
  56:Drivers/STM32L4xx_HAL_Driver/Src/stm32l4xx_hal_gpio.c ****              structure.
  57:Drivers/STM32L4xx_HAL_Driver/Src/stm32l4xx_hal_gpio.c ****         (++) In case of Output or alternate function mode selection: the speed is
  58:Drivers/STM32L4xx_HAL_Driver/Src/stm32l4xx_hal_gpio.c ****              configured through "Speed" member from GPIO_InitTypeDef structure.
  59:Drivers/STM32L4xx_HAL_Driver/Src/stm32l4xx_hal_gpio.c ****         (++) In alternate mode is selection, the alternate function connected to the IO
  60:Drivers/STM32L4xx_HAL_Driver/Src/stm32l4xx_hal_gpio.c ****              is configured through "Alternate" member from GPIO_InitTypeDef structure.
  61:Drivers/STM32L4xx_HAL_Driver/Src/stm32l4xx_hal_gpio.c ****         (++) Analog mode is required when a pin is to be used as ADC channel
  62:Drivers/STM32L4xx_HAL_Driver/Src/stm32l4xx_hal_gpio.c ****              or DAC output.
  63:Drivers/STM32L4xx_HAL_Driver/Src/stm32l4xx_hal_gpio.c ****         (++) In case of external interrupt/event selection the "Mode" member from
  64:Drivers/STM32L4xx_HAL_Driver/Src/stm32l4xx_hal_gpio.c ****              GPIO_InitTypeDef structure select the type (interrupt or event) and
  65:Drivers/STM32L4xx_HAL_Driver/Src/stm32l4xx_hal_gpio.c ****              the corresponding trigger event (rising or falling or both).
  66:Drivers/STM32L4xx_HAL_Driver/Src/stm32l4xx_hal_gpio.c **** 
  67:Drivers/STM32L4xx_HAL_Driver/Src/stm32l4xx_hal_gpio.c ****     (#) In case of external interrupt/event mode selection, configure NVIC IRQ priority
  68:Drivers/STM32L4xx_HAL_Driver/Src/stm32l4xx_hal_gpio.c ****         mapped to the EXTI line using HAL_NVIC_SetPriority() and enable it using
  69:Drivers/STM32L4xx_HAL_Driver/Src/stm32l4xx_hal_gpio.c ****         HAL_NVIC_EnableIRQ().
  70:Drivers/STM32L4xx_HAL_Driver/Src/stm32l4xx_hal_gpio.c **** 
  71:Drivers/STM32L4xx_HAL_Driver/Src/stm32l4xx_hal_gpio.c ****     (#) To get the level of a pin configured in input mode use HAL_GPIO_ReadPin().
  72:Drivers/STM32L4xx_HAL_Driver/Src/stm32l4xx_hal_gpio.c **** 
  73:Drivers/STM32L4xx_HAL_Driver/Src/stm32l4xx_hal_gpio.c ****     (#) To set/reset the level of a pin configured in output mode use
  74:Drivers/STM32L4xx_HAL_Driver/Src/stm32l4xx_hal_gpio.c ****         HAL_GPIO_WritePin()/HAL_GPIO_TogglePin().
  75:Drivers/STM32L4xx_HAL_Driver/Src/stm32l4xx_hal_gpio.c **** 
  76:Drivers/STM32L4xx_HAL_Driver/Src/stm32l4xx_hal_gpio.c ****    (#) To lock pin configuration until next reset use HAL_GPIO_LockPin().
  77:Drivers/STM32L4xx_HAL_Driver/Src/stm32l4xx_hal_gpio.c **** 
  78:Drivers/STM32L4xx_HAL_Driver/Src/stm32l4xx_hal_gpio.c ****     (#) During and just after reset, the alternate functions are not
  79:Drivers/STM32L4xx_HAL_Driver/Src/stm32l4xx_hal_gpio.c ****         active and the GPIO pins are configured in input floating mode (except JTAG
  80:Drivers/STM32L4xx_HAL_Driver/Src/stm32l4xx_hal_gpio.c ****         pins).
  81:Drivers/STM32L4xx_HAL_Driver/Src/stm32l4xx_hal_gpio.c **** 
  82:Drivers/STM32L4xx_HAL_Driver/Src/stm32l4xx_hal_gpio.c ****     (#) The LSE oscillator pins OSC32_IN and OSC32_OUT can be used as general purpose
  83:Drivers/STM32L4xx_HAL_Driver/Src/stm32l4xx_hal_gpio.c ****         (PC14 and PC15, respectively) when the LSE oscillator is off. The LSE has
  84:Drivers/STM32L4xx_HAL_Driver/Src/stm32l4xx_hal_gpio.c ****         priority over the GPIO function.
  85:Drivers/STM32L4xx_HAL_Driver/Src/stm32l4xx_hal_gpio.c **** 
  86:Drivers/STM32L4xx_HAL_Driver/Src/stm32l4xx_hal_gpio.c ****     (#) The HSE oscillator pins OSC_IN/OSC_OUT can be used as
  87:Drivers/STM32L4xx_HAL_Driver/Src/stm32l4xx_hal_gpio.c ****         general purpose PH0 and PH1, respectively, when the HSE oscillator is off.
ARM GAS  /tmp/ccQj0Cbr.s 			page 3


  88:Drivers/STM32L4xx_HAL_Driver/Src/stm32l4xx_hal_gpio.c ****         The HSE has priority over the GPIO function.
  89:Drivers/STM32L4xx_HAL_Driver/Src/stm32l4xx_hal_gpio.c **** 
  90:Drivers/STM32L4xx_HAL_Driver/Src/stm32l4xx_hal_gpio.c ****   @endverbatim
  91:Drivers/STM32L4xx_HAL_Driver/Src/stm32l4xx_hal_gpio.c ****   ******************************************************************************
  92:Drivers/STM32L4xx_HAL_Driver/Src/stm32l4xx_hal_gpio.c ****   * @attention
  93:Drivers/STM32L4xx_HAL_Driver/Src/stm32l4xx_hal_gpio.c ****   *
  94:Drivers/STM32L4xx_HAL_Driver/Src/stm32l4xx_hal_gpio.c ****   * <h2><center>&copy; Copyright (c) 2017 STMicroelectronics.
  95:Drivers/STM32L4xx_HAL_Driver/Src/stm32l4xx_hal_gpio.c ****   * All rights reserved.</center></h2>
  96:Drivers/STM32L4xx_HAL_Driver/Src/stm32l4xx_hal_gpio.c ****   *
  97:Drivers/STM32L4xx_HAL_Driver/Src/stm32l4xx_hal_gpio.c ****   * This software component is licensed by ST under BSD 3-Clause license,
  98:Drivers/STM32L4xx_HAL_Driver/Src/stm32l4xx_hal_gpio.c ****   * the "License"; You may not use this file except in compliance with the
  99:Drivers/STM32L4xx_HAL_Driver/Src/stm32l4xx_hal_gpio.c ****   * License. You may obtain a copy of the License at:
 100:Drivers/STM32L4xx_HAL_Driver/Src/stm32l4xx_hal_gpio.c ****   *                        opensource.org/licenses/BSD-3-Clause
 101:Drivers/STM32L4xx_HAL_Driver/Src/stm32l4xx_hal_gpio.c ****   *
 102:Drivers/STM32L4xx_HAL_Driver/Src/stm32l4xx_hal_gpio.c ****   ******************************************************************************
 103:Drivers/STM32L4xx_HAL_Driver/Src/stm32l4xx_hal_gpio.c ****   */
 104:Drivers/STM32L4xx_HAL_Driver/Src/stm32l4xx_hal_gpio.c **** 
 105:Drivers/STM32L4xx_HAL_Driver/Src/stm32l4xx_hal_gpio.c **** /* Includes ------------------------------------------------------------------*/
 106:Drivers/STM32L4xx_HAL_Driver/Src/stm32l4xx_hal_gpio.c **** #include "stm32l4xx_hal.h"
 107:Drivers/STM32L4xx_HAL_Driver/Src/stm32l4xx_hal_gpio.c **** 
 108:Drivers/STM32L4xx_HAL_Driver/Src/stm32l4xx_hal_gpio.c **** /** @addtogroup STM32L4xx_HAL_Driver
 109:Drivers/STM32L4xx_HAL_Driver/Src/stm32l4xx_hal_gpio.c ****   * @{
 110:Drivers/STM32L4xx_HAL_Driver/Src/stm32l4xx_hal_gpio.c ****   */
 111:Drivers/STM32L4xx_HAL_Driver/Src/stm32l4xx_hal_gpio.c **** 
 112:Drivers/STM32L4xx_HAL_Driver/Src/stm32l4xx_hal_gpio.c **** /** @defgroup GPIO GPIO
 113:Drivers/STM32L4xx_HAL_Driver/Src/stm32l4xx_hal_gpio.c ****   * @brief GPIO HAL module driver
 114:Drivers/STM32L4xx_HAL_Driver/Src/stm32l4xx_hal_gpio.c ****   * @{
 115:Drivers/STM32L4xx_HAL_Driver/Src/stm32l4xx_hal_gpio.c ****   */
 116:Drivers/STM32L4xx_HAL_Driver/Src/stm32l4xx_hal_gpio.c **** /** MISRA C:2012 deviation rule has been granted for following rules:
 117:Drivers/STM32L4xx_HAL_Driver/Src/stm32l4xx_hal_gpio.c ****   * Rule-12.2 - Medium: RHS argument is in interval [0,INF] which is out of
 118:Drivers/STM32L4xx_HAL_Driver/Src/stm32l4xx_hal_gpio.c ****   * range of the shift operator in following API :
 119:Drivers/STM32L4xx_HAL_Driver/Src/stm32l4xx_hal_gpio.c ****   * HAL_GPIO_Init
 120:Drivers/STM32L4xx_HAL_Driver/Src/stm32l4xx_hal_gpio.c ****   * HAL_GPIO_DeInit
 121:Drivers/STM32L4xx_HAL_Driver/Src/stm32l4xx_hal_gpio.c ****   */
 122:Drivers/STM32L4xx_HAL_Driver/Src/stm32l4xx_hal_gpio.c **** 
 123:Drivers/STM32L4xx_HAL_Driver/Src/stm32l4xx_hal_gpio.c **** #ifdef HAL_GPIO_MODULE_ENABLED
 124:Drivers/STM32L4xx_HAL_Driver/Src/stm32l4xx_hal_gpio.c **** 
 125:Drivers/STM32L4xx_HAL_Driver/Src/stm32l4xx_hal_gpio.c **** /* Private typedef -----------------------------------------------------------*/
 126:Drivers/STM32L4xx_HAL_Driver/Src/stm32l4xx_hal_gpio.c **** /* Private defines -----------------------------------------------------------*/
 127:Drivers/STM32L4xx_HAL_Driver/Src/stm32l4xx_hal_gpio.c **** /** @defgroup GPIO_Private_Defines GPIO Private Defines
 128:Drivers/STM32L4xx_HAL_Driver/Src/stm32l4xx_hal_gpio.c ****   * @{
 129:Drivers/STM32L4xx_HAL_Driver/Src/stm32l4xx_hal_gpio.c ****   */
 130:Drivers/STM32L4xx_HAL_Driver/Src/stm32l4xx_hal_gpio.c **** #define GPIO_MODE             (0x00000003u)
 131:Drivers/STM32L4xx_HAL_Driver/Src/stm32l4xx_hal_gpio.c **** #define ANALOG_MODE           (0x00000008u)
 132:Drivers/STM32L4xx_HAL_Driver/Src/stm32l4xx_hal_gpio.c **** #define EXTI_MODE             (0x10000000u)
 133:Drivers/STM32L4xx_HAL_Driver/Src/stm32l4xx_hal_gpio.c **** #define GPIO_MODE_IT          (0x00010000u)
 134:Drivers/STM32L4xx_HAL_Driver/Src/stm32l4xx_hal_gpio.c **** #define GPIO_MODE_EVT         (0x00020000u)
 135:Drivers/STM32L4xx_HAL_Driver/Src/stm32l4xx_hal_gpio.c **** #define RISING_EDGE           (0x00100000u)
 136:Drivers/STM32L4xx_HAL_Driver/Src/stm32l4xx_hal_gpio.c **** #define FALLING_EDGE          (0x00200000u)
 137:Drivers/STM32L4xx_HAL_Driver/Src/stm32l4xx_hal_gpio.c **** #define GPIO_OUTPUT_TYPE      (0x00000010u)
 138:Drivers/STM32L4xx_HAL_Driver/Src/stm32l4xx_hal_gpio.c **** 
 139:Drivers/STM32L4xx_HAL_Driver/Src/stm32l4xx_hal_gpio.c **** #define GPIO_NUMBER           (16u)
 140:Drivers/STM32L4xx_HAL_Driver/Src/stm32l4xx_hal_gpio.c **** /**
 141:Drivers/STM32L4xx_HAL_Driver/Src/stm32l4xx_hal_gpio.c ****   * @}
 142:Drivers/STM32L4xx_HAL_Driver/Src/stm32l4xx_hal_gpio.c ****   */
 143:Drivers/STM32L4xx_HAL_Driver/Src/stm32l4xx_hal_gpio.c **** 
 144:Drivers/STM32L4xx_HAL_Driver/Src/stm32l4xx_hal_gpio.c **** /* Private macros ------------------------------------------------------------*/
ARM GAS  /tmp/ccQj0Cbr.s 			page 4


 145:Drivers/STM32L4xx_HAL_Driver/Src/stm32l4xx_hal_gpio.c **** /* Private variables ---------------------------------------------------------*/
 146:Drivers/STM32L4xx_HAL_Driver/Src/stm32l4xx_hal_gpio.c **** /* Private function prototypes -----------------------------------------------*/
 147:Drivers/STM32L4xx_HAL_Driver/Src/stm32l4xx_hal_gpio.c **** /* Exported functions --------------------------------------------------------*/
 148:Drivers/STM32L4xx_HAL_Driver/Src/stm32l4xx_hal_gpio.c **** 
 149:Drivers/STM32L4xx_HAL_Driver/Src/stm32l4xx_hal_gpio.c **** /** @defgroup GPIO_Exported_Functions GPIO Exported Functions
 150:Drivers/STM32L4xx_HAL_Driver/Src/stm32l4xx_hal_gpio.c ****   * @{
 151:Drivers/STM32L4xx_HAL_Driver/Src/stm32l4xx_hal_gpio.c ****   */
 152:Drivers/STM32L4xx_HAL_Driver/Src/stm32l4xx_hal_gpio.c **** 
 153:Drivers/STM32L4xx_HAL_Driver/Src/stm32l4xx_hal_gpio.c **** /** @defgroup GPIO_Exported_Functions_Group1 Initialization/de-initialization functions
 154:Drivers/STM32L4xx_HAL_Driver/Src/stm32l4xx_hal_gpio.c ****  *  @brief    Initialization and Configuration functions
 155:Drivers/STM32L4xx_HAL_Driver/Src/stm32l4xx_hal_gpio.c ****  *
 156:Drivers/STM32L4xx_HAL_Driver/Src/stm32l4xx_hal_gpio.c **** @verbatim
 157:Drivers/STM32L4xx_HAL_Driver/Src/stm32l4xx_hal_gpio.c ****  ===============================================================================
 158:Drivers/STM32L4xx_HAL_Driver/Src/stm32l4xx_hal_gpio.c ****               ##### Initialization and de-initialization functions #####
 159:Drivers/STM32L4xx_HAL_Driver/Src/stm32l4xx_hal_gpio.c ****  ===============================================================================
 160:Drivers/STM32L4xx_HAL_Driver/Src/stm32l4xx_hal_gpio.c **** 
 161:Drivers/STM32L4xx_HAL_Driver/Src/stm32l4xx_hal_gpio.c **** @endverbatim
 162:Drivers/STM32L4xx_HAL_Driver/Src/stm32l4xx_hal_gpio.c ****   * @{
 163:Drivers/STM32L4xx_HAL_Driver/Src/stm32l4xx_hal_gpio.c ****   */
 164:Drivers/STM32L4xx_HAL_Driver/Src/stm32l4xx_hal_gpio.c **** 
 165:Drivers/STM32L4xx_HAL_Driver/Src/stm32l4xx_hal_gpio.c **** /**
 166:Drivers/STM32L4xx_HAL_Driver/Src/stm32l4xx_hal_gpio.c ****   * @brief  Initialize the GPIOx peripheral according to the specified parameters in the GPIO_Init.
 167:Drivers/STM32L4xx_HAL_Driver/Src/stm32l4xx_hal_gpio.c ****   * @param  GPIOx where x can be (A..H) to select the GPIO peripheral for STM32L4 family
 168:Drivers/STM32L4xx_HAL_Driver/Src/stm32l4xx_hal_gpio.c ****   * @param  GPIO_Init pointer to a GPIO_InitTypeDef structure that contains
 169:Drivers/STM32L4xx_HAL_Driver/Src/stm32l4xx_hal_gpio.c ****   *         the configuration information for the specified GPIO peripheral.
 170:Drivers/STM32L4xx_HAL_Driver/Src/stm32l4xx_hal_gpio.c ****   * @retval None
 171:Drivers/STM32L4xx_HAL_Driver/Src/stm32l4xx_hal_gpio.c ****   */
 172:Drivers/STM32L4xx_HAL_Driver/Src/stm32l4xx_hal_gpio.c **** void HAL_GPIO_Init(GPIO_TypeDef  *GPIOx, GPIO_InitTypeDef *GPIO_Init)
 173:Drivers/STM32L4xx_HAL_Driver/Src/stm32l4xx_hal_gpio.c **** {
  29              		.loc 1 173 1
  30              		.cfi_startproc
  31              		@ args = 0, pretend = 0, frame = 24
  32              		@ frame_needed = 1, uses_anonymous_args = 0
  33              		@ link register save eliminated.
  34 0000 80B4     		push	{r7}
  35              	.LCFI0:
  36              		.cfi_def_cfa_offset 4
  37              		.cfi_offset 7, -4
  38 0002 87B0     		sub	sp, sp, #28
  39              	.LCFI1:
  40              		.cfi_def_cfa_offset 32
  41 0004 00AF     		add	r7, sp, #0
  42              	.LCFI2:
  43              		.cfi_def_cfa_register 7
  44 0006 7860     		str	r0, [r7, #4]
  45 0008 3960     		str	r1, [r7]
 174:Drivers/STM32L4xx_HAL_Driver/Src/stm32l4xx_hal_gpio.c ****   uint32_t position = 0x00u;
  46              		.loc 1 174 12
  47 000a 0023     		movs	r3, #0
  48 000c 7B61     		str	r3, [r7, #20]
 175:Drivers/STM32L4xx_HAL_Driver/Src/stm32l4xx_hal_gpio.c ****   uint32_t iocurrent;
 176:Drivers/STM32L4xx_HAL_Driver/Src/stm32l4xx_hal_gpio.c ****   uint32_t temp;
 177:Drivers/STM32L4xx_HAL_Driver/Src/stm32l4xx_hal_gpio.c **** 
 178:Drivers/STM32L4xx_HAL_Driver/Src/stm32l4xx_hal_gpio.c ****   /* Check the parameters */
 179:Drivers/STM32L4xx_HAL_Driver/Src/stm32l4xx_hal_gpio.c ****   assert_param(IS_GPIO_ALL_INSTANCE(GPIOx));
 180:Drivers/STM32L4xx_HAL_Driver/Src/stm32l4xx_hal_gpio.c ****   assert_param(IS_GPIO_PIN(GPIO_Init->Pin));
 181:Drivers/STM32L4xx_HAL_Driver/Src/stm32l4xx_hal_gpio.c ****   assert_param(IS_GPIO_MODE(GPIO_Init->Mode));
ARM GAS  /tmp/ccQj0Cbr.s 			page 5


 182:Drivers/STM32L4xx_HAL_Driver/Src/stm32l4xx_hal_gpio.c ****   assert_param(IS_GPIO_PULL(GPIO_Init->Pull));
 183:Drivers/STM32L4xx_HAL_Driver/Src/stm32l4xx_hal_gpio.c **** 
 184:Drivers/STM32L4xx_HAL_Driver/Src/stm32l4xx_hal_gpio.c ****   /* Configure the port pins */
 185:Drivers/STM32L4xx_HAL_Driver/Src/stm32l4xx_hal_gpio.c ****   while (((GPIO_Init->Pin) >> position) != 0x00u)
  49              		.loc 1 185 9
  50 000e 48E1     		b	.L2
  51              	.L18:
 186:Drivers/STM32L4xx_HAL_Driver/Src/stm32l4xx_hal_gpio.c ****   {
 187:Drivers/STM32L4xx_HAL_Driver/Src/stm32l4xx_hal_gpio.c ****     /* Get current io position */
 188:Drivers/STM32L4xx_HAL_Driver/Src/stm32l4xx_hal_gpio.c ****     iocurrent = (GPIO_Init->Pin) & (1uL << position);
  52              		.loc 1 188 27
  53 0010 3B68     		ldr	r3, [r7]
  54 0012 1A68     		ldr	r2, [r3]
  55              		.loc 1 188 41
  56 0014 0121     		movs	r1, #1
  57 0016 7B69     		ldr	r3, [r7, #20]
  58 0018 01FA03F3 		lsl	r3, r1, r3
  59              		.loc 1 188 15
  60 001c 1340     		ands	r3, r3, r2
  61 001e FB60     		str	r3, [r7, #12]
 189:Drivers/STM32L4xx_HAL_Driver/Src/stm32l4xx_hal_gpio.c **** 
 190:Drivers/STM32L4xx_HAL_Driver/Src/stm32l4xx_hal_gpio.c ****     if (iocurrent != 0x00u)
  62              		.loc 1 190 8
  63 0020 FB68     		ldr	r3, [r7, #12]
  64 0022 002B     		cmp	r3, #0
  65 0024 00F03A81 		beq	.L3
 191:Drivers/STM32L4xx_HAL_Driver/Src/stm32l4xx_hal_gpio.c ****     {
 192:Drivers/STM32L4xx_HAL_Driver/Src/stm32l4xx_hal_gpio.c ****       /*--------------------- GPIO Mode Configuration ------------------------*/
 193:Drivers/STM32L4xx_HAL_Driver/Src/stm32l4xx_hal_gpio.c ****       /* In case of Output or Alternate function mode selection */
 194:Drivers/STM32L4xx_HAL_Driver/Src/stm32l4xx_hal_gpio.c ****       if((GPIO_Init->Mode == GPIO_MODE_OUTPUT_PP) || (GPIO_Init->Mode == GPIO_MODE_AF_PP) ||
  66              		.loc 1 194 20
  67 0028 3B68     		ldr	r3, [r7]
  68 002a 5B68     		ldr	r3, [r3, #4]
  69              		.loc 1 194 9
  70 002c 012B     		cmp	r3, #1
  71 002e 0BD0     		beq	.L4
  72              		.loc 1 194 64 discriminator 1
  73 0030 3B68     		ldr	r3, [r7]
  74 0032 5B68     		ldr	r3, [r3, #4]
  75              		.loc 1 194 51 discriminator 1
  76 0034 022B     		cmp	r3, #2
  77 0036 07D0     		beq	.L4
 195:Drivers/STM32L4xx_HAL_Driver/Src/stm32l4xx_hal_gpio.c ****          (GPIO_Init->Mode == GPIO_MODE_OUTPUT_OD) || (GPIO_Init->Mode == GPIO_MODE_AF_OD))
  78              		.loc 1 195 20 discriminator 2
  79 0038 3B68     		ldr	r3, [r7]
  80 003a 5B68     		ldr	r3, [r3, #4]
 194:Drivers/STM32L4xx_HAL_Driver/Src/stm32l4xx_hal_gpio.c ****          (GPIO_Init->Mode == GPIO_MODE_OUTPUT_OD) || (GPIO_Init->Mode == GPIO_MODE_AF_OD))
  81              		.loc 1 194 91 discriminator 2
  82 003c 112B     		cmp	r3, #17
  83 003e 03D0     		beq	.L4
  84              		.loc 1 195 64
  85 0040 3B68     		ldr	r3, [r7]
  86 0042 5B68     		ldr	r3, [r3, #4]
  87              		.loc 1 195 51
  88 0044 122B     		cmp	r3, #18
  89 0046 30D1     		bne	.L5
  90              	.L4:
ARM GAS  /tmp/ccQj0Cbr.s 			page 6


 196:Drivers/STM32L4xx_HAL_Driver/Src/stm32l4xx_hal_gpio.c ****       {
 197:Drivers/STM32L4xx_HAL_Driver/Src/stm32l4xx_hal_gpio.c ****         /* Check the Speed parameter */
 198:Drivers/STM32L4xx_HAL_Driver/Src/stm32l4xx_hal_gpio.c ****         assert_param(IS_GPIO_SPEED(GPIO_Init->Speed));
 199:Drivers/STM32L4xx_HAL_Driver/Src/stm32l4xx_hal_gpio.c ****         /* Configure the IO Speed */
 200:Drivers/STM32L4xx_HAL_Driver/Src/stm32l4xx_hal_gpio.c ****         temp = GPIOx->OSPEEDR;
  91              		.loc 1 200 14
  92 0048 7B68     		ldr	r3, [r7, #4]
  93 004a 9B68     		ldr	r3, [r3, #8]
  94 004c 3B61     		str	r3, [r7, #16]
 201:Drivers/STM32L4xx_HAL_Driver/Src/stm32l4xx_hal_gpio.c ****         temp &= ~(GPIO_OSPEEDR_OSPEED0 << (position * 2u));
  95              		.loc 1 201 53
  96 004e 7B69     		ldr	r3, [r7, #20]
  97 0050 5B00     		lsls	r3, r3, #1
  98              		.loc 1 201 40
  99 0052 0322     		movs	r2, #3
 100 0054 02FA03F3 		lsl	r3, r2, r3
 101              		.loc 1 201 17
 102 0058 DB43     		mvns	r3, r3
 103              		.loc 1 201 14
 104 005a 3A69     		ldr	r2, [r7, #16]
 105 005c 1340     		ands	r3, r3, r2
 106 005e 3B61     		str	r3, [r7, #16]
 202:Drivers/STM32L4xx_HAL_Driver/Src/stm32l4xx_hal_gpio.c ****         temp |= (GPIO_Init->Speed << (position * 2u));
 107              		.loc 1 202 27
 108 0060 3B68     		ldr	r3, [r7]
 109 0062 DA68     		ldr	r2, [r3, #12]
 110              		.loc 1 202 48
 111 0064 7B69     		ldr	r3, [r7, #20]
 112 0066 5B00     		lsls	r3, r3, #1
 113              		.loc 1 202 35
 114 0068 02FA03F3 		lsl	r3, r2, r3
 115              		.loc 1 202 14
 116 006c 3A69     		ldr	r2, [r7, #16]
 117 006e 1343     		orrs	r3, r3, r2
 118 0070 3B61     		str	r3, [r7, #16]
 203:Drivers/STM32L4xx_HAL_Driver/Src/stm32l4xx_hal_gpio.c ****         GPIOx->OSPEEDR = temp;
 119              		.loc 1 203 24
 120 0072 7B68     		ldr	r3, [r7, #4]
 121 0074 3A69     		ldr	r2, [r7, #16]
 122 0076 9A60     		str	r2, [r3, #8]
 204:Drivers/STM32L4xx_HAL_Driver/Src/stm32l4xx_hal_gpio.c **** 
 205:Drivers/STM32L4xx_HAL_Driver/Src/stm32l4xx_hal_gpio.c ****         /* Configure the IO Output Type */
 206:Drivers/STM32L4xx_HAL_Driver/Src/stm32l4xx_hal_gpio.c ****         temp = GPIOx->OTYPER;
 123              		.loc 1 206 14
 124 0078 7B68     		ldr	r3, [r7, #4]
 125 007a 5B68     		ldr	r3, [r3, #4]
 126 007c 3B61     		str	r3, [r7, #16]
 207:Drivers/STM32L4xx_HAL_Driver/Src/stm32l4xx_hal_gpio.c ****         temp &= ~(GPIO_OTYPER_OT0 << position) ;
 127              		.loc 1 207 35
 128 007e 0122     		movs	r2, #1
 129 0080 7B69     		ldr	r3, [r7, #20]
 130 0082 02FA03F3 		lsl	r3, r2, r3
 131              		.loc 1 207 17
 132 0086 DB43     		mvns	r3, r3
 133              		.loc 1 207 14
 134 0088 3A69     		ldr	r2, [r7, #16]
 135 008a 1340     		ands	r3, r3, r2
ARM GAS  /tmp/ccQj0Cbr.s 			page 7


 136 008c 3B61     		str	r3, [r7, #16]
 208:Drivers/STM32L4xx_HAL_Driver/Src/stm32l4xx_hal_gpio.c ****         temp |= (((GPIO_Init->Mode & GPIO_OUTPUT_TYPE) >> 4u) << position);
 137              		.loc 1 208 29
 138 008e 3B68     		ldr	r3, [r7]
 139 0090 5B68     		ldr	r3, [r3, #4]
 140              		.loc 1 208 56
 141 0092 1B09     		lsrs	r3, r3, #4
 142 0094 03F00102 		and	r2, r3, #1
 143              		.loc 1 208 63
 144 0098 7B69     		ldr	r3, [r7, #20]
 145 009a 02FA03F3 		lsl	r3, r2, r3
 146              		.loc 1 208 14
 147 009e 3A69     		ldr	r2, [r7, #16]
 148 00a0 1343     		orrs	r3, r3, r2
 149 00a2 3B61     		str	r3, [r7, #16]
 209:Drivers/STM32L4xx_HAL_Driver/Src/stm32l4xx_hal_gpio.c ****         GPIOx->OTYPER = temp;
 150              		.loc 1 209 23
 151 00a4 7B68     		ldr	r3, [r7, #4]
 152 00a6 3A69     		ldr	r2, [r7, #16]
 153 00a8 5A60     		str	r2, [r3, #4]
 154              	.L5:
 210:Drivers/STM32L4xx_HAL_Driver/Src/stm32l4xx_hal_gpio.c ****       }
 211:Drivers/STM32L4xx_HAL_Driver/Src/stm32l4xx_hal_gpio.c **** 
 212:Drivers/STM32L4xx_HAL_Driver/Src/stm32l4xx_hal_gpio.c **** #if defined(STM32L471xx) || defined(STM32L475xx) || defined(STM32L476xx) || defined(STM32L485xx) ||
 213:Drivers/STM32L4xx_HAL_Driver/Src/stm32l4xx_hal_gpio.c **** 
 214:Drivers/STM32L4xx_HAL_Driver/Src/stm32l4xx_hal_gpio.c ****       /* In case of Analog mode, check if ADC control mode is selected */
 215:Drivers/STM32L4xx_HAL_Driver/Src/stm32l4xx_hal_gpio.c ****       if((GPIO_Init->Mode & GPIO_MODE_ANALOG) == GPIO_MODE_ANALOG)
 216:Drivers/STM32L4xx_HAL_Driver/Src/stm32l4xx_hal_gpio.c ****       {
 217:Drivers/STM32L4xx_HAL_Driver/Src/stm32l4xx_hal_gpio.c ****         /* Configure the IO Output Type */
 218:Drivers/STM32L4xx_HAL_Driver/Src/stm32l4xx_hal_gpio.c ****         temp = GPIOx->ASCR;
 219:Drivers/STM32L4xx_HAL_Driver/Src/stm32l4xx_hal_gpio.c ****         temp &= ~(GPIO_ASCR_ASC0 << position) ;
 220:Drivers/STM32L4xx_HAL_Driver/Src/stm32l4xx_hal_gpio.c ****         temp |= (((GPIO_Init->Mode & ANALOG_MODE) >> 3) << position);
 221:Drivers/STM32L4xx_HAL_Driver/Src/stm32l4xx_hal_gpio.c ****         GPIOx->ASCR = temp;
 222:Drivers/STM32L4xx_HAL_Driver/Src/stm32l4xx_hal_gpio.c ****       }
 223:Drivers/STM32L4xx_HAL_Driver/Src/stm32l4xx_hal_gpio.c **** 
 224:Drivers/STM32L4xx_HAL_Driver/Src/stm32l4xx_hal_gpio.c **** #endif /* STM32L471xx || STM32L475xx || STM32L476xx || STM32L485xx || STM32L486xx */
 225:Drivers/STM32L4xx_HAL_Driver/Src/stm32l4xx_hal_gpio.c **** 
 226:Drivers/STM32L4xx_HAL_Driver/Src/stm32l4xx_hal_gpio.c ****       /* Activate the Pull-up or Pull down resistor for the current IO */
 227:Drivers/STM32L4xx_HAL_Driver/Src/stm32l4xx_hal_gpio.c ****       temp = GPIOx->PUPDR;
 155              		.loc 1 227 12
 156 00aa 7B68     		ldr	r3, [r7, #4]
 157 00ac DB68     		ldr	r3, [r3, #12]
 158 00ae 3B61     		str	r3, [r7, #16]
 228:Drivers/STM32L4xx_HAL_Driver/Src/stm32l4xx_hal_gpio.c ****       temp &= ~(GPIO_PUPDR_PUPD0 << (position * 2u));
 159              		.loc 1 228 47
 160 00b0 7B69     		ldr	r3, [r7, #20]
 161 00b2 5B00     		lsls	r3, r3, #1
 162              		.loc 1 228 34
 163 00b4 0322     		movs	r2, #3
 164 00b6 02FA03F3 		lsl	r3, r2, r3
 165              		.loc 1 228 15
 166 00ba DB43     		mvns	r3, r3
 167              		.loc 1 228 12
 168 00bc 3A69     		ldr	r2, [r7, #16]
 169 00be 1340     		ands	r3, r3, r2
 170 00c0 3B61     		str	r3, [r7, #16]
 229:Drivers/STM32L4xx_HAL_Driver/Src/stm32l4xx_hal_gpio.c ****       temp |= ((GPIO_Init->Pull) << (position * 2u));
ARM GAS  /tmp/ccQj0Cbr.s 			page 8


 171              		.loc 1 229 26
 172 00c2 3B68     		ldr	r3, [r7]
 173 00c4 9A68     		ldr	r2, [r3, #8]
 174              		.loc 1 229 47
 175 00c6 7B69     		ldr	r3, [r7, #20]
 176 00c8 5B00     		lsls	r3, r3, #1
 177              		.loc 1 229 34
 178 00ca 02FA03F3 		lsl	r3, r2, r3
 179              		.loc 1 229 12
 180 00ce 3A69     		ldr	r2, [r7, #16]
 181 00d0 1343     		orrs	r3, r3, r2
 182 00d2 3B61     		str	r3, [r7, #16]
 230:Drivers/STM32L4xx_HAL_Driver/Src/stm32l4xx_hal_gpio.c ****       GPIOx->PUPDR = temp;
 183              		.loc 1 230 20
 184 00d4 7B68     		ldr	r3, [r7, #4]
 185 00d6 3A69     		ldr	r2, [r7, #16]
 186 00d8 DA60     		str	r2, [r3, #12]
 231:Drivers/STM32L4xx_HAL_Driver/Src/stm32l4xx_hal_gpio.c **** 
 232:Drivers/STM32L4xx_HAL_Driver/Src/stm32l4xx_hal_gpio.c ****       /* In case of Alternate function mode selection */
 233:Drivers/STM32L4xx_HAL_Driver/Src/stm32l4xx_hal_gpio.c ****       if((GPIO_Init->Mode == GPIO_MODE_AF_PP) || (GPIO_Init->Mode == GPIO_MODE_AF_OD))
 187              		.loc 1 233 20
 188 00da 3B68     		ldr	r3, [r7]
 189 00dc 5B68     		ldr	r3, [r3, #4]
 190              		.loc 1 233 9
 191 00de 022B     		cmp	r3, #2
 192 00e0 03D0     		beq	.L6
 193              		.loc 1 233 60 discriminator 1
 194 00e2 3B68     		ldr	r3, [r7]
 195 00e4 5B68     		ldr	r3, [r3, #4]
 196              		.loc 1 233 47 discriminator 1
 197 00e6 122B     		cmp	r3, #18
 198 00e8 23D1     		bne	.L7
 199              	.L6:
 234:Drivers/STM32L4xx_HAL_Driver/Src/stm32l4xx_hal_gpio.c ****       {
 235:Drivers/STM32L4xx_HAL_Driver/Src/stm32l4xx_hal_gpio.c ****         /* Check the Alternate function parameters */
 236:Drivers/STM32L4xx_HAL_Driver/Src/stm32l4xx_hal_gpio.c ****         assert_param(IS_GPIO_AF_INSTANCE(GPIOx));
 237:Drivers/STM32L4xx_HAL_Driver/Src/stm32l4xx_hal_gpio.c ****         assert_param(IS_GPIO_AF(GPIO_Init->Alternate));
 238:Drivers/STM32L4xx_HAL_Driver/Src/stm32l4xx_hal_gpio.c **** 
 239:Drivers/STM32L4xx_HAL_Driver/Src/stm32l4xx_hal_gpio.c ****         /* Configure Alternate function mapped with the current IO */
 240:Drivers/STM32L4xx_HAL_Driver/Src/stm32l4xx_hal_gpio.c ****         temp = GPIOx->AFR[position >> 3u];
 200              		.loc 1 240 36
 201 00ea 7B69     		ldr	r3, [r7, #20]
 202 00ec DA08     		lsrs	r2, r3, #3
 203              		.loc 1 240 14
 204 00ee 7B68     		ldr	r3, [r7, #4]
 205 00f0 0832     		adds	r2, r2, #8
 206 00f2 53F82230 		ldr	r3, [r3, r2, lsl #2]
 207 00f6 3B61     		str	r3, [r7, #16]
 241:Drivers/STM32L4xx_HAL_Driver/Src/stm32l4xx_hal_gpio.c ****         temp &= ~(0xFu << ((position & 0x07u) * 4u));
 208              		.loc 1 241 38
 209 00f8 7B69     		ldr	r3, [r7, #20]
 210 00fa 03F00703 		and	r3, r3, #7
 211              		.loc 1 241 47
 212 00fe 9B00     		lsls	r3, r3, #2
 213              		.loc 1 241 24
 214 0100 0F22     		movs	r2, #15
 215 0102 02FA03F3 		lsl	r3, r2, r3
ARM GAS  /tmp/ccQj0Cbr.s 			page 9


 216              		.loc 1 241 17
 217 0106 DB43     		mvns	r3, r3
 218              		.loc 1 241 14
 219 0108 3A69     		ldr	r2, [r7, #16]
 220 010a 1340     		ands	r3, r3, r2
 221 010c 3B61     		str	r3, [r7, #16]
 242:Drivers/STM32L4xx_HAL_Driver/Src/stm32l4xx_hal_gpio.c ****         temp |= ((GPIO_Init->Alternate) << ((position & 0x07u) * 4u));
 222              		.loc 1 242 28
 223 010e 3B68     		ldr	r3, [r7]
 224 0110 1A69     		ldr	r2, [r3, #16]
 225              		.loc 1 242 55
 226 0112 7B69     		ldr	r3, [r7, #20]
 227 0114 03F00703 		and	r3, r3, #7
 228              		.loc 1 242 64
 229 0118 9B00     		lsls	r3, r3, #2
 230              		.loc 1 242 41
 231 011a 02FA03F3 		lsl	r3, r2, r3
 232              		.loc 1 242 14
 233 011e 3A69     		ldr	r2, [r7, #16]
 234 0120 1343     		orrs	r3, r3, r2
 235 0122 3B61     		str	r3, [r7, #16]
 243:Drivers/STM32L4xx_HAL_Driver/Src/stm32l4xx_hal_gpio.c ****         GPIOx->AFR[position >> 3u] = temp;
 236              		.loc 1 243 29
 237 0124 7B69     		ldr	r3, [r7, #20]
 238 0126 DA08     		lsrs	r2, r3, #3
 239              		.loc 1 243 36
 240 0128 7B68     		ldr	r3, [r7, #4]
 241 012a 0832     		adds	r2, r2, #8
 242 012c 3969     		ldr	r1, [r7, #16]
 243 012e 43F82210 		str	r1, [r3, r2, lsl #2]
 244              	.L7:
 244:Drivers/STM32L4xx_HAL_Driver/Src/stm32l4xx_hal_gpio.c ****       }
 245:Drivers/STM32L4xx_HAL_Driver/Src/stm32l4xx_hal_gpio.c **** 
 246:Drivers/STM32L4xx_HAL_Driver/Src/stm32l4xx_hal_gpio.c ****       /* Configure IO Direction mode (Input, Output, Alternate or Analog) */
 247:Drivers/STM32L4xx_HAL_Driver/Src/stm32l4xx_hal_gpio.c ****       temp = GPIOx->MODER;
 245              		.loc 1 247 12
 246 0132 7B68     		ldr	r3, [r7, #4]
 247 0134 1B68     		ldr	r3, [r3]
 248 0136 3B61     		str	r3, [r7, #16]
 248:Drivers/STM32L4xx_HAL_Driver/Src/stm32l4xx_hal_gpio.c ****       temp &= ~(GPIO_MODER_MODE0 << (position * 2u));
 249              		.loc 1 248 47
 250 0138 7B69     		ldr	r3, [r7, #20]
 251 013a 5B00     		lsls	r3, r3, #1
 252              		.loc 1 248 34
 253 013c 0322     		movs	r2, #3
 254 013e 02FA03F3 		lsl	r3, r2, r3
 255              		.loc 1 248 15
 256 0142 DB43     		mvns	r3, r3
 257              		.loc 1 248 12
 258 0144 3A69     		ldr	r2, [r7, #16]
 259 0146 1340     		ands	r3, r3, r2
 260 0148 3B61     		str	r3, [r7, #16]
 249:Drivers/STM32L4xx_HAL_Driver/Src/stm32l4xx_hal_gpio.c ****       temp |= ((GPIO_Init->Mode & GPIO_MODE) << (position * 2u));
 261              		.loc 1 249 26
 262 014a 3B68     		ldr	r3, [r7]
 263 014c 5B68     		ldr	r3, [r3, #4]
 264              		.loc 1 249 33
ARM GAS  /tmp/ccQj0Cbr.s 			page 10


 265 014e 03F00302 		and	r2, r3, #3
 266              		.loc 1 249 59
 267 0152 7B69     		ldr	r3, [r7, #20]
 268 0154 5B00     		lsls	r3, r3, #1
 269              		.loc 1 249 46
 270 0156 02FA03F3 		lsl	r3, r2, r3
 271              		.loc 1 249 12
 272 015a 3A69     		ldr	r2, [r7, #16]
 273 015c 1343     		orrs	r3, r3, r2
 274 015e 3B61     		str	r3, [r7, #16]
 250:Drivers/STM32L4xx_HAL_Driver/Src/stm32l4xx_hal_gpio.c ****       GPIOx->MODER = temp;
 275              		.loc 1 250 20
 276 0160 7B68     		ldr	r3, [r7, #4]
 277 0162 3A69     		ldr	r2, [r7, #16]
 278 0164 1A60     		str	r2, [r3]
 251:Drivers/STM32L4xx_HAL_Driver/Src/stm32l4xx_hal_gpio.c **** 
 252:Drivers/STM32L4xx_HAL_Driver/Src/stm32l4xx_hal_gpio.c ****       /*--------------------- EXTI Mode Configuration ------------------------*/
 253:Drivers/STM32L4xx_HAL_Driver/Src/stm32l4xx_hal_gpio.c ****       /* Configure the External Interrupt or event for the current IO */
 254:Drivers/STM32L4xx_HAL_Driver/Src/stm32l4xx_hal_gpio.c ****       if((GPIO_Init->Mode & EXTI_MODE) == EXTI_MODE)
 279              		.loc 1 254 20
 280 0166 3B68     		ldr	r3, [r7]
 281 0168 5B68     		ldr	r3, [r3, #4]
 282              		.loc 1 254 27
 283 016a 03F08053 		and	r3, r3, #268435456
 284              		.loc 1 254 9
 285 016e 002B     		cmp	r3, #0
 286 0170 00F09480 		beq	.L3
 287              	.LBB2:
 255:Drivers/STM32L4xx_HAL_Driver/Src/stm32l4xx_hal_gpio.c ****       {
 256:Drivers/STM32L4xx_HAL_Driver/Src/stm32l4xx_hal_gpio.c ****         /* Enable SYSCFG Clock */
 257:Drivers/STM32L4xx_HAL_Driver/Src/stm32l4xx_hal_gpio.c ****         __HAL_RCC_SYSCFG_CLK_ENABLE();
 288              		.loc 1 257 9
 289 0174 524B     		ldr	r3, .L19
 290 0176 1B6E     		ldr	r3, [r3, #96]
 291 0178 514A     		ldr	r2, .L19
 292 017a 43F00103 		orr	r3, r3, #1
 293 017e 1366     		str	r3, [r2, #96]
 294 0180 4F4B     		ldr	r3, .L19
 295 0182 1B6E     		ldr	r3, [r3, #96]
 296 0184 03F00103 		and	r3, r3, #1
 297 0188 BB60     		str	r3, [r7, #8]
 298 018a BB68     		ldr	r3, [r7, #8]
 299              	.LBE2:
 258:Drivers/STM32L4xx_HAL_Driver/Src/stm32l4xx_hal_gpio.c **** 
 259:Drivers/STM32L4xx_HAL_Driver/Src/stm32l4xx_hal_gpio.c ****         temp = SYSCFG->EXTICR[position >> 2u];
 300              		.loc 1 259 22
 301 018c 4D4A     		ldr	r2, .L19+4
 302              		.loc 1 259 40
 303 018e 7B69     		ldr	r3, [r7, #20]
 304 0190 9B08     		lsrs	r3, r3, #2
 305              		.loc 1 259 14
 306 0192 0233     		adds	r3, r3, #2
 307 0194 52F82330 		ldr	r3, [r2, r3, lsl #2]
 308 0198 3B61     		str	r3, [r7, #16]
 260:Drivers/STM32L4xx_HAL_Driver/Src/stm32l4xx_hal_gpio.c ****         temp &= ~(0x0FuL << (4u * (position & 0x03u)));
 309              		.loc 1 260 45
 310 019a 7B69     		ldr	r3, [r7, #20]
ARM GAS  /tmp/ccQj0Cbr.s 			page 11


 311 019c 03F00303 		and	r3, r3, #3
 312              		.loc 1 260 33
 313 01a0 9B00     		lsls	r3, r3, #2
 314              		.loc 1 260 26
 315 01a2 0F22     		movs	r2, #15
 316 01a4 02FA03F3 		lsl	r3, r2, r3
 317              		.loc 1 260 17
 318 01a8 DB43     		mvns	r3, r3
 319              		.loc 1 260 14
 320 01aa 3A69     		ldr	r2, [r7, #16]
 321 01ac 1340     		ands	r3, r3, r2
 322 01ae 3B61     		str	r3, [r7, #16]
 261:Drivers/STM32L4xx_HAL_Driver/Src/stm32l4xx_hal_gpio.c ****         temp |= (GPIO_GET_INDEX(GPIOx) << (4u * (position & 0x03u)));
 323              		.loc 1 261 18
 324 01b0 7B68     		ldr	r3, [r7, #4]
 325 01b2 B3F1904F 		cmp	r3, #1207959552
 326 01b6 0DD0     		beq	.L8
 327              		.loc 1 261 18 is_stmt 0 discriminator 1
 328 01b8 7B68     		ldr	r3, [r7, #4]
 329 01ba 434A     		ldr	r2, .L19+8
 330 01bc 9342     		cmp	r3, r2
 331 01be 07D0     		beq	.L9
 332              		.loc 1 261 18 discriminator 3
 333 01c0 7B68     		ldr	r3, [r7, #4]
 334 01c2 424A     		ldr	r2, .L19+12
 335 01c4 9342     		cmp	r3, r2
 336 01c6 01D1     		bne	.L10
 337              		.loc 1 261 18 discriminator 5
 338 01c8 0223     		movs	r3, #2
 339 01ca 04E0     		b	.L13
 340              	.L10:
 341              		.loc 1 261 18 discriminator 6
 342 01cc 0723     		movs	r3, #7
 343 01ce 02E0     		b	.L13
 344              	.L9:
 345              		.loc 1 261 18 discriminator 4
 346 01d0 0123     		movs	r3, #1
 347 01d2 00E0     		b	.L13
 348              	.L8:
 349              		.loc 1 261 18 discriminator 2
 350 01d4 0023     		movs	r3, #0
 351              	.L13:
 352              		.loc 1 261 59 is_stmt 1 discriminator 12
 353 01d6 7A69     		ldr	r2, [r7, #20]
 354 01d8 02F00302 		and	r2, r2, #3
 355              		.loc 1 261 47 discriminator 12
 356 01dc 9200     		lsls	r2, r2, #2
 357              		.loc 1 261 40 discriminator 12
 358 01de 9340     		lsls	r3, r3, r2
 359              		.loc 1 261 14 discriminator 12
 360 01e0 3A69     		ldr	r2, [r7, #16]
 361 01e2 1343     		orrs	r3, r3, r2
 362 01e4 3B61     		str	r3, [r7, #16]
 262:Drivers/STM32L4xx_HAL_Driver/Src/stm32l4xx_hal_gpio.c ****         SYSCFG->EXTICR[position >> 2u] = temp;
 363              		.loc 1 262 15 discriminator 12
 364 01e6 3749     		ldr	r1, .L19+4
 365              		.loc 1 262 33 discriminator 12
ARM GAS  /tmp/ccQj0Cbr.s 			page 12


 366 01e8 7B69     		ldr	r3, [r7, #20]
 367 01ea 9B08     		lsrs	r3, r3, #2
 368              		.loc 1 262 40 discriminator 12
 369 01ec 0233     		adds	r3, r3, #2
 370 01ee 3A69     		ldr	r2, [r7, #16]
 371 01f0 41F82320 		str	r2, [r1, r3, lsl #2]
 263:Drivers/STM32L4xx_HAL_Driver/Src/stm32l4xx_hal_gpio.c **** 
 264:Drivers/STM32L4xx_HAL_Driver/Src/stm32l4xx_hal_gpio.c ****         /* Clear EXTI line configuration */
 265:Drivers/STM32L4xx_HAL_Driver/Src/stm32l4xx_hal_gpio.c ****         temp = EXTI->IMR1;
 372              		.loc 1 265 20 discriminator 12
 373 01f4 364B     		ldr	r3, .L19+16
 374              		.loc 1 265 14 discriminator 12
 375 01f6 1B68     		ldr	r3, [r3]
 376 01f8 3B61     		str	r3, [r7, #16]
 266:Drivers/STM32L4xx_HAL_Driver/Src/stm32l4xx_hal_gpio.c ****         temp &= ~(iocurrent);
 377              		.loc 1 266 17 discriminator 12
 378 01fa FB68     		ldr	r3, [r7, #12]
 379 01fc DB43     		mvns	r3, r3
 380              		.loc 1 266 14 discriminator 12
 381 01fe 3A69     		ldr	r2, [r7, #16]
 382 0200 1340     		ands	r3, r3, r2
 383 0202 3B61     		str	r3, [r7, #16]
 267:Drivers/STM32L4xx_HAL_Driver/Src/stm32l4xx_hal_gpio.c ****         if((GPIO_Init->Mode & GPIO_MODE_IT) == GPIO_MODE_IT)
 384              		.loc 1 267 22 discriminator 12
 385 0204 3B68     		ldr	r3, [r7]
 386 0206 5B68     		ldr	r3, [r3, #4]
 387              		.loc 1 267 29 discriminator 12
 388 0208 03F48033 		and	r3, r3, #65536
 389              		.loc 1 267 11 discriminator 12
 390 020c 002B     		cmp	r3, #0
 391 020e 03D0     		beq	.L14
 268:Drivers/STM32L4xx_HAL_Driver/Src/stm32l4xx_hal_gpio.c ****         {
 269:Drivers/STM32L4xx_HAL_Driver/Src/stm32l4xx_hal_gpio.c ****           temp |= iocurrent;
 392              		.loc 1 269 16
 393 0210 3A69     		ldr	r2, [r7, #16]
 394 0212 FB68     		ldr	r3, [r7, #12]
 395 0214 1343     		orrs	r3, r3, r2
 396 0216 3B61     		str	r3, [r7, #16]
 397              	.L14:
 270:Drivers/STM32L4xx_HAL_Driver/Src/stm32l4xx_hal_gpio.c ****         }
 271:Drivers/STM32L4xx_HAL_Driver/Src/stm32l4xx_hal_gpio.c ****         EXTI->IMR1 = temp;
 398              		.loc 1 271 13
 399 0218 2D4A     		ldr	r2, .L19+16
 400              		.loc 1 271 20
 401 021a 3B69     		ldr	r3, [r7, #16]
 402 021c 1360     		str	r3, [r2]
 272:Drivers/STM32L4xx_HAL_Driver/Src/stm32l4xx_hal_gpio.c **** 
 273:Drivers/STM32L4xx_HAL_Driver/Src/stm32l4xx_hal_gpio.c ****         temp = EXTI->EMR1;
 403              		.loc 1 273 20
 404 021e 2C4B     		ldr	r3, .L19+16
 405              		.loc 1 273 14
 406 0220 5B68     		ldr	r3, [r3, #4]
 407 0222 3B61     		str	r3, [r7, #16]
 274:Drivers/STM32L4xx_HAL_Driver/Src/stm32l4xx_hal_gpio.c ****         temp &= ~(iocurrent);
 408              		.loc 1 274 17
 409 0224 FB68     		ldr	r3, [r7, #12]
 410 0226 DB43     		mvns	r3, r3
ARM GAS  /tmp/ccQj0Cbr.s 			page 13


 411              		.loc 1 274 14
 412 0228 3A69     		ldr	r2, [r7, #16]
 413 022a 1340     		ands	r3, r3, r2
 414 022c 3B61     		str	r3, [r7, #16]
 275:Drivers/STM32L4xx_HAL_Driver/Src/stm32l4xx_hal_gpio.c ****         if((GPIO_Init->Mode & GPIO_MODE_EVT) == GPIO_MODE_EVT)
 415              		.loc 1 275 22
 416 022e 3B68     		ldr	r3, [r7]
 417 0230 5B68     		ldr	r3, [r3, #4]
 418              		.loc 1 275 29
 419 0232 03F40033 		and	r3, r3, #131072
 420              		.loc 1 275 11
 421 0236 002B     		cmp	r3, #0
 422 0238 03D0     		beq	.L15
 276:Drivers/STM32L4xx_HAL_Driver/Src/stm32l4xx_hal_gpio.c ****         {
 277:Drivers/STM32L4xx_HAL_Driver/Src/stm32l4xx_hal_gpio.c ****           temp |= iocurrent;
 423              		.loc 1 277 16
 424 023a 3A69     		ldr	r2, [r7, #16]
 425 023c FB68     		ldr	r3, [r7, #12]
 426 023e 1343     		orrs	r3, r3, r2
 427 0240 3B61     		str	r3, [r7, #16]
 428              	.L15:
 278:Drivers/STM32L4xx_HAL_Driver/Src/stm32l4xx_hal_gpio.c ****         }
 279:Drivers/STM32L4xx_HAL_Driver/Src/stm32l4xx_hal_gpio.c ****         EXTI->EMR1 = temp;
 429              		.loc 1 279 13
 430 0242 234A     		ldr	r2, .L19+16
 431              		.loc 1 279 20
 432 0244 3B69     		ldr	r3, [r7, #16]
 433 0246 5360     		str	r3, [r2, #4]
 280:Drivers/STM32L4xx_HAL_Driver/Src/stm32l4xx_hal_gpio.c **** 
 281:Drivers/STM32L4xx_HAL_Driver/Src/stm32l4xx_hal_gpio.c ****         /* Clear Rising Falling edge configuration */
 282:Drivers/STM32L4xx_HAL_Driver/Src/stm32l4xx_hal_gpio.c ****         temp = EXTI->RTSR1;
 434              		.loc 1 282 20
 435 0248 214B     		ldr	r3, .L19+16
 436              		.loc 1 282 14
 437 024a 9B68     		ldr	r3, [r3, #8]
 438 024c 3B61     		str	r3, [r7, #16]
 283:Drivers/STM32L4xx_HAL_Driver/Src/stm32l4xx_hal_gpio.c ****         temp &= ~(iocurrent);
 439              		.loc 1 283 17
 440 024e FB68     		ldr	r3, [r7, #12]
 441 0250 DB43     		mvns	r3, r3
 442              		.loc 1 283 14
 443 0252 3A69     		ldr	r2, [r7, #16]
 444 0254 1340     		ands	r3, r3, r2
 445 0256 3B61     		str	r3, [r7, #16]
 284:Drivers/STM32L4xx_HAL_Driver/Src/stm32l4xx_hal_gpio.c ****         if((GPIO_Init->Mode & RISING_EDGE) == RISING_EDGE)
 446              		.loc 1 284 22
 447 0258 3B68     		ldr	r3, [r7]
 448 025a 5B68     		ldr	r3, [r3, #4]
 449              		.loc 1 284 29
 450 025c 03F48013 		and	r3, r3, #1048576
 451              		.loc 1 284 11
 452 0260 002B     		cmp	r3, #0
 453 0262 03D0     		beq	.L16
 285:Drivers/STM32L4xx_HAL_Driver/Src/stm32l4xx_hal_gpio.c ****         {
 286:Drivers/STM32L4xx_HAL_Driver/Src/stm32l4xx_hal_gpio.c ****           temp |= iocurrent;
 454              		.loc 1 286 16
 455 0264 3A69     		ldr	r2, [r7, #16]
ARM GAS  /tmp/ccQj0Cbr.s 			page 14


 456 0266 FB68     		ldr	r3, [r7, #12]
 457 0268 1343     		orrs	r3, r3, r2
 458 026a 3B61     		str	r3, [r7, #16]
 459              	.L16:
 287:Drivers/STM32L4xx_HAL_Driver/Src/stm32l4xx_hal_gpio.c ****         }
 288:Drivers/STM32L4xx_HAL_Driver/Src/stm32l4xx_hal_gpio.c ****         EXTI->RTSR1 = temp;
 460              		.loc 1 288 13
 461 026c 184A     		ldr	r2, .L19+16
 462              		.loc 1 288 21
 463 026e 3B69     		ldr	r3, [r7, #16]
 464 0270 9360     		str	r3, [r2, #8]
 289:Drivers/STM32L4xx_HAL_Driver/Src/stm32l4xx_hal_gpio.c **** 
 290:Drivers/STM32L4xx_HAL_Driver/Src/stm32l4xx_hal_gpio.c ****         temp = EXTI->FTSR1;
 465              		.loc 1 290 20
 466 0272 174B     		ldr	r3, .L19+16
 467              		.loc 1 290 14
 468 0274 DB68     		ldr	r3, [r3, #12]
 469 0276 3B61     		str	r3, [r7, #16]
 291:Drivers/STM32L4xx_HAL_Driver/Src/stm32l4xx_hal_gpio.c ****         temp &= ~(iocurrent);
 470              		.loc 1 291 17
 471 0278 FB68     		ldr	r3, [r7, #12]
 472 027a DB43     		mvns	r3, r3
 473              		.loc 1 291 14
 474 027c 3A69     		ldr	r2, [r7, #16]
 475 027e 1340     		ands	r3, r3, r2
 476 0280 3B61     		str	r3, [r7, #16]
 292:Drivers/STM32L4xx_HAL_Driver/Src/stm32l4xx_hal_gpio.c ****         if((GPIO_Init->Mode & FALLING_EDGE) == FALLING_EDGE)
 477              		.loc 1 292 22
 478 0282 3B68     		ldr	r3, [r7]
 479 0284 5B68     		ldr	r3, [r3, #4]
 480              		.loc 1 292 29
 481 0286 03F40013 		and	r3, r3, #2097152
 482              		.loc 1 292 11
 483 028a 002B     		cmp	r3, #0
 484 028c 03D0     		beq	.L17
 293:Drivers/STM32L4xx_HAL_Driver/Src/stm32l4xx_hal_gpio.c ****         {
 294:Drivers/STM32L4xx_HAL_Driver/Src/stm32l4xx_hal_gpio.c ****           temp |= iocurrent;
 485              		.loc 1 294 16
 486 028e 3A69     		ldr	r2, [r7, #16]
 487 0290 FB68     		ldr	r3, [r7, #12]
 488 0292 1343     		orrs	r3, r3, r2
 489 0294 3B61     		str	r3, [r7, #16]
 490              	.L17:
 295:Drivers/STM32L4xx_HAL_Driver/Src/stm32l4xx_hal_gpio.c ****         }
 296:Drivers/STM32L4xx_HAL_Driver/Src/stm32l4xx_hal_gpio.c ****         EXTI->FTSR1 = temp;
 491              		.loc 1 296 13
 492 0296 0E4A     		ldr	r2, .L19+16
 493              		.loc 1 296 21
 494 0298 3B69     		ldr	r3, [r7, #16]
 495 029a D360     		str	r3, [r2, #12]
 496              	.L3:
 297:Drivers/STM32L4xx_HAL_Driver/Src/stm32l4xx_hal_gpio.c ****       }
 298:Drivers/STM32L4xx_HAL_Driver/Src/stm32l4xx_hal_gpio.c ****     }
 299:Drivers/STM32L4xx_HAL_Driver/Src/stm32l4xx_hal_gpio.c **** 
 300:Drivers/STM32L4xx_HAL_Driver/Src/stm32l4xx_hal_gpio.c ****     position++;
 497              		.loc 1 300 13
 498 029c 7B69     		ldr	r3, [r7, #20]
ARM GAS  /tmp/ccQj0Cbr.s 			page 15


 499 029e 0133     		adds	r3, r3, #1
 500 02a0 7B61     		str	r3, [r7, #20]
 501              	.L2:
 185:Drivers/STM32L4xx_HAL_Driver/Src/stm32l4xx_hal_gpio.c ****   {
 502              		.loc 1 185 21
 503 02a2 3B68     		ldr	r3, [r7]
 504 02a4 1A68     		ldr	r2, [r3]
 185:Drivers/STM32L4xx_HAL_Driver/Src/stm32l4xx_hal_gpio.c ****   {
 505              		.loc 1 185 28
 506 02a6 7B69     		ldr	r3, [r7, #20]
 507 02a8 22FA03F3 		lsr	r3, r2, r3
 185:Drivers/STM32L4xx_HAL_Driver/Src/stm32l4xx_hal_gpio.c ****   {
 508              		.loc 1 185 9
 509 02ac 002B     		cmp	r3, #0
 510 02ae 7FF4AFAE 		bne	.L18
 301:Drivers/STM32L4xx_HAL_Driver/Src/stm32l4xx_hal_gpio.c ****   }
 302:Drivers/STM32L4xx_HAL_Driver/Src/stm32l4xx_hal_gpio.c **** }
 511              		.loc 1 302 1
 512 02b2 00BF     		nop
 513 02b4 00BF     		nop
 514 02b6 1C37     		adds	r7, r7, #28
 515              	.LCFI3:
 516              		.cfi_def_cfa_offset 4
 517 02b8 BD46     		mov	sp, r7
 518              	.LCFI4:
 519              		.cfi_def_cfa_register 13
 520              		@ sp needed
 521 02ba 5DF8047B 		ldr	r7, [sp], #4
 522              	.LCFI5:
 523              		.cfi_restore 7
 524              		.cfi_def_cfa_offset 0
 525 02be 7047     		bx	lr
 526              	.L20:
 527              		.align	2
 528              	.L19:
 529 02c0 00100240 		.word	1073876992
 530 02c4 00000140 		.word	1073807360
 531 02c8 00040048 		.word	1207960576
 532 02cc 00080048 		.word	1207961600
 533 02d0 00040140 		.word	1073808384
 534              		.cfi_endproc
 535              	.LFE132:
 537              		.section	.text.HAL_GPIO_DeInit,"ax",%progbits
 538              		.align	1
 539              		.global	HAL_GPIO_DeInit
 540              		.syntax unified
 541              		.thumb
 542              		.thumb_func
 543              		.fpu fpv4-sp-d16
 545              	HAL_GPIO_DeInit:
 546              	.LFB133:
 303:Drivers/STM32L4xx_HAL_Driver/Src/stm32l4xx_hal_gpio.c **** 
 304:Drivers/STM32L4xx_HAL_Driver/Src/stm32l4xx_hal_gpio.c **** /**
 305:Drivers/STM32L4xx_HAL_Driver/Src/stm32l4xx_hal_gpio.c ****   * @brief  De-initialize the GPIOx peripheral registers to their default reset values.
 306:Drivers/STM32L4xx_HAL_Driver/Src/stm32l4xx_hal_gpio.c ****   * @param  GPIOx where x can be (A..H) to select the GPIO peripheral for STM32L4 family
 307:Drivers/STM32L4xx_HAL_Driver/Src/stm32l4xx_hal_gpio.c ****   * @param  GPIO_Pin specifies the port bit to be written.
 308:Drivers/STM32L4xx_HAL_Driver/Src/stm32l4xx_hal_gpio.c ****   *         This parameter can be any combination of GPIO_Pin_x where x can be (0..15).
ARM GAS  /tmp/ccQj0Cbr.s 			page 16


 309:Drivers/STM32L4xx_HAL_Driver/Src/stm32l4xx_hal_gpio.c ****   * @retval None
 310:Drivers/STM32L4xx_HAL_Driver/Src/stm32l4xx_hal_gpio.c ****   */
 311:Drivers/STM32L4xx_HAL_Driver/Src/stm32l4xx_hal_gpio.c **** void HAL_GPIO_DeInit(GPIO_TypeDef  *GPIOx, uint32_t GPIO_Pin)
 312:Drivers/STM32L4xx_HAL_Driver/Src/stm32l4xx_hal_gpio.c **** {
 547              		.loc 1 312 1
 548              		.cfi_startproc
 549              		@ args = 0, pretend = 0, frame = 24
 550              		@ frame_needed = 1, uses_anonymous_args = 0
 551              		@ link register save eliminated.
 552 0000 80B4     		push	{r7}
 553              	.LCFI6:
 554              		.cfi_def_cfa_offset 4
 555              		.cfi_offset 7, -4
 556 0002 87B0     		sub	sp, sp, #28
 557              	.LCFI7:
 558              		.cfi_def_cfa_offset 32
 559 0004 00AF     		add	r7, sp, #0
 560              	.LCFI8:
 561              		.cfi_def_cfa_register 7
 562 0006 7860     		str	r0, [r7, #4]
 563 0008 3960     		str	r1, [r7]
 313:Drivers/STM32L4xx_HAL_Driver/Src/stm32l4xx_hal_gpio.c ****   uint32_t position = 0x00u;
 564              		.loc 1 313 12
 565 000a 0023     		movs	r3, #0
 566 000c 7B61     		str	r3, [r7, #20]
 314:Drivers/STM32L4xx_HAL_Driver/Src/stm32l4xx_hal_gpio.c ****   uint32_t iocurrent;
 315:Drivers/STM32L4xx_HAL_Driver/Src/stm32l4xx_hal_gpio.c ****   uint32_t tmp;
 316:Drivers/STM32L4xx_HAL_Driver/Src/stm32l4xx_hal_gpio.c **** 
 317:Drivers/STM32L4xx_HAL_Driver/Src/stm32l4xx_hal_gpio.c ****   /* Check the parameters */
 318:Drivers/STM32L4xx_HAL_Driver/Src/stm32l4xx_hal_gpio.c ****   assert_param(IS_GPIO_ALL_INSTANCE(GPIOx));
 319:Drivers/STM32L4xx_HAL_Driver/Src/stm32l4xx_hal_gpio.c ****   assert_param(IS_GPIO_PIN(GPIO_Pin));
 320:Drivers/STM32L4xx_HAL_Driver/Src/stm32l4xx_hal_gpio.c **** 
 321:Drivers/STM32L4xx_HAL_Driver/Src/stm32l4xx_hal_gpio.c ****   /* Configure the port pins */
 322:Drivers/STM32L4xx_HAL_Driver/Src/stm32l4xx_hal_gpio.c ****   while ((GPIO_Pin >> position) != 0x00u)
 567              		.loc 1 322 9
 568 000e ABE0     		b	.L22
 569              	.L31:
 323:Drivers/STM32L4xx_HAL_Driver/Src/stm32l4xx_hal_gpio.c ****   {
 324:Drivers/STM32L4xx_HAL_Driver/Src/stm32l4xx_hal_gpio.c ****     /* Get current io position */
 325:Drivers/STM32L4xx_HAL_Driver/Src/stm32l4xx_hal_gpio.c ****     iocurrent = (GPIO_Pin) & (1uL << position);
 570              		.loc 1 325 35
 571 0010 0122     		movs	r2, #1
 572 0012 7B69     		ldr	r3, [r7, #20]
 573 0014 02FA03F3 		lsl	r3, r2, r3
 574              		.loc 1 325 15
 575 0018 3A68     		ldr	r2, [r7]
 576 001a 1340     		ands	r3, r3, r2
 577 001c 3B61     		str	r3, [r7, #16]
 326:Drivers/STM32L4xx_HAL_Driver/Src/stm32l4xx_hal_gpio.c **** 
 327:Drivers/STM32L4xx_HAL_Driver/Src/stm32l4xx_hal_gpio.c ****     if (iocurrent != 0x00u)
 578              		.loc 1 327 8
 579 001e 3B69     		ldr	r3, [r7, #16]
 580 0020 002B     		cmp	r3, #0
 581 0022 00F09E80 		beq	.L23
 328:Drivers/STM32L4xx_HAL_Driver/Src/stm32l4xx_hal_gpio.c ****     {
 329:Drivers/STM32L4xx_HAL_Driver/Src/stm32l4xx_hal_gpio.c ****       /*------------------------- EXTI Mode Configuration --------------------*/
 330:Drivers/STM32L4xx_HAL_Driver/Src/stm32l4xx_hal_gpio.c ****       /* Clear the External Interrupt or Event for the current IO */
ARM GAS  /tmp/ccQj0Cbr.s 			page 17


 331:Drivers/STM32L4xx_HAL_Driver/Src/stm32l4xx_hal_gpio.c **** 
 332:Drivers/STM32L4xx_HAL_Driver/Src/stm32l4xx_hal_gpio.c ****       tmp = SYSCFG->EXTICR[position >> 2u];
 582              		.loc 1 332 19
 583 0026 574A     		ldr	r2, .L32
 584              		.loc 1 332 37
 585 0028 7B69     		ldr	r3, [r7, #20]
 586 002a 9B08     		lsrs	r3, r3, #2
 587              		.loc 1 332 11
 588 002c 0233     		adds	r3, r3, #2
 589 002e 52F82330 		ldr	r3, [r2, r3, lsl #2]
 590 0032 FB60     		str	r3, [r7, #12]
 333:Drivers/STM32L4xx_HAL_Driver/Src/stm32l4xx_hal_gpio.c ****       tmp &= (0x0FuL << (4u * (position & 0x03u)));
 591              		.loc 1 333 41
 592 0034 7B69     		ldr	r3, [r7, #20]
 593 0036 03F00303 		and	r3, r3, #3
 594              		.loc 1 333 29
 595 003a 9B00     		lsls	r3, r3, #2
 596              		.loc 1 333 22
 597 003c 0F22     		movs	r2, #15
 598 003e 02FA03F3 		lsl	r3, r2, r3
 599              		.loc 1 333 11
 600 0042 FA68     		ldr	r2, [r7, #12]
 601 0044 1340     		ands	r3, r3, r2
 602 0046 FB60     		str	r3, [r7, #12]
 334:Drivers/STM32L4xx_HAL_Driver/Src/stm32l4xx_hal_gpio.c ****       if (tmp == (GPIO_GET_INDEX(GPIOx) << (4u * (position & 0x03u))))
 603              		.loc 1 334 19
 604 0048 7B68     		ldr	r3, [r7, #4]
 605 004a B3F1904F 		cmp	r3, #1207959552
 606 004e 0DD0     		beq	.L24
 607              		.loc 1 334 19 is_stmt 0 discriminator 1
 608 0050 7B68     		ldr	r3, [r7, #4]
 609 0052 4D4A     		ldr	r2, .L32+4
 610 0054 9342     		cmp	r3, r2
 611 0056 07D0     		beq	.L25
 612              		.loc 1 334 19 discriminator 3
 613 0058 7B68     		ldr	r3, [r7, #4]
 614 005a 4C4A     		ldr	r2, .L32+8
 615 005c 9342     		cmp	r3, r2
 616 005e 01D1     		bne	.L26
 617              		.loc 1 334 19 discriminator 5
 618 0060 0223     		movs	r3, #2
 619 0062 04E0     		b	.L29
 620              	.L26:
 621              		.loc 1 334 19 discriminator 6
 622 0064 0723     		movs	r3, #7
 623 0066 02E0     		b	.L29
 624              	.L25:
 625              		.loc 1 334 19 discriminator 4
 626 0068 0123     		movs	r3, #1
 627 006a 00E0     		b	.L29
 628              	.L24:
 629              		.loc 1 334 19 discriminator 2
 630 006c 0023     		movs	r3, #0
 631              	.L29:
 632              		.loc 1 334 60 is_stmt 1 discriminator 12
 633 006e 7A69     		ldr	r2, [r7, #20]
 634 0070 02F00302 		and	r2, r2, #3
ARM GAS  /tmp/ccQj0Cbr.s 			page 18


 635              		.loc 1 334 48 discriminator 12
 636 0074 9200     		lsls	r2, r2, #2
 637              		.loc 1 334 41 discriminator 12
 638 0076 9340     		lsls	r3, r3, r2
 639              		.loc 1 334 10 discriminator 12
 640 0078 FA68     		ldr	r2, [r7, #12]
 641 007a 9A42     		cmp	r2, r3
 642 007c 32D1     		bne	.L30
 335:Drivers/STM32L4xx_HAL_Driver/Src/stm32l4xx_hal_gpio.c ****       {
 336:Drivers/STM32L4xx_HAL_Driver/Src/stm32l4xx_hal_gpio.c ****         /* Clear EXTI line configuration */
 337:Drivers/STM32L4xx_HAL_Driver/Src/stm32l4xx_hal_gpio.c ****         EXTI->IMR1 &= ~(iocurrent);
 643              		.loc 1 337 20
 644 007e 444B     		ldr	r3, .L32+12
 645 0080 1A68     		ldr	r2, [r3]
 646              		.loc 1 337 23
 647 0082 3B69     		ldr	r3, [r7, #16]
 648 0084 DB43     		mvns	r3, r3
 649              		.loc 1 337 20
 650 0086 4249     		ldr	r1, .L32+12
 651 0088 1340     		ands	r3, r3, r2
 652 008a 0B60     		str	r3, [r1]
 338:Drivers/STM32L4xx_HAL_Driver/Src/stm32l4xx_hal_gpio.c ****         EXTI->EMR1 &= ~(iocurrent);
 653              		.loc 1 338 20
 654 008c 404B     		ldr	r3, .L32+12
 655 008e 5A68     		ldr	r2, [r3, #4]
 656              		.loc 1 338 23
 657 0090 3B69     		ldr	r3, [r7, #16]
 658 0092 DB43     		mvns	r3, r3
 659              		.loc 1 338 20
 660 0094 3E49     		ldr	r1, .L32+12
 661 0096 1340     		ands	r3, r3, r2
 662 0098 4B60     		str	r3, [r1, #4]
 339:Drivers/STM32L4xx_HAL_Driver/Src/stm32l4xx_hal_gpio.c **** 
 340:Drivers/STM32L4xx_HAL_Driver/Src/stm32l4xx_hal_gpio.c ****         /* Clear Rising Falling edge configuration */
 341:Drivers/STM32L4xx_HAL_Driver/Src/stm32l4xx_hal_gpio.c ****         EXTI->RTSR1 &= ~(iocurrent);
 663              		.loc 1 341 21
 664 009a 3D4B     		ldr	r3, .L32+12
 665 009c 9A68     		ldr	r2, [r3, #8]
 666              		.loc 1 341 24
 667 009e 3B69     		ldr	r3, [r7, #16]
 668 00a0 DB43     		mvns	r3, r3
 669              		.loc 1 341 21
 670 00a2 3B49     		ldr	r1, .L32+12
 671 00a4 1340     		ands	r3, r3, r2
 672 00a6 8B60     		str	r3, [r1, #8]
 342:Drivers/STM32L4xx_HAL_Driver/Src/stm32l4xx_hal_gpio.c ****         EXTI->FTSR1 &= ~(iocurrent);
 673              		.loc 1 342 21
 674 00a8 394B     		ldr	r3, .L32+12
 675 00aa DA68     		ldr	r2, [r3, #12]
 676              		.loc 1 342 24
 677 00ac 3B69     		ldr	r3, [r7, #16]
 678 00ae DB43     		mvns	r3, r3
 679              		.loc 1 342 21
 680 00b0 3749     		ldr	r1, .L32+12
 681 00b2 1340     		ands	r3, r3, r2
 682 00b4 CB60     		str	r3, [r1, #12]
 343:Drivers/STM32L4xx_HAL_Driver/Src/stm32l4xx_hal_gpio.c **** 
ARM GAS  /tmp/ccQj0Cbr.s 			page 19


 344:Drivers/STM32L4xx_HAL_Driver/Src/stm32l4xx_hal_gpio.c ****         tmp = 0x0FuL << (4u * (position & 0x03u));
 683              		.loc 1 344 41
 684 00b6 7B69     		ldr	r3, [r7, #20]
 685 00b8 03F00303 		and	r3, r3, #3
 686              		.loc 1 344 29
 687 00bc 9B00     		lsls	r3, r3, #2
 688              		.loc 1 344 13
 689 00be 0F22     		movs	r2, #15
 690 00c0 02FA03F3 		lsl	r3, r2, r3
 691 00c4 FB60     		str	r3, [r7, #12]
 345:Drivers/STM32L4xx_HAL_Driver/Src/stm32l4xx_hal_gpio.c ****         SYSCFG->EXTICR[position >> 2u] &= ~tmp;
 692              		.loc 1 345 40
 693 00c6 2F4A     		ldr	r2, .L32
 694 00c8 7B69     		ldr	r3, [r7, #20]
 695 00ca 9B08     		lsrs	r3, r3, #2
 696 00cc 0233     		adds	r3, r3, #2
 697 00ce 52F82310 		ldr	r1, [r2, r3, lsl #2]
 698              		.loc 1 345 43
 699 00d2 FB68     		ldr	r3, [r7, #12]
 700 00d4 DA43     		mvns	r2, r3
 701              		.loc 1 345 40
 702 00d6 2B48     		ldr	r0, .L32
 703 00d8 7B69     		ldr	r3, [r7, #20]
 704 00da 9B08     		lsrs	r3, r3, #2
 705 00dc 0A40     		ands	r2, r2, r1
 706 00de 0233     		adds	r3, r3, #2
 707 00e0 40F82320 		str	r2, [r0, r3, lsl #2]
 708              	.L30:
 346:Drivers/STM32L4xx_HAL_Driver/Src/stm32l4xx_hal_gpio.c ****       }
 347:Drivers/STM32L4xx_HAL_Driver/Src/stm32l4xx_hal_gpio.c **** 
 348:Drivers/STM32L4xx_HAL_Driver/Src/stm32l4xx_hal_gpio.c ****       /*------------------------- GPIO Mode Configuration --------------------*/
 349:Drivers/STM32L4xx_HAL_Driver/Src/stm32l4xx_hal_gpio.c ****       /* Configure IO in Analog Mode */
 350:Drivers/STM32L4xx_HAL_Driver/Src/stm32l4xx_hal_gpio.c ****       GPIOx->MODER |= (GPIO_MODER_MODE0 << (position * 2u));
 709              		.loc 1 350 20
 710 00e4 7B68     		ldr	r3, [r7, #4]
 711 00e6 1A68     		ldr	r2, [r3]
 712              		.loc 1 350 54
 713 00e8 7B69     		ldr	r3, [r7, #20]
 714 00ea 5B00     		lsls	r3, r3, #1
 715              		.loc 1 350 41
 716 00ec 0321     		movs	r1, #3
 717 00ee 01FA03F3 		lsl	r3, r1, r3
 718              		.loc 1 350 20
 719 00f2 1A43     		orrs	r2, r2, r3
 720 00f4 7B68     		ldr	r3, [r7, #4]
 721 00f6 1A60     		str	r2, [r3]
 351:Drivers/STM32L4xx_HAL_Driver/Src/stm32l4xx_hal_gpio.c **** 
 352:Drivers/STM32L4xx_HAL_Driver/Src/stm32l4xx_hal_gpio.c ****       /* Configure the default Alternate Function in current IO */
 353:Drivers/STM32L4xx_HAL_Driver/Src/stm32l4xx_hal_gpio.c ****       GPIOx->AFR[position >> 3u] &= ~(0xFu << ((position & 0x07u) * 4u)) ;
 722              		.loc 1 353 34
 723 00f8 7B69     		ldr	r3, [r7, #20]
 724 00fa DA08     		lsrs	r2, r3, #3
 725 00fc 7B68     		ldr	r3, [r7, #4]
 726 00fe 0832     		adds	r2, r2, #8
 727 0100 53F82210 		ldr	r1, [r3, r2, lsl #2]
 728              		.loc 1 353 58
 729 0104 7B69     		ldr	r3, [r7, #20]
ARM GAS  /tmp/ccQj0Cbr.s 			page 20


 730 0106 03F00703 		and	r3, r3, #7
 731              		.loc 1 353 67
 732 010a 9B00     		lsls	r3, r3, #2
 733              		.loc 1 353 44
 734 010c 0F22     		movs	r2, #15
 735 010e 02FA03F3 		lsl	r3, r2, r3
 736              		.loc 1 353 37
 737 0112 DB43     		mvns	r3, r3
 738              		.loc 1 353 34
 739 0114 7A69     		ldr	r2, [r7, #20]
 740 0116 D208     		lsrs	r2, r2, #3
 741 0118 1940     		ands	r1, r1, r3
 742 011a 7B68     		ldr	r3, [r7, #4]
 743 011c 0832     		adds	r2, r2, #8
 744 011e 43F82210 		str	r1, [r3, r2, lsl #2]
 354:Drivers/STM32L4xx_HAL_Driver/Src/stm32l4xx_hal_gpio.c **** 
 355:Drivers/STM32L4xx_HAL_Driver/Src/stm32l4xx_hal_gpio.c ****       /* Configure the default value for IO Speed */
 356:Drivers/STM32L4xx_HAL_Driver/Src/stm32l4xx_hal_gpio.c ****       GPIOx->OSPEEDR &= ~(GPIO_OSPEEDR_OSPEED0 << (position * 2u));
 745              		.loc 1 356 22
 746 0122 7B68     		ldr	r3, [r7, #4]
 747 0124 9A68     		ldr	r2, [r3, #8]
 748              		.loc 1 356 61
 749 0126 7B69     		ldr	r3, [r7, #20]
 750 0128 5B00     		lsls	r3, r3, #1
 751              		.loc 1 356 48
 752 012a 0321     		movs	r1, #3
 753 012c 01FA03F3 		lsl	r3, r1, r3
 754              		.loc 1 356 25
 755 0130 DB43     		mvns	r3, r3
 756              		.loc 1 356 22
 757 0132 1A40     		ands	r2, r2, r3
 758 0134 7B68     		ldr	r3, [r7, #4]
 759 0136 9A60     		str	r2, [r3, #8]
 357:Drivers/STM32L4xx_HAL_Driver/Src/stm32l4xx_hal_gpio.c **** 
 358:Drivers/STM32L4xx_HAL_Driver/Src/stm32l4xx_hal_gpio.c ****       /* Configure the default value IO Output Type */
 359:Drivers/STM32L4xx_HAL_Driver/Src/stm32l4xx_hal_gpio.c ****       GPIOx->OTYPER  &= ~(GPIO_OTYPER_OT0 << position) ;
 760              		.loc 1 359 22
 761 0138 7B68     		ldr	r3, [r7, #4]
 762 013a 5A68     		ldr	r2, [r3, #4]
 763              		.loc 1 359 43
 764 013c 0121     		movs	r1, #1
 765 013e 7B69     		ldr	r3, [r7, #20]
 766 0140 01FA03F3 		lsl	r3, r1, r3
 767              		.loc 1 359 25
 768 0144 DB43     		mvns	r3, r3
 769              		.loc 1 359 22
 770 0146 1A40     		ands	r2, r2, r3
 771 0148 7B68     		ldr	r3, [r7, #4]
 772 014a 5A60     		str	r2, [r3, #4]
 360:Drivers/STM32L4xx_HAL_Driver/Src/stm32l4xx_hal_gpio.c **** 
 361:Drivers/STM32L4xx_HAL_Driver/Src/stm32l4xx_hal_gpio.c ****       /* Deactivate the Pull-up and Pull-down resistor for the current IO */
 362:Drivers/STM32L4xx_HAL_Driver/Src/stm32l4xx_hal_gpio.c ****       GPIOx->PUPDR &= ~(GPIO_PUPDR_PUPD0 << (position * 2u));
 773              		.loc 1 362 20
 774 014c 7B68     		ldr	r3, [r7, #4]
 775 014e DA68     		ldr	r2, [r3, #12]
 776              		.loc 1 362 55
 777 0150 7B69     		ldr	r3, [r7, #20]
ARM GAS  /tmp/ccQj0Cbr.s 			page 21


 778 0152 5B00     		lsls	r3, r3, #1
 779              		.loc 1 362 42
 780 0154 0321     		movs	r1, #3
 781 0156 01FA03F3 		lsl	r3, r1, r3
 782              		.loc 1 362 23
 783 015a DB43     		mvns	r3, r3
 784              		.loc 1 362 20
 785 015c 1A40     		ands	r2, r2, r3
 786 015e 7B68     		ldr	r3, [r7, #4]
 787 0160 DA60     		str	r2, [r3, #12]
 788              	.L23:
 363:Drivers/STM32L4xx_HAL_Driver/Src/stm32l4xx_hal_gpio.c **** 
 364:Drivers/STM32L4xx_HAL_Driver/Src/stm32l4xx_hal_gpio.c **** #if defined(STM32L471xx) || defined(STM32L475xx) || defined(STM32L476xx) || defined(STM32L485xx) ||
 365:Drivers/STM32L4xx_HAL_Driver/Src/stm32l4xx_hal_gpio.c ****       /* Deactivate the Control bit of Analog mode for the current IO */
 366:Drivers/STM32L4xx_HAL_Driver/Src/stm32l4xx_hal_gpio.c ****       GPIOx->ASCR &= ~(GPIO_ASCR_ASC0<< position);
 367:Drivers/STM32L4xx_HAL_Driver/Src/stm32l4xx_hal_gpio.c **** #endif /* STM32L471xx || STM32L475xx || STM32L476xx || STM32L485xx || STM32L486xx */
 368:Drivers/STM32L4xx_HAL_Driver/Src/stm32l4xx_hal_gpio.c ****     }
 369:Drivers/STM32L4xx_HAL_Driver/Src/stm32l4xx_hal_gpio.c **** 
 370:Drivers/STM32L4xx_HAL_Driver/Src/stm32l4xx_hal_gpio.c ****     position++;
 789              		.loc 1 370 13
 790 0162 7B69     		ldr	r3, [r7, #20]
 791 0164 0133     		adds	r3, r3, #1
 792 0166 7B61     		str	r3, [r7, #20]
 793              	.L22:
 322:Drivers/STM32L4xx_HAL_Driver/Src/stm32l4xx_hal_gpio.c ****   {
 794              		.loc 1 322 20
 795 0168 3A68     		ldr	r2, [r7]
 796 016a 7B69     		ldr	r3, [r7, #20]
 797 016c 22FA03F3 		lsr	r3, r2, r3
 322:Drivers/STM32L4xx_HAL_Driver/Src/stm32l4xx_hal_gpio.c ****   {
 798              		.loc 1 322 9
 799 0170 002B     		cmp	r3, #0
 800 0172 7FF44DAF 		bne	.L31
 371:Drivers/STM32L4xx_HAL_Driver/Src/stm32l4xx_hal_gpio.c ****   }
 372:Drivers/STM32L4xx_HAL_Driver/Src/stm32l4xx_hal_gpio.c **** }
 801              		.loc 1 372 1
 802 0176 00BF     		nop
 803 0178 00BF     		nop
 804 017a 1C37     		adds	r7, r7, #28
 805              	.LCFI9:
 806              		.cfi_def_cfa_offset 4
 807 017c BD46     		mov	sp, r7
 808              	.LCFI10:
 809              		.cfi_def_cfa_register 13
 810              		@ sp needed
 811 017e 5DF8047B 		ldr	r7, [sp], #4
 812              	.LCFI11:
 813              		.cfi_restore 7
 814              		.cfi_def_cfa_offset 0
 815 0182 7047     		bx	lr
 816              	.L33:
 817              		.align	2
 818              	.L32:
 819 0184 00000140 		.word	1073807360
 820 0188 00040048 		.word	1207960576
 821 018c 00080048 		.word	1207961600
 822 0190 00040140 		.word	1073808384
ARM GAS  /tmp/ccQj0Cbr.s 			page 22


 823              		.cfi_endproc
 824              	.LFE133:
 826              		.section	.text.HAL_GPIO_ReadPin,"ax",%progbits
 827              		.align	1
 828              		.global	HAL_GPIO_ReadPin
 829              		.syntax unified
 830              		.thumb
 831              		.thumb_func
 832              		.fpu fpv4-sp-d16
 834              	HAL_GPIO_ReadPin:
 835              	.LFB134:
 373:Drivers/STM32L4xx_HAL_Driver/Src/stm32l4xx_hal_gpio.c **** 
 374:Drivers/STM32L4xx_HAL_Driver/Src/stm32l4xx_hal_gpio.c **** /**
 375:Drivers/STM32L4xx_HAL_Driver/Src/stm32l4xx_hal_gpio.c ****   * @}
 376:Drivers/STM32L4xx_HAL_Driver/Src/stm32l4xx_hal_gpio.c ****   */
 377:Drivers/STM32L4xx_HAL_Driver/Src/stm32l4xx_hal_gpio.c **** 
 378:Drivers/STM32L4xx_HAL_Driver/Src/stm32l4xx_hal_gpio.c **** /** @defgroup GPIO_Exported_Functions_Group2 IO operation functions
 379:Drivers/STM32L4xx_HAL_Driver/Src/stm32l4xx_hal_gpio.c ****  *  @brief GPIO Read, Write, Toggle, Lock and EXTI management functions.
 380:Drivers/STM32L4xx_HAL_Driver/Src/stm32l4xx_hal_gpio.c ****  *
 381:Drivers/STM32L4xx_HAL_Driver/Src/stm32l4xx_hal_gpio.c **** @verbatim
 382:Drivers/STM32L4xx_HAL_Driver/Src/stm32l4xx_hal_gpio.c ****  ===============================================================================
 383:Drivers/STM32L4xx_HAL_Driver/Src/stm32l4xx_hal_gpio.c ****                        ##### IO operation functions #####
 384:Drivers/STM32L4xx_HAL_Driver/Src/stm32l4xx_hal_gpio.c ****  ===============================================================================
 385:Drivers/STM32L4xx_HAL_Driver/Src/stm32l4xx_hal_gpio.c **** 
 386:Drivers/STM32L4xx_HAL_Driver/Src/stm32l4xx_hal_gpio.c **** @endverbatim
 387:Drivers/STM32L4xx_HAL_Driver/Src/stm32l4xx_hal_gpio.c ****   * @{
 388:Drivers/STM32L4xx_HAL_Driver/Src/stm32l4xx_hal_gpio.c ****   */
 389:Drivers/STM32L4xx_HAL_Driver/Src/stm32l4xx_hal_gpio.c **** 
 390:Drivers/STM32L4xx_HAL_Driver/Src/stm32l4xx_hal_gpio.c **** /**
 391:Drivers/STM32L4xx_HAL_Driver/Src/stm32l4xx_hal_gpio.c ****   * @brief  Read the specified input port pin.
 392:Drivers/STM32L4xx_HAL_Driver/Src/stm32l4xx_hal_gpio.c ****   * @param  GPIOx where x can be (A..H) to select the GPIO peripheral for STM32L4 family
 393:Drivers/STM32L4xx_HAL_Driver/Src/stm32l4xx_hal_gpio.c ****   * @param  GPIO_Pin specifies the port bit to read.
 394:Drivers/STM32L4xx_HAL_Driver/Src/stm32l4xx_hal_gpio.c ****   *         This parameter can be any combination of GPIO_Pin_x where x can be (0..15).
 395:Drivers/STM32L4xx_HAL_Driver/Src/stm32l4xx_hal_gpio.c ****   * @retval The input port pin value.
 396:Drivers/STM32L4xx_HAL_Driver/Src/stm32l4xx_hal_gpio.c ****   */
 397:Drivers/STM32L4xx_HAL_Driver/Src/stm32l4xx_hal_gpio.c **** GPIO_PinState HAL_GPIO_ReadPin(GPIO_TypeDef* GPIOx, uint16_t GPIO_Pin)
 398:Drivers/STM32L4xx_HAL_Driver/Src/stm32l4xx_hal_gpio.c **** {
 836              		.loc 1 398 1
 837              		.cfi_startproc
 838              		@ args = 0, pretend = 0, frame = 16
 839              		@ frame_needed = 1, uses_anonymous_args = 0
 840              		@ link register save eliminated.
 841 0000 80B4     		push	{r7}
 842              	.LCFI12:
 843              		.cfi_def_cfa_offset 4
 844              		.cfi_offset 7, -4
 845 0002 85B0     		sub	sp, sp, #20
 846              	.LCFI13:
 847              		.cfi_def_cfa_offset 24
 848 0004 00AF     		add	r7, sp, #0
 849              	.LCFI14:
 850              		.cfi_def_cfa_register 7
 851 0006 7860     		str	r0, [r7, #4]
 852 0008 0B46     		mov	r3, r1
 853 000a 7B80     		strh	r3, [r7, #2]	@ movhi
 399:Drivers/STM32L4xx_HAL_Driver/Src/stm32l4xx_hal_gpio.c ****   GPIO_PinState bitstatus;
 400:Drivers/STM32L4xx_HAL_Driver/Src/stm32l4xx_hal_gpio.c **** 
ARM GAS  /tmp/ccQj0Cbr.s 			page 23


 401:Drivers/STM32L4xx_HAL_Driver/Src/stm32l4xx_hal_gpio.c ****   /* Check the parameters */
 402:Drivers/STM32L4xx_HAL_Driver/Src/stm32l4xx_hal_gpio.c ****   assert_param(IS_GPIO_PIN(GPIO_Pin));
 403:Drivers/STM32L4xx_HAL_Driver/Src/stm32l4xx_hal_gpio.c **** 
 404:Drivers/STM32L4xx_HAL_Driver/Src/stm32l4xx_hal_gpio.c ****   if ((GPIOx->IDR & GPIO_Pin) != 0x00u)
 854              		.loc 1 404 13
 855 000c 7B68     		ldr	r3, [r7, #4]
 856 000e 1A69     		ldr	r2, [r3, #16]
 857              		.loc 1 404 19
 858 0010 7B88     		ldrh	r3, [r7, #2]
 859 0012 1340     		ands	r3, r3, r2
 860              		.loc 1 404 6
 861 0014 002B     		cmp	r3, #0
 862 0016 02D0     		beq	.L35
 405:Drivers/STM32L4xx_HAL_Driver/Src/stm32l4xx_hal_gpio.c ****   {
 406:Drivers/STM32L4xx_HAL_Driver/Src/stm32l4xx_hal_gpio.c ****     bitstatus = GPIO_PIN_SET;
 863              		.loc 1 406 15
 864 0018 0123     		movs	r3, #1
 865 001a FB73     		strb	r3, [r7, #15]
 866 001c 01E0     		b	.L36
 867              	.L35:
 407:Drivers/STM32L4xx_HAL_Driver/Src/stm32l4xx_hal_gpio.c ****   }
 408:Drivers/STM32L4xx_HAL_Driver/Src/stm32l4xx_hal_gpio.c ****   else
 409:Drivers/STM32L4xx_HAL_Driver/Src/stm32l4xx_hal_gpio.c ****   {
 410:Drivers/STM32L4xx_HAL_Driver/Src/stm32l4xx_hal_gpio.c ****     bitstatus = GPIO_PIN_RESET;
 868              		.loc 1 410 15
 869 001e 0023     		movs	r3, #0
 870 0020 FB73     		strb	r3, [r7, #15]
 871              	.L36:
 411:Drivers/STM32L4xx_HAL_Driver/Src/stm32l4xx_hal_gpio.c ****   }
 412:Drivers/STM32L4xx_HAL_Driver/Src/stm32l4xx_hal_gpio.c ****   return bitstatus;
 872              		.loc 1 412 10
 873 0022 FB7B     		ldrb	r3, [r7, #15]	@ zero_extendqisi2
 413:Drivers/STM32L4xx_HAL_Driver/Src/stm32l4xx_hal_gpio.c **** }
 874              		.loc 1 413 1
 875 0024 1846     		mov	r0, r3
 876 0026 1437     		adds	r7, r7, #20
 877              	.LCFI15:
 878              		.cfi_def_cfa_offset 4
 879 0028 BD46     		mov	sp, r7
 880              	.LCFI16:
 881              		.cfi_def_cfa_register 13
 882              		@ sp needed
 883 002a 5DF8047B 		ldr	r7, [sp], #4
 884              	.LCFI17:
 885              		.cfi_restore 7
 886              		.cfi_def_cfa_offset 0
 887 002e 7047     		bx	lr
 888              		.cfi_endproc
 889              	.LFE134:
 891              		.section	.text.HAL_GPIO_WritePin,"ax",%progbits
 892              		.align	1
 893              		.global	HAL_GPIO_WritePin
 894              		.syntax unified
 895              		.thumb
 896              		.thumb_func
 897              		.fpu fpv4-sp-d16
 899              	HAL_GPIO_WritePin:
ARM GAS  /tmp/ccQj0Cbr.s 			page 24


 900              	.LFB135:
 414:Drivers/STM32L4xx_HAL_Driver/Src/stm32l4xx_hal_gpio.c **** 
 415:Drivers/STM32L4xx_HAL_Driver/Src/stm32l4xx_hal_gpio.c **** /**
 416:Drivers/STM32L4xx_HAL_Driver/Src/stm32l4xx_hal_gpio.c ****   * @brief  Set or clear the selected data port bit.
 417:Drivers/STM32L4xx_HAL_Driver/Src/stm32l4xx_hal_gpio.c ****   *
 418:Drivers/STM32L4xx_HAL_Driver/Src/stm32l4xx_hal_gpio.c ****   * @note   This function uses GPIOx_BSRR and GPIOx_BRR registers to allow atomic read/modify
 419:Drivers/STM32L4xx_HAL_Driver/Src/stm32l4xx_hal_gpio.c ****   *         accesses. In this way, there is no risk of an IRQ occurring between
 420:Drivers/STM32L4xx_HAL_Driver/Src/stm32l4xx_hal_gpio.c ****   *         the read and the modify access.
 421:Drivers/STM32L4xx_HAL_Driver/Src/stm32l4xx_hal_gpio.c ****   *
 422:Drivers/STM32L4xx_HAL_Driver/Src/stm32l4xx_hal_gpio.c ****   * @param  GPIOx where x can be (A..H) to select the GPIO peripheral for STM32L4 family
 423:Drivers/STM32L4xx_HAL_Driver/Src/stm32l4xx_hal_gpio.c ****   * @param  GPIO_Pin specifies the port bit to be written.
 424:Drivers/STM32L4xx_HAL_Driver/Src/stm32l4xx_hal_gpio.c ****   *         This parameter can be any combination of GPIO_Pin_x where x can be (0..15).
 425:Drivers/STM32L4xx_HAL_Driver/Src/stm32l4xx_hal_gpio.c ****   * @param  PinState specifies the value to be written to the selected bit.
 426:Drivers/STM32L4xx_HAL_Driver/Src/stm32l4xx_hal_gpio.c ****   *         This parameter can be one of the GPIO_PinState enum values:
 427:Drivers/STM32L4xx_HAL_Driver/Src/stm32l4xx_hal_gpio.c ****   *            @arg GPIO_PIN_RESET: to clear the port pin
 428:Drivers/STM32L4xx_HAL_Driver/Src/stm32l4xx_hal_gpio.c ****   *            @arg GPIO_PIN_SET: to set the port pin
 429:Drivers/STM32L4xx_HAL_Driver/Src/stm32l4xx_hal_gpio.c ****   * @retval None
 430:Drivers/STM32L4xx_HAL_Driver/Src/stm32l4xx_hal_gpio.c ****   */
 431:Drivers/STM32L4xx_HAL_Driver/Src/stm32l4xx_hal_gpio.c **** void HAL_GPIO_WritePin(GPIO_TypeDef* GPIOx, uint16_t GPIO_Pin, GPIO_PinState PinState)
 432:Drivers/STM32L4xx_HAL_Driver/Src/stm32l4xx_hal_gpio.c **** {
 901              		.loc 1 432 1
 902              		.cfi_startproc
 903              		@ args = 0, pretend = 0, frame = 8
 904              		@ frame_needed = 1, uses_anonymous_args = 0
 905              		@ link register save eliminated.
 906 0000 80B4     		push	{r7}
 907              	.LCFI18:
 908              		.cfi_def_cfa_offset 4
 909              		.cfi_offset 7, -4
 910 0002 83B0     		sub	sp, sp, #12
 911              	.LCFI19:
 912              		.cfi_def_cfa_offset 16
 913 0004 00AF     		add	r7, sp, #0
 914              	.LCFI20:
 915              		.cfi_def_cfa_register 7
 916 0006 7860     		str	r0, [r7, #4]
 917 0008 0B46     		mov	r3, r1
 918 000a 7B80     		strh	r3, [r7, #2]	@ movhi
 919 000c 1346     		mov	r3, r2
 920 000e 7B70     		strb	r3, [r7, #1]
 433:Drivers/STM32L4xx_HAL_Driver/Src/stm32l4xx_hal_gpio.c ****   /* Check the parameters */
 434:Drivers/STM32L4xx_HAL_Driver/Src/stm32l4xx_hal_gpio.c ****   assert_param(IS_GPIO_PIN(GPIO_Pin));
 435:Drivers/STM32L4xx_HAL_Driver/Src/stm32l4xx_hal_gpio.c ****   assert_param(IS_GPIO_PIN_ACTION(PinState));
 436:Drivers/STM32L4xx_HAL_Driver/Src/stm32l4xx_hal_gpio.c **** 
 437:Drivers/STM32L4xx_HAL_Driver/Src/stm32l4xx_hal_gpio.c ****   if(PinState != GPIO_PIN_RESET)
 921              		.loc 1 437 5
 922 0010 7B78     		ldrb	r3, [r7, #1]	@ zero_extendqisi2
 923 0012 002B     		cmp	r3, #0
 924 0014 03D0     		beq	.L39
 438:Drivers/STM32L4xx_HAL_Driver/Src/stm32l4xx_hal_gpio.c ****   {
 439:Drivers/STM32L4xx_HAL_Driver/Src/stm32l4xx_hal_gpio.c ****     GPIOx->BSRR = (uint32_t)GPIO_Pin;
 925              		.loc 1 439 19
 926 0016 7A88     		ldrh	r2, [r7, #2]
 927              		.loc 1 439 17
 928 0018 7B68     		ldr	r3, [r7, #4]
 929 001a 9A61     		str	r2, [r3, #24]
 440:Drivers/STM32L4xx_HAL_Driver/Src/stm32l4xx_hal_gpio.c ****   }
ARM GAS  /tmp/ccQj0Cbr.s 			page 25


 441:Drivers/STM32L4xx_HAL_Driver/Src/stm32l4xx_hal_gpio.c ****   else
 442:Drivers/STM32L4xx_HAL_Driver/Src/stm32l4xx_hal_gpio.c ****   {
 443:Drivers/STM32L4xx_HAL_Driver/Src/stm32l4xx_hal_gpio.c ****     GPIOx->BRR = (uint32_t)GPIO_Pin;
 444:Drivers/STM32L4xx_HAL_Driver/Src/stm32l4xx_hal_gpio.c ****   }
 445:Drivers/STM32L4xx_HAL_Driver/Src/stm32l4xx_hal_gpio.c **** }
 930              		.loc 1 445 1
 931 001c 02E0     		b	.L41
 932              	.L39:
 443:Drivers/STM32L4xx_HAL_Driver/Src/stm32l4xx_hal_gpio.c ****   }
 933              		.loc 1 443 18
 934 001e 7A88     		ldrh	r2, [r7, #2]
 443:Drivers/STM32L4xx_HAL_Driver/Src/stm32l4xx_hal_gpio.c ****   }
 935              		.loc 1 443 16
 936 0020 7B68     		ldr	r3, [r7, #4]
 937 0022 9A62     		str	r2, [r3, #40]
 938              	.L41:
 939              		.loc 1 445 1
 940 0024 00BF     		nop
 941 0026 0C37     		adds	r7, r7, #12
 942              	.LCFI21:
 943              		.cfi_def_cfa_offset 4
 944 0028 BD46     		mov	sp, r7
 945              	.LCFI22:
 946              		.cfi_def_cfa_register 13
 947              		@ sp needed
 948 002a 5DF8047B 		ldr	r7, [sp], #4
 949              	.LCFI23:
 950              		.cfi_restore 7
 951              		.cfi_def_cfa_offset 0
 952 002e 7047     		bx	lr
 953              		.cfi_endproc
 954              	.LFE135:
 956              		.section	.text.HAL_GPIO_TogglePin,"ax",%progbits
 957              		.align	1
 958              		.global	HAL_GPIO_TogglePin
 959              		.syntax unified
 960              		.thumb
 961              		.thumb_func
 962              		.fpu fpv4-sp-d16
 964              	HAL_GPIO_TogglePin:
 965              	.LFB136:
 446:Drivers/STM32L4xx_HAL_Driver/Src/stm32l4xx_hal_gpio.c **** 
 447:Drivers/STM32L4xx_HAL_Driver/Src/stm32l4xx_hal_gpio.c **** /**
 448:Drivers/STM32L4xx_HAL_Driver/Src/stm32l4xx_hal_gpio.c ****   * @brief  Toggle the specified GPIO pin.
 449:Drivers/STM32L4xx_HAL_Driver/Src/stm32l4xx_hal_gpio.c ****   * @param  GPIOx where x can be (A..H) to select the GPIO peripheral for STM32L4 family
 450:Drivers/STM32L4xx_HAL_Driver/Src/stm32l4xx_hal_gpio.c ****   * @param  GPIO_Pin specifies the pin to be toggled.
 451:Drivers/STM32L4xx_HAL_Driver/Src/stm32l4xx_hal_gpio.c ****   * @retval None
 452:Drivers/STM32L4xx_HAL_Driver/Src/stm32l4xx_hal_gpio.c ****   */
 453:Drivers/STM32L4xx_HAL_Driver/Src/stm32l4xx_hal_gpio.c **** void HAL_GPIO_TogglePin(GPIO_TypeDef* GPIOx, uint16_t GPIO_Pin)
 454:Drivers/STM32L4xx_HAL_Driver/Src/stm32l4xx_hal_gpio.c **** {
 966              		.loc 1 454 1
 967              		.cfi_startproc
 968              		@ args = 0, pretend = 0, frame = 16
 969              		@ frame_needed = 1, uses_anonymous_args = 0
 970              		@ link register save eliminated.
 971 0000 80B4     		push	{r7}
 972              	.LCFI24:
ARM GAS  /tmp/ccQj0Cbr.s 			page 26


 973              		.cfi_def_cfa_offset 4
 974              		.cfi_offset 7, -4
 975 0002 85B0     		sub	sp, sp, #20
 976              	.LCFI25:
 977              		.cfi_def_cfa_offset 24
 978 0004 00AF     		add	r7, sp, #0
 979              	.LCFI26:
 980              		.cfi_def_cfa_register 7
 981 0006 7860     		str	r0, [r7, #4]
 982 0008 0B46     		mov	r3, r1
 983 000a 7B80     		strh	r3, [r7, #2]	@ movhi
 455:Drivers/STM32L4xx_HAL_Driver/Src/stm32l4xx_hal_gpio.c ****   uint32_t odr;
 456:Drivers/STM32L4xx_HAL_Driver/Src/stm32l4xx_hal_gpio.c **** 
 457:Drivers/STM32L4xx_HAL_Driver/Src/stm32l4xx_hal_gpio.c ****   /* Check the parameters */
 458:Drivers/STM32L4xx_HAL_Driver/Src/stm32l4xx_hal_gpio.c ****   assert_param(IS_GPIO_PIN(GPIO_Pin));
 459:Drivers/STM32L4xx_HAL_Driver/Src/stm32l4xx_hal_gpio.c **** 
 460:Drivers/STM32L4xx_HAL_Driver/Src/stm32l4xx_hal_gpio.c ****   /* get current Ouput Data Register value */
 461:Drivers/STM32L4xx_HAL_Driver/Src/stm32l4xx_hal_gpio.c ****   odr = GPIOx->ODR;
 984              		.loc 1 461 7
 985 000c 7B68     		ldr	r3, [r7, #4]
 986 000e 5B69     		ldr	r3, [r3, #20]
 987 0010 FB60     		str	r3, [r7, #12]
 462:Drivers/STM32L4xx_HAL_Driver/Src/stm32l4xx_hal_gpio.c **** 
 463:Drivers/STM32L4xx_HAL_Driver/Src/stm32l4xx_hal_gpio.c ****   /* Set selected pins that were at low level, and reset ones that were high */
 464:Drivers/STM32L4xx_HAL_Driver/Src/stm32l4xx_hal_gpio.c ****   GPIOx->BSRR = ((odr & GPIO_Pin) << GPIO_NUMBER) | (~odr & GPIO_Pin);
 988              		.loc 1 464 23
 989 0012 7A88     		ldrh	r2, [r7, #2]
 990 0014 FB68     		ldr	r3, [r7, #12]
 991 0016 1340     		ands	r3, r3, r2
 992              		.loc 1 464 35
 993 0018 1A04     		lsls	r2, r3, #16
 994              		.loc 1 464 54
 995 001a FB68     		ldr	r3, [r7, #12]
 996 001c D943     		mvns	r1, r3
 997              		.loc 1 464 59
 998 001e 7B88     		ldrh	r3, [r7, #2]
 999 0020 0B40     		ands	r3, r3, r1
 1000              		.loc 1 464 51
 1001 0022 1A43     		orrs	r2, r2, r3
 1002              		.loc 1 464 15
 1003 0024 7B68     		ldr	r3, [r7, #4]
 1004 0026 9A61     		str	r2, [r3, #24]
 465:Drivers/STM32L4xx_HAL_Driver/Src/stm32l4xx_hal_gpio.c **** }
 1005              		.loc 1 465 1
 1006 0028 00BF     		nop
 1007 002a 1437     		adds	r7, r7, #20
 1008              	.LCFI27:
 1009              		.cfi_def_cfa_offset 4
 1010 002c BD46     		mov	sp, r7
 1011              	.LCFI28:
 1012              		.cfi_def_cfa_register 13
 1013              		@ sp needed
 1014 002e 5DF8047B 		ldr	r7, [sp], #4
 1015              	.LCFI29:
 1016              		.cfi_restore 7
 1017              		.cfi_def_cfa_offset 0
 1018 0032 7047     		bx	lr
ARM GAS  /tmp/ccQj0Cbr.s 			page 27


 1019              		.cfi_endproc
 1020              	.LFE136:
 1022              		.section	.text.HAL_GPIO_LockPin,"ax",%progbits
 1023              		.align	1
 1024              		.global	HAL_GPIO_LockPin
 1025              		.syntax unified
 1026              		.thumb
 1027              		.thumb_func
 1028              		.fpu fpv4-sp-d16
 1030              	HAL_GPIO_LockPin:
 1031              	.LFB137:
 466:Drivers/STM32L4xx_HAL_Driver/Src/stm32l4xx_hal_gpio.c **** 
 467:Drivers/STM32L4xx_HAL_Driver/Src/stm32l4xx_hal_gpio.c **** /**
 468:Drivers/STM32L4xx_HAL_Driver/Src/stm32l4xx_hal_gpio.c **** * @brief  Lock GPIO Pins configuration registers.
 469:Drivers/STM32L4xx_HAL_Driver/Src/stm32l4xx_hal_gpio.c ****   * @note   The locked registers are GPIOx_MODER, GPIOx_OTYPER, GPIOx_OSPEEDR,
 470:Drivers/STM32L4xx_HAL_Driver/Src/stm32l4xx_hal_gpio.c ****   *         GPIOx_PUPDR, GPIOx_AFRL and GPIOx_AFRH.
 471:Drivers/STM32L4xx_HAL_Driver/Src/stm32l4xx_hal_gpio.c ****   * @note   The configuration of the locked GPIO pins can no longer be modified
 472:Drivers/STM32L4xx_HAL_Driver/Src/stm32l4xx_hal_gpio.c ****   *         until the next reset.
 473:Drivers/STM32L4xx_HAL_Driver/Src/stm32l4xx_hal_gpio.c ****   * @param  GPIOx where x can be (A..H) to select the GPIO peripheral for STM32L4 family
 474:Drivers/STM32L4xx_HAL_Driver/Src/stm32l4xx_hal_gpio.c ****   * @param  GPIO_Pin specifies the port bits to be locked.
 475:Drivers/STM32L4xx_HAL_Driver/Src/stm32l4xx_hal_gpio.c ****   *         This parameter can be any combination of GPIO_Pin_x where x can be (0..15).
 476:Drivers/STM32L4xx_HAL_Driver/Src/stm32l4xx_hal_gpio.c ****   * @retval None
 477:Drivers/STM32L4xx_HAL_Driver/Src/stm32l4xx_hal_gpio.c ****   */
 478:Drivers/STM32L4xx_HAL_Driver/Src/stm32l4xx_hal_gpio.c **** HAL_StatusTypeDef HAL_GPIO_LockPin(GPIO_TypeDef* GPIOx, uint16_t GPIO_Pin)
 479:Drivers/STM32L4xx_HAL_Driver/Src/stm32l4xx_hal_gpio.c **** {
 1032              		.loc 1 479 1
 1033              		.cfi_startproc
 1034              		@ args = 0, pretend = 0, frame = 16
 1035              		@ frame_needed = 1, uses_anonymous_args = 0
 1036              		@ link register save eliminated.
 1037 0000 80B4     		push	{r7}
 1038              	.LCFI30:
 1039              		.cfi_def_cfa_offset 4
 1040              		.cfi_offset 7, -4
 1041 0002 85B0     		sub	sp, sp, #20
 1042              	.LCFI31:
 1043              		.cfi_def_cfa_offset 24
 1044 0004 00AF     		add	r7, sp, #0
 1045              	.LCFI32:
 1046              		.cfi_def_cfa_register 7
 1047 0006 7860     		str	r0, [r7, #4]
 1048 0008 0B46     		mov	r3, r1
 1049 000a 7B80     		strh	r3, [r7, #2]	@ movhi
 480:Drivers/STM32L4xx_HAL_Driver/Src/stm32l4xx_hal_gpio.c ****   __IO uint32_t tmp = GPIO_LCKR_LCKK;
 1050              		.loc 1 480 17
 1051 000c 4FF48033 		mov	r3, #65536
 1052 0010 FB60     		str	r3, [r7, #12]
 481:Drivers/STM32L4xx_HAL_Driver/Src/stm32l4xx_hal_gpio.c **** 
 482:Drivers/STM32L4xx_HAL_Driver/Src/stm32l4xx_hal_gpio.c ****   /* Check the parameters */
 483:Drivers/STM32L4xx_HAL_Driver/Src/stm32l4xx_hal_gpio.c ****   assert_param(IS_GPIO_LOCK_INSTANCE(GPIOx));
 484:Drivers/STM32L4xx_HAL_Driver/Src/stm32l4xx_hal_gpio.c ****   assert_param(IS_GPIO_PIN(GPIO_Pin));
 485:Drivers/STM32L4xx_HAL_Driver/Src/stm32l4xx_hal_gpio.c **** 
 486:Drivers/STM32L4xx_HAL_Driver/Src/stm32l4xx_hal_gpio.c ****   /* Apply lock key write sequence */
 487:Drivers/STM32L4xx_HAL_Driver/Src/stm32l4xx_hal_gpio.c ****   tmp |= GPIO_Pin;
 1053              		.loc 1 487 7
 1054 0012 7A88     		ldrh	r2, [r7, #2]
 1055 0014 FB68     		ldr	r3, [r7, #12]
ARM GAS  /tmp/ccQj0Cbr.s 			page 28


 1056 0016 1343     		orrs	r3, r3, r2
 1057 0018 FB60     		str	r3, [r7, #12]
 488:Drivers/STM32L4xx_HAL_Driver/Src/stm32l4xx_hal_gpio.c ****   /* Set LCKx bit(s): LCKK='1' + LCK[15-0] */
 489:Drivers/STM32L4xx_HAL_Driver/Src/stm32l4xx_hal_gpio.c ****   GPIOx->LCKR = tmp;
 1058              		.loc 1 489 15
 1059 001a FA68     		ldr	r2, [r7, #12]
 1060 001c 7B68     		ldr	r3, [r7, #4]
 1061 001e DA61     		str	r2, [r3, #28]
 490:Drivers/STM32L4xx_HAL_Driver/Src/stm32l4xx_hal_gpio.c ****   /* Reset LCKx bit(s): LCKK='0' + LCK[15-0] */
 491:Drivers/STM32L4xx_HAL_Driver/Src/stm32l4xx_hal_gpio.c ****   GPIOx->LCKR = GPIO_Pin;
 1062              		.loc 1 491 15
 1063 0020 7A88     		ldrh	r2, [r7, #2]
 1064 0022 7B68     		ldr	r3, [r7, #4]
 1065 0024 DA61     		str	r2, [r3, #28]
 492:Drivers/STM32L4xx_HAL_Driver/Src/stm32l4xx_hal_gpio.c ****   /* Set LCKx bit(s): LCKK='1' + LCK[15-0] */
 493:Drivers/STM32L4xx_HAL_Driver/Src/stm32l4xx_hal_gpio.c ****   GPIOx->LCKR = tmp;
 1066              		.loc 1 493 15
 1067 0026 FA68     		ldr	r2, [r7, #12]
 1068 0028 7B68     		ldr	r3, [r7, #4]
 1069 002a DA61     		str	r2, [r3, #28]
 494:Drivers/STM32L4xx_HAL_Driver/Src/stm32l4xx_hal_gpio.c ****   /* Read LCKK register. This read is mandatory to complete key lock sequence */
 495:Drivers/STM32L4xx_HAL_Driver/Src/stm32l4xx_hal_gpio.c ****   tmp = GPIOx->LCKR;
 1070              		.loc 1 495 14
 1071 002c 7B68     		ldr	r3, [r7, #4]
 1072 002e DB69     		ldr	r3, [r3, #28]
 1073              		.loc 1 495 7
 1074 0030 FB60     		str	r3, [r7, #12]
 496:Drivers/STM32L4xx_HAL_Driver/Src/stm32l4xx_hal_gpio.c **** 
 497:Drivers/STM32L4xx_HAL_Driver/Src/stm32l4xx_hal_gpio.c ****   /* Read again in order to confirm lock is active */
 498:Drivers/STM32L4xx_HAL_Driver/Src/stm32l4xx_hal_gpio.c ****   if ((GPIOx->LCKR & GPIO_LCKR_LCKK) != 0x00u)
 1075              		.loc 1 498 13
 1076 0032 7B68     		ldr	r3, [r7, #4]
 1077 0034 DB69     		ldr	r3, [r3, #28]
 1078              		.loc 1 498 20
 1079 0036 03F48033 		and	r3, r3, #65536
 1080              		.loc 1 498 6
 1081 003a 002B     		cmp	r3, #0
 1082 003c 01D0     		beq	.L44
 499:Drivers/STM32L4xx_HAL_Driver/Src/stm32l4xx_hal_gpio.c ****   {
 500:Drivers/STM32L4xx_HAL_Driver/Src/stm32l4xx_hal_gpio.c ****     return HAL_OK;
 1083              		.loc 1 500 12
 1084 003e 0023     		movs	r3, #0
 1085 0040 00E0     		b	.L45
 1086              	.L44:
 501:Drivers/STM32L4xx_HAL_Driver/Src/stm32l4xx_hal_gpio.c ****   }
 502:Drivers/STM32L4xx_HAL_Driver/Src/stm32l4xx_hal_gpio.c ****   else
 503:Drivers/STM32L4xx_HAL_Driver/Src/stm32l4xx_hal_gpio.c ****   {
 504:Drivers/STM32L4xx_HAL_Driver/Src/stm32l4xx_hal_gpio.c ****     return HAL_ERROR;
 1087              		.loc 1 504 12
 1088 0042 0123     		movs	r3, #1
 1089              	.L45:
 505:Drivers/STM32L4xx_HAL_Driver/Src/stm32l4xx_hal_gpio.c ****   }
 506:Drivers/STM32L4xx_HAL_Driver/Src/stm32l4xx_hal_gpio.c **** }
 1090              		.loc 1 506 1
 1091 0044 1846     		mov	r0, r3
 1092 0046 1437     		adds	r7, r7, #20
 1093              	.LCFI33:
ARM GAS  /tmp/ccQj0Cbr.s 			page 29


 1094              		.cfi_def_cfa_offset 4
 1095 0048 BD46     		mov	sp, r7
 1096              	.LCFI34:
 1097              		.cfi_def_cfa_register 13
 1098              		@ sp needed
 1099 004a 5DF8047B 		ldr	r7, [sp], #4
 1100              	.LCFI35:
 1101              		.cfi_restore 7
 1102              		.cfi_def_cfa_offset 0
 1103 004e 7047     		bx	lr
 1104              		.cfi_endproc
 1105              	.LFE137:
 1107              		.section	.text.HAL_GPIO_EXTI_IRQHandler,"ax",%progbits
 1108              		.align	1
 1109              		.global	HAL_GPIO_EXTI_IRQHandler
 1110              		.syntax unified
 1111              		.thumb
 1112              		.thumb_func
 1113              		.fpu fpv4-sp-d16
 1115              	HAL_GPIO_EXTI_IRQHandler:
 1116              	.LFB138:
 507:Drivers/STM32L4xx_HAL_Driver/Src/stm32l4xx_hal_gpio.c **** 
 508:Drivers/STM32L4xx_HAL_Driver/Src/stm32l4xx_hal_gpio.c **** /**
 509:Drivers/STM32L4xx_HAL_Driver/Src/stm32l4xx_hal_gpio.c ****   * @brief  Handle EXTI interrupt request.
 510:Drivers/STM32L4xx_HAL_Driver/Src/stm32l4xx_hal_gpio.c ****   * @param  GPIO_Pin Specifies the port pin connected to corresponding EXTI line.
 511:Drivers/STM32L4xx_HAL_Driver/Src/stm32l4xx_hal_gpio.c ****   * @retval None
 512:Drivers/STM32L4xx_HAL_Driver/Src/stm32l4xx_hal_gpio.c ****   */
 513:Drivers/STM32L4xx_HAL_Driver/Src/stm32l4xx_hal_gpio.c **** void HAL_GPIO_EXTI_IRQHandler(uint16_t GPIO_Pin)
 514:Drivers/STM32L4xx_HAL_Driver/Src/stm32l4xx_hal_gpio.c **** {
 1117              		.loc 1 514 1
 1118              		.cfi_startproc
 1119              		@ args = 0, pretend = 0, frame = 8
 1120              		@ frame_needed = 1, uses_anonymous_args = 0
 1121 0000 80B5     		push	{r7, lr}
 1122              	.LCFI36:
 1123              		.cfi_def_cfa_offset 8
 1124              		.cfi_offset 7, -8
 1125              		.cfi_offset 14, -4
 1126 0002 82B0     		sub	sp, sp, #8
 1127              	.LCFI37:
 1128              		.cfi_def_cfa_offset 16
 1129 0004 00AF     		add	r7, sp, #0
 1130              	.LCFI38:
 1131              		.cfi_def_cfa_register 7
 1132 0006 0346     		mov	r3, r0
 1133 0008 FB80     		strh	r3, [r7, #6]	@ movhi
 515:Drivers/STM32L4xx_HAL_Driver/Src/stm32l4xx_hal_gpio.c ****   /* EXTI line interrupt detected */
 516:Drivers/STM32L4xx_HAL_Driver/Src/stm32l4xx_hal_gpio.c ****   if(__HAL_GPIO_EXTI_GET_IT(GPIO_Pin) != 0x00u)
 1134              		.loc 1 516 6
 1135 000a 084B     		ldr	r3, .L49
 1136 000c 5A69     		ldr	r2, [r3, #20]
 1137 000e FB88     		ldrh	r3, [r7, #6]
 1138 0010 1340     		ands	r3, r3, r2
 1139              		.loc 1 516 5
 1140 0012 002B     		cmp	r3, #0
 1141 0014 06D0     		beq	.L48
 517:Drivers/STM32L4xx_HAL_Driver/Src/stm32l4xx_hal_gpio.c ****   {
ARM GAS  /tmp/ccQj0Cbr.s 			page 30


 518:Drivers/STM32L4xx_HAL_Driver/Src/stm32l4xx_hal_gpio.c ****     __HAL_GPIO_EXTI_CLEAR_IT(GPIO_Pin);
 1142              		.loc 1 518 5
 1143 0016 054A     		ldr	r2, .L49
 1144 0018 FB88     		ldrh	r3, [r7, #6]
 1145 001a 5361     		str	r3, [r2, #20]
 519:Drivers/STM32L4xx_HAL_Driver/Src/stm32l4xx_hal_gpio.c ****     HAL_GPIO_EXTI_Callback(GPIO_Pin);
 1146              		.loc 1 519 5
 1147 001c FB88     		ldrh	r3, [r7, #6]
 1148 001e 1846     		mov	r0, r3
 1149 0020 FFF7FEFF 		bl	HAL_GPIO_EXTI_Callback
 1150              	.L48:
 520:Drivers/STM32L4xx_HAL_Driver/Src/stm32l4xx_hal_gpio.c ****   }
 521:Drivers/STM32L4xx_HAL_Driver/Src/stm32l4xx_hal_gpio.c **** }
 1151              		.loc 1 521 1
 1152 0024 00BF     		nop
 1153 0026 0837     		adds	r7, r7, #8
 1154              	.LCFI39:
 1155              		.cfi_def_cfa_offset 8
 1156 0028 BD46     		mov	sp, r7
 1157              	.LCFI40:
 1158              		.cfi_def_cfa_register 13
 1159              		@ sp needed
 1160 002a 80BD     		pop	{r7, pc}
 1161              	.L50:
 1162              		.align	2
 1163              	.L49:
 1164 002c 00040140 		.word	1073808384
 1165              		.cfi_endproc
 1166              	.LFE138:
 1168              		.section	.text.HAL_GPIO_EXTI_Callback,"ax",%progbits
 1169              		.align	1
 1170              		.weak	HAL_GPIO_EXTI_Callback
 1171              		.syntax unified
 1172              		.thumb
 1173              		.thumb_func
 1174              		.fpu fpv4-sp-d16
 1176              	HAL_GPIO_EXTI_Callback:
 1177              	.LFB139:
 522:Drivers/STM32L4xx_HAL_Driver/Src/stm32l4xx_hal_gpio.c **** 
 523:Drivers/STM32L4xx_HAL_Driver/Src/stm32l4xx_hal_gpio.c **** /**
 524:Drivers/STM32L4xx_HAL_Driver/Src/stm32l4xx_hal_gpio.c ****   * @brief  EXTI line detection callback.
 525:Drivers/STM32L4xx_HAL_Driver/Src/stm32l4xx_hal_gpio.c ****   * @param  GPIO_Pin Specifies the port pin connected to corresponding EXTI line.
 526:Drivers/STM32L4xx_HAL_Driver/Src/stm32l4xx_hal_gpio.c ****   * @retval None
 527:Drivers/STM32L4xx_HAL_Driver/Src/stm32l4xx_hal_gpio.c ****   */
 528:Drivers/STM32L4xx_HAL_Driver/Src/stm32l4xx_hal_gpio.c **** __weak void HAL_GPIO_EXTI_Callback(uint16_t GPIO_Pin)
 529:Drivers/STM32L4xx_HAL_Driver/Src/stm32l4xx_hal_gpio.c **** {
 1178              		.loc 1 529 1
 1179              		.cfi_startproc
 1180              		@ args = 0, pretend = 0, frame = 8
 1181              		@ frame_needed = 1, uses_anonymous_args = 0
 1182              		@ link register save eliminated.
 1183 0000 80B4     		push	{r7}
 1184              	.LCFI41:
 1185              		.cfi_def_cfa_offset 4
 1186              		.cfi_offset 7, -4
 1187 0002 83B0     		sub	sp, sp, #12
 1188              	.LCFI42:
ARM GAS  /tmp/ccQj0Cbr.s 			page 31


 1189              		.cfi_def_cfa_offset 16
 1190 0004 00AF     		add	r7, sp, #0
 1191              	.LCFI43:
 1192              		.cfi_def_cfa_register 7
 1193 0006 0346     		mov	r3, r0
 1194 0008 FB80     		strh	r3, [r7, #6]	@ movhi
 530:Drivers/STM32L4xx_HAL_Driver/Src/stm32l4xx_hal_gpio.c ****   /* Prevent unused argument(s) compilation warning */
 531:Drivers/STM32L4xx_HAL_Driver/Src/stm32l4xx_hal_gpio.c ****   UNUSED(GPIO_Pin);
 532:Drivers/STM32L4xx_HAL_Driver/Src/stm32l4xx_hal_gpio.c **** 
 533:Drivers/STM32L4xx_HAL_Driver/Src/stm32l4xx_hal_gpio.c ****   /* NOTE: This function should not be modified, when the callback is needed,
 534:Drivers/STM32L4xx_HAL_Driver/Src/stm32l4xx_hal_gpio.c ****            the HAL_GPIO_EXTI_Callback could be implemented in the user file
 535:Drivers/STM32L4xx_HAL_Driver/Src/stm32l4xx_hal_gpio.c ****    */
 536:Drivers/STM32L4xx_HAL_Driver/Src/stm32l4xx_hal_gpio.c **** }
 1195              		.loc 1 536 1
 1196 000a 00BF     		nop
 1197 000c 0C37     		adds	r7, r7, #12
 1198              	.LCFI44:
 1199              		.cfi_def_cfa_offset 4
 1200 000e BD46     		mov	sp, r7
 1201              	.LCFI45:
 1202              		.cfi_def_cfa_register 13
 1203              		@ sp needed
 1204 0010 5DF8047B 		ldr	r7, [sp], #4
 1205              	.LCFI46:
 1206              		.cfi_restore 7
 1207              		.cfi_def_cfa_offset 0
 1208 0014 7047     		bx	lr
 1209              		.cfi_endproc
 1210              	.LFE139:
 1212              		.text
 1213              	.Letext0:
 1214              		.file 2 "/opt/gcc-arm-none-eabi/gcc-arm-none-eabi-10-2020-q4-major/arm-none-eabi/include/machine/_
 1215              		.file 3 "/opt/gcc-arm-none-eabi/gcc-arm-none-eabi-10-2020-q4-major/arm-none-eabi/include/sys/_stdi
 1216              		.file 4 "Drivers/CMSIS/Device/ST/STM32L4xx/Include/stm32l432xx.h"
 1217              		.file 5 "Drivers/STM32L4xx_HAL_Driver/Inc/stm32l4xx_hal_def.h"
 1218              		.file 6 "Drivers/STM32L4xx_HAL_Driver/Inc/stm32l4xx_hal_gpio.h"
ARM GAS  /tmp/ccQj0Cbr.s 			page 32

